SF:/Users/d.dahl/code/otel-arrow/rust/otel-arrow-rust/src/arrays.rs
FN:45,_RNvXNtCs2Zzx8WPYKXd_15otel_arrow_rust6arraysRINtNtNtCs5YmLTPZiaZu_11arrow_array5array10byte_array16GenericByteArrayINtNtBO_5types17GenericBinaryTypelEENtB2_21NullableArrayAccessor8value_atB4_
FN:45,_RNvXNtCs2Zzx8WPYKXd_15otel_arrow_rust6arraysRINtNtNtCs5YmLTPZiaZu_11arrow_array5array10byte_array16GenericByteArrayINtNtBO_5types17GenericStringTypelEENtB2_21NullableArrayAccessor8value_atB4_
FN:133,_RNCNCNvNtCs2Zzx8WPYKXd_15otel_arrow_rust6arrays16get_i8_array_opt00B7_
FN:133,_RNCNCNvNtCs2Zzx8WPYKXd_15otel_arrow_rust6arrays16get_u8_array_opt00B7_
FN:133,_RNCNCNvNtCs2Zzx8WPYKXd_15otel_arrow_rust6arrays17get_f32_array_opt00B7_
FN:133,_RNCNCNvNtCs2Zzx8WPYKXd_15otel_arrow_rust6arrays17get_i16_array_opt00B7_
FN:133,_RNCNCNvNtCs2Zzx8WPYKXd_15otel_arrow_rust6arrays17get_i32_array_opt00B7_
FN:133,_RNCNCNvNtCs2Zzx8WPYKXd_15otel_arrow_rust6arrays17get_u16_array_opt00B7_
FN:133,_RNCNCNvNtCs2Zzx8WPYKXd_15otel_arrow_rust6arrays17get_u64_array_opt00B7_
FN:133,_RNCNCNvNtCs2Zzx8WPYKXd_15otel_arrow_rust6arrays20get_binary_array_opt00B7_
FN:133,_RNCNCNvNtCs2Zzx8WPYKXd_15otel_arrow_rust6arrays20get_string_array_opt00B7_
FN:147,_RNCNvNtCs2Zzx8WPYKXd_15otel_arrow_rust6arrays12get_i8_array0B5_
FN:147,_RNCNvNtCs2Zzx8WPYKXd_15otel_arrow_rust6arrays13get_f32_array0B5_
FN:147,_RNCNvNtCs2Zzx8WPYKXd_15otel_arrow_rust6arrays13get_i16_array0B5_
FN:147,_RNCNvNtCs2Zzx8WPYKXd_15otel_arrow_rust6arrays13get_i64_array0B5_
FN:147,_RNCNvNtCs2Zzx8WPYKXd_15otel_arrow_rust6arrays14get_bool_array0B5_
FN:147,_RNCNvNtCs2Zzx8WPYKXd_15otel_arrow_rust6arrays16get_binary_array0B5_
FN:130,_RNCNvNtCs2Zzx8WPYKXd_15otel_arrow_rust6arrays16get_i8_array_opt0B5_
FN:147,_RNCNvNtCs2Zzx8WPYKXd_15otel_arrow_rust6arrays16get_string_array0B5_
FN:130,_RNCNvNtCs2Zzx8WPYKXd_15otel_arrow_rust6arrays16get_u8_array_opt0B5_
FN:130,_RNCNvNtCs2Zzx8WPYKXd_15otel_arrow_rust6arrays17get_f32_array_opt0B5_
FN:130,_RNCNvNtCs2Zzx8WPYKXd_15otel_arrow_rust6arrays17get_i16_array_opt0B5_
FN:130,_RNCNvNtCs2Zzx8WPYKXd_15otel_arrow_rust6arrays17get_i32_array_opt0B5_
FN:130,_RNCNvNtCs2Zzx8WPYKXd_15otel_arrow_rust6arrays17get_u16_array_opt0B5_
FN:130,_RNCNvNtCs2Zzx8WPYKXd_15otel_arrow_rust6arrays17get_u64_array_opt0B5_
FN:130,_RNCNvNtCs2Zzx8WPYKXd_15otel_arrow_rust6arrays20get_binary_array_opt0B5_
FN:130,_RNCNvNtCs2Zzx8WPYKXd_15otel_arrow_rust6arrays20get_string_array_opt0B5_
FN:419,_RNvMsd_NtCs2Zzx8WPYKXd_15otel_arrow_rust6arraysINtB5_22MaybeDictArrayAccessorINtNtNtCs5YmLTPZiaZu_11arrow_array5array15primitive_array14PrimitiveArraypEE18try_new_for_columnB7_
FN:141,_RNvNtCs2Zzx8WPYKXd_15otel_arrow_rust6arrays12get_i8_array
FN:141,_RNvNtCs2Zzx8WPYKXd_15otel_arrow_rust6arrays13get_f32_array
FN:141,_RNvNtCs2Zzx8WPYKXd_15otel_arrow_rust6arrays13get_i16_array
FN:141,_RNvNtCs2Zzx8WPYKXd_15otel_arrow_rust6arrays13get_i64_array
FN:141,_RNvNtCs2Zzx8WPYKXd_15otel_arrow_rust6arrays14get_bool_array
FN:141,_RNvNtCs2Zzx8WPYKXd_15otel_arrow_rust6arrays16get_binary_array
FN:127,_RNvNtCs2Zzx8WPYKXd_15otel_arrow_rust6arrays16get_i8_array_opt
FN:141,_RNvNtCs2Zzx8WPYKXd_15otel_arrow_rust6arrays16get_string_array
FN:127,_RNvNtCs2Zzx8WPYKXd_15otel_arrow_rust6arrays16get_u8_array_opt
FN:127,_RNvNtCs2Zzx8WPYKXd_15otel_arrow_rust6arrays17get_f32_array_opt
FN:127,_RNvNtCs2Zzx8WPYKXd_15otel_arrow_rust6arrays17get_i16_array_opt
FN:127,_RNvNtCs2Zzx8WPYKXd_15otel_arrow_rust6arrays17get_i32_array_opt
FN:127,_RNvNtCs2Zzx8WPYKXd_15otel_arrow_rust6arrays17get_u16_array_opt
FN:127,_RNvNtCs2Zzx8WPYKXd_15otel_arrow_rust6arrays17get_u64_array_opt
FN:127,_RNvNtCs2Zzx8WPYKXd_15otel_arrow_rust6arrays20get_binary_array_opt
FN:127,_RNvNtCs2Zzx8WPYKXd_15otel_arrow_rust6arrays20get_string_array_opt
FN:204,_RNvXININtCs2Zzx8WPYKXd_15otel_arrow_rust6arrayss6_0pERINtNtNtCs5YmLTPZiaZu_11arrow_array5array16dictionary_array15DictionaryArraypENtB5_26NullableInt64ArrayAccessor6i64_atB7_
FN:232,_RNvXININtCs2Zzx8WPYKXd_15otel_arrow_rust6arrayss8_0pERINtNtNtCs5YmLTPZiaZu_11arrow_array5array16dictionary_array15DictionaryArraypENtB5_24NullableF64ArrayAccessor6f64_atB7_
FN:195,_RNvXs5_NtCs2Zzx8WPYKXd_15otel_arrow_rust6arraysRINtNtNtCs5YmLTPZiaZu_11arrow_array5array15primitive_array14PrimitiveArrayNtNtBR_5types9Int64TypeENtB5_26NullableInt64ArrayAccessor6i64_at
FN:223,_RNvXs7_NtCs2Zzx8WPYKXd_15otel_arrow_rust6arraysRINtNtNtCs5YmLTPZiaZu_11arrow_array5array15primitive_array14PrimitiveArrayNtNtBR_5types11Float64TypeENtB5_24NullableF64ArrayAccessor6f64_at
FN:256,_RNvMs9_NtCs2Zzx8WPYKXd_15otel_arrow_rust6arraysNtB5_17ByteArrayAccessor18try_new_for_column
FN:263,_RNvMs9_NtCs2Zzx8WPYKXd_15otel_arrow_rust6arraysNtB5_17ByteArrayAccessor7try_new
FN:428,_RNvMse_NtCs2Zzx8WPYKXd_15otel_arrow_rust6arraysINtB5_22MaybeDictArrayAccessorINtNtNtCs5YmLTPZiaZu_11arrow_array5array10byte_array16GenericByteArrayINtNtB1k_5types17GenericBinaryTypelEEE7try_new
FN:434,_RNvMsf_NtCs2Zzx8WPYKXd_15otel_arrow_rust6arraysINtB5_22MaybeDictArrayAccessorNtNtNtCs5YmLTPZiaZu_11arrow_array5array23fixed_size_binary_array20FixedSizeBinaryArrayE7try_new
FN:444,_RNvMsg_NtCs2Zzx8WPYKXd_15otel_arrow_rust6arraysINtB5_22MaybeDictArrayAccessorINtNtNtCs5YmLTPZiaZu_11arrow_array5array10byte_array16GenericByteArrayINtNtB1k_5types17GenericStringTypelEEE18try_new_for_column
FN:440,_RNvMsg_NtCs2Zzx8WPYKXd_15otel_arrow_rust6arraysINtB5_22MaybeDictArrayAccessorINtNtNtCs5YmLTPZiaZu_11arrow_array5array10byte_array16GenericByteArrayINtNtB1k_5types17GenericStringTypelEEE7try_new
FN:536,_RNvMsi_NtCs2Zzx8WPYKXd_15otel_arrow_rust6arraysNtB5_20StructColumnAccessor14bool_column_op
FN:551,_RNvMsi_NtCs2Zzx8WPYKXd_15otel_arrow_rust6arraysNtB5_20StructColumnAccessor16string_column_op
FN:561,_RNvMsi_NtCs2Zzx8WPYKXd_15otel_arrow_rust6arraysNtB5_20StructColumnAccessor20byte_array_column_op
FN:504,_RNvMsi_NtCs2Zzx8WPYKXd_15otel_arrow_rust6arraysNtB5_20StructColumnAccessor3new
FN:141,_RNvNtCs2Zzx8WPYKXd_15otel_arrow_rust6arrays12get_u8_array
FN:141,_RNvNtCs2Zzx8WPYKXd_15otel_arrow_rust6arrays13get_f64_array
FN:141,_RNvNtCs2Zzx8WPYKXd_15otel_arrow_rust6arrays13get_i32_array
FN:141,_RNvNtCs2Zzx8WPYKXd_15otel_arrow_rust6arrays13get_u16_array
FN:141,_RNvNtCs2Zzx8WPYKXd_15otel_arrow_rust6arrays13get_u32_array
FN:141,_RNvNtCs2Zzx8WPYKXd_15otel_arrow_rust6arrays13get_u64_array
FN:127,_RNvNtCs2Zzx8WPYKXd_15otel_arrow_rust6arrays17get_f64_array_opt
FN:127,_RNvNtCs2Zzx8WPYKXd_15otel_arrow_rust6arrays17get_i64_array_opt
FN:127,_RNvNtCs2Zzx8WPYKXd_15otel_arrow_rust6arrays17get_u32_array_opt
FN:127,_RNvNtCs2Zzx8WPYKXd_15otel_arrow_rust6arrays18get_bool_array_opt
FN:181,_RNvNtCs2Zzx8WPYKXd_15otel_arrow_rust6arrays18get_required_array
FN:141,_RNvNtCs2Zzx8WPYKXd_15otel_arrow_rust6arrays30get_timestamp_nanosecond_array
FN:127,_RNvNtCs2Zzx8WPYKXd_15otel_arrow_rust6arrays34get_timestamp_nanosecond_array_opt
FN:311,_RNvXsa_NtCs2Zzx8WPYKXd_15otel_arrow_rust6arraysNtB5_17ByteArrayAccessorNtB5_21NullableArrayAccessor8value_at
FN:91,_RNvXs2_NtCs2Zzx8WPYKXd_15otel_arrow_rust6arraysINtNtNtCs5YmLTPZiaZu_11arrow_array5array10byte_array16GenericByteArrayINtNtBQ_5types17GenericBinaryTypelEENtB5_21NullableArrayAccessor8value_at
FN:115,_RNvXs4_NtCs2Zzx8WPYKXd_15otel_arrow_rust6arraysINtNtNtCs5YmLTPZiaZu_11arrow_array5array10byte_array16GenericByteArrayINtNtBQ_5types17GenericStringTypelEENtB5_21NullableArrayAccessor8value_at
FN:508,_RINvMsi_NtCs2Zzx8WPYKXd_15otel_arrow_rust6arraysNtB6_20StructColumnAccessor16primitive_columnNtNtCs5YmLTPZiaZu_11arrow_array5types10UInt16TypeEB8_
FN:508,_RINvMsi_NtCs2Zzx8WPYKXd_15otel_arrow_rust6arraysNtB6_20StructColumnAccessor16primitive_columnNtNtCs5YmLTPZiaZu_11arrow_array5types9UInt8TypeEB8_
FN:518,_RINvMsi_NtCs2Zzx8WPYKXd_15otel_arrow_rust6arraysNtB6_20StructColumnAccessor19primitive_column_opNtNtCs5YmLTPZiaZu_11arrow_array5types10UInt16TypeEB8_
FN:518,_RINvMsi_NtCs2Zzx8WPYKXd_15otel_arrow_rust6arraysNtB6_20StructColumnAccessor19primitive_column_opNtNtCs5YmLTPZiaZu_11arrow_array5types10UInt32TypeEB8_
FN:518,_RINvMsi_NtCs2Zzx8WPYKXd_15otel_arrow_rust6arraysNtB6_20StructColumnAccessor19primitive_column_opNtNtCs5YmLTPZiaZu_11arrow_array5types11Float64TypeEB8_
FN:518,_RINvMsi_NtCs2Zzx8WPYKXd_15otel_arrow_rust6arraysNtB6_20StructColumnAccessor19primitive_column_opNtNtCs5YmLTPZiaZu_11arrow_array5types9Int64TypeEB8_
FN:518,_RINvMsi_NtCs2Zzx8WPYKXd_15otel_arrow_rust6arraysNtB6_20StructColumnAccessor19primitive_column_opNtNtCs5YmLTPZiaZu_11arrow_array5types9UInt8TypeEB8_
FN:513,_RNCINvMsi_NtCs2Zzx8WPYKXd_15otel_arrow_rust6arraysNtB8_20StructColumnAccessor16primitive_columnNtNtCs5YmLTPZiaZu_11arrow_array5types10UInt16TypeE0Ba_
FN:513,_RNCINvMsi_NtCs2Zzx8WPYKXd_15otel_arrow_rust6arraysNtB8_20StructColumnAccessor16primitive_columnNtNtCs5YmLTPZiaZu_11arrow_array5types9UInt8TypeE0Ba_
FN:524,_RNCINvMsi_NtCs2Zzx8WPYKXd_15otel_arrow_rust6arraysNtB8_20StructColumnAccessor19primitive_column_opNtNtCs5YmLTPZiaZu_11arrow_array5types10UInt16TypeE0Ba_
FN:524,_RNCINvMsi_NtCs2Zzx8WPYKXd_15otel_arrow_rust6arraysNtB8_20StructColumnAccessor19primitive_column_opNtNtCs5YmLTPZiaZu_11arrow_array5types10UInt32TypeE0Ba_
FN:524,_RNCINvMsi_NtCs2Zzx8WPYKXd_15otel_arrow_rust6arraysNtB8_20StructColumnAccessor19primitive_column_opNtNtCs5YmLTPZiaZu_11arrow_array5types11Float64TypeE0Ba_
FN:524,_RNCINvMsi_NtCs2Zzx8WPYKXd_15otel_arrow_rust6arraysNtB8_20StructColumnAccessor19primitive_column_opNtNtCs5YmLTPZiaZu_11arrow_array5types9Int64TypeE0Ba_
FN:524,_RNCINvMsi_NtCs2Zzx8WPYKXd_15otel_arrow_rust6arraysNtB8_20StructColumnAccessor19primitive_column_opNtNtCs5YmLTPZiaZu_11arrow_array5types9UInt8TypeE0Ba_
FN:527,_RNCNCINvMsi_NtCs2Zzx8WPYKXd_15otel_arrow_rust6arraysNtBa_20StructColumnAccessor19primitive_column_opNtNtCs5YmLTPZiaZu_11arrow_array5types10UInt16TypeE00Bc_
FN:527,_RNCNCINvMsi_NtCs2Zzx8WPYKXd_15otel_arrow_rust6arraysNtBa_20StructColumnAccessor19primitive_column_opNtNtCs5YmLTPZiaZu_11arrow_array5types10UInt32TypeE00Bc_
FN:527,_RNCNCINvMsi_NtCs2Zzx8WPYKXd_15otel_arrow_rust6arraysNtBa_20StructColumnAccessor19primitive_column_opNtNtCs5YmLTPZiaZu_11arrow_array5types11Float64TypeE00Bc_
FN:527,_RNCNCINvMsi_NtCs2Zzx8WPYKXd_15otel_arrow_rust6arraysNtBa_20StructColumnAccessor19primitive_column_opNtNtCs5YmLTPZiaZu_11arrow_array5types9Int64TypeE00Bc_
FN:527,_RNCNCINvMsi_NtCs2Zzx8WPYKXd_15otel_arrow_rust6arraysNtBa_20StructColumnAccessor19primitive_column_opNtNtCs5YmLTPZiaZu_11arrow_array5types9UInt8TypeE00Bc_
FN:542,_RNCNCNvMsi_NtCs2Zzx8WPYKXd_15otel_arrow_rust6arraysNtB9_20StructColumnAccessor14bool_column_op00Bb_
FN:133,_RNCNCNvNtCs2Zzx8WPYKXd_15otel_arrow_rust6arrays17get_f64_array_opt00B7_
FN:133,_RNCNCNvNtCs2Zzx8WPYKXd_15otel_arrow_rust6arrays17get_i64_array_opt00B7_
FN:133,_RNCNCNvNtCs2Zzx8WPYKXd_15otel_arrow_rust6arrays17get_u32_array_opt00B7_
FN:133,_RNCNCNvNtCs2Zzx8WPYKXd_15otel_arrow_rust6arrays18get_bool_array_opt00B7_
FN:133,_RNCNCNvNtCs2Zzx8WPYKXd_15otel_arrow_rust6arrays34get_timestamp_nanosecond_array_opt00B7_
FN:474,_RNCNvMsh_NtCs2Zzx8WPYKXd_15otel_arrow_rust6arraysINtB7_23DictionaryArrayAccessorNtNtCs5YmLTPZiaZu_11arrow_array5types10UInt16TypeINtNtNtB1k_5array10byte_array16GenericByteArrayINtB1i_17GenericBinaryTypelEEE3new0B9_
FN:474,_RNCNvMsh_NtCs2Zzx8WPYKXd_15otel_arrow_rust6arraysINtB7_23DictionaryArrayAccessorNtNtCs5YmLTPZiaZu_11arrow_array5types10UInt16TypeINtNtNtB1k_5array10byte_array16GenericByteArrayINtB1i_17GenericStringTypelEEE3new0B9_
FN:474,_RNCNvMsh_NtCs2Zzx8WPYKXd_15otel_arrow_rust6arraysINtB7_23DictionaryArrayAccessorNtNtCs5YmLTPZiaZu_11arrow_array5types10UInt16TypeINtNtNtB1k_5array15primitive_array14PrimitiveArrayB1g_EE3new0B9_
FN:474,_RNCNvMsh_NtCs2Zzx8WPYKXd_15otel_arrow_rust6arraysINtB7_23DictionaryArrayAccessorNtNtCs5YmLTPZiaZu_11arrow_array5types10UInt16TypeINtNtNtB1k_5array15primitive_array14PrimitiveArrayNtB1i_10UInt32TypeEE3new0B9_
FN:474,_RNCNvMsh_NtCs2Zzx8WPYKXd_15otel_arrow_rust6arraysINtB7_23DictionaryArrayAccessorNtNtCs5YmLTPZiaZu_11arrow_array5types10UInt16TypeINtNtNtB1k_5array15primitive_array14PrimitiveArrayNtB1i_9Int32TypeEE3new0B9_
FN:474,_RNCNvMsh_NtCs2Zzx8WPYKXd_15otel_arrow_rust6arraysINtB7_23DictionaryArrayAccessorNtNtCs5YmLTPZiaZu_11arrow_array5types10UInt16TypeINtNtNtB1k_5array15primitive_array14PrimitiveArrayNtB1i_9Int64TypeEE3new0B9_
FN:474,_RNCNvMsh_NtCs2Zzx8WPYKXd_15otel_arrow_rust6arraysINtB7_23DictionaryArrayAccessorNtNtCs5YmLTPZiaZu_11arrow_array5types10UInt16TypeNtNtNtB1k_5array23fixed_size_binary_array20FixedSizeBinaryArrayE3new0B9_
FN:474,_RNCNvMsh_NtCs2Zzx8WPYKXd_15otel_arrow_rust6arraysINtB7_23DictionaryArrayAccessorNtNtCs5YmLTPZiaZu_11arrow_array5types9UInt8TypeINtNtNtB1k_5array10byte_array16GenericByteArrayINtB1i_17GenericBinaryTypelEEE3new0B9_
FN:474,_RNCNvMsh_NtCs2Zzx8WPYKXd_15otel_arrow_rust6arraysINtB7_23DictionaryArrayAccessorNtNtCs5YmLTPZiaZu_11arrow_array5types9UInt8TypeINtNtNtB1k_5array10byte_array16GenericByteArrayINtB1i_17GenericStringTypelEEE3new0B9_
FN:474,_RNCNvMsh_NtCs2Zzx8WPYKXd_15otel_arrow_rust6arraysINtB7_23DictionaryArrayAccessorNtNtCs5YmLTPZiaZu_11arrow_array5types9UInt8TypeINtNtNtB1k_5array15primitive_array14PrimitiveArrayNtB1i_10UInt16TypeEE3new0B9_
FN:474,_RNCNvMsh_NtCs2Zzx8WPYKXd_15otel_arrow_rust6arraysINtB7_23DictionaryArrayAccessorNtNtCs5YmLTPZiaZu_11arrow_array5types9UInt8TypeINtNtNtB1k_5array15primitive_array14PrimitiveArrayNtB1i_10UInt32TypeEE3new0B9_
FN:474,_RNCNvMsh_NtCs2Zzx8WPYKXd_15otel_arrow_rust6arraysINtB7_23DictionaryArrayAccessorNtNtCs5YmLTPZiaZu_11arrow_array5types9UInt8TypeINtNtNtB1k_5array15primitive_array14PrimitiveArrayNtB1i_9Int32TypeEE3new0B9_
FN:474,_RNCNvMsh_NtCs2Zzx8WPYKXd_15otel_arrow_rust6arraysINtB7_23DictionaryArrayAccessorNtNtCs5YmLTPZiaZu_11arrow_array5types9UInt8TypeINtNtNtB1k_5array15primitive_array14PrimitiveArrayNtB1i_9Int64TypeEE3new0B9_
FN:474,_RNCNvMsh_NtCs2Zzx8WPYKXd_15otel_arrow_rust6arraysINtB7_23DictionaryArrayAccessorNtNtCs5YmLTPZiaZu_11arrow_array5types9UInt8TypeNtNtNtB1k_5array23fixed_size_binary_array20FixedSizeBinaryArrayE3new0B9_
FN:539,_RNCNvMsi_NtCs2Zzx8WPYKXd_15otel_arrow_rust6arraysNtB7_20StructColumnAccessor14bool_column_op0B9_
FN:147,_RNCNvNtCs2Zzx8WPYKXd_15otel_arrow_rust6arrays12get_u8_array0B5_
FN:147,_RNCNvNtCs2Zzx8WPYKXd_15otel_arrow_rust6arrays13get_f64_array0B5_
FN:147,_RNCNvNtCs2Zzx8WPYKXd_15otel_arrow_rust6arrays13get_i32_array0B5_
FN:147,_RNCNvNtCs2Zzx8WPYKXd_15otel_arrow_rust6arrays13get_u16_array0B5_
FN:147,_RNCNvNtCs2Zzx8WPYKXd_15otel_arrow_rust6arrays13get_u32_array0B5_
FN:147,_RNCNvNtCs2Zzx8WPYKXd_15otel_arrow_rust6arrays13get_u64_array0B5_
FN:130,_RNCNvNtCs2Zzx8WPYKXd_15otel_arrow_rust6arrays17get_f64_array_opt0B5_
FN:130,_RNCNvNtCs2Zzx8WPYKXd_15otel_arrow_rust6arrays17get_i64_array_opt0B5_
FN:130,_RNCNvNtCs2Zzx8WPYKXd_15otel_arrow_rust6arrays17get_u32_array_opt0B5_
FN:130,_RNCNvNtCs2Zzx8WPYKXd_15otel_arrow_rust6arrays18get_bool_array_opt0B5_
FN:147,_RNCNvNtCs2Zzx8WPYKXd_15otel_arrow_rust6arrays30get_timestamp_nanosecond_array0B5_
FN:130,_RNCNvNtCs2Zzx8WPYKXd_15otel_arrow_rust6arrays34get_timestamp_nanosecond_array_opt0B5_
FN:57,_RNCNvXs_NtCs2Zzx8WPYKXd_15otel_arrow_rust6arraysINtNtCs8sCtDi7t2F4_4core6option6OptionINtB6_22MaybeDictArrayAccessorINtNtNtCs5YmLTPZiaZu_11arrow_array5array10byte_array16GenericByteArrayINtNtB1X_5types17GenericStringTypelEEEENtB6_21NullableArrayAccessor8value_at0B8_
FN:57,_RNCNvXs_NtCs2Zzx8WPYKXd_15otel_arrow_rust6arraysINtNtCs8sCtDi7t2F4_4core6option6OptionINtB6_22MaybeDictArrayAccessorINtNtNtCs5YmLTPZiaZu_11arrow_array5array15primitive_array14PrimitiveArrayNtNtB1X_5types9Int32TypeEEENtB6_21NullableArrayAccessor8value_at0B8_
FN:57,_RNCNvXs_NtCs2Zzx8WPYKXd_15otel_arrow_rust6arraysINtNtCs8sCtDi7t2F4_4core6option6OptionINtB6_22MaybeDictArrayAccessorINtNtNtCs5YmLTPZiaZu_11arrow_array5array15primitive_array14PrimitiveArrayNtNtB1X_5types9Int64TypeEEENtB6_21NullableArrayAccessor8value_at0B8_
FN:57,_RNCNvXs_NtCs2Zzx8WPYKXd_15otel_arrow_rust6arraysINtNtCs8sCtDi7t2F4_4core6option6OptionNtB6_17ByteArrayAccessorENtB6_21NullableArrayAccessor8value_at0B8_
FN:57,_RNCNvXs_NtCs2Zzx8WPYKXd_15otel_arrow_rust6arraysINtNtCs8sCtDi7t2F4_4core6option6OptionNtNtNtB8_4otlp4logs13LogBodyArraysENtB6_21NullableArrayAccessor8value_at0B8_
FN:57,_RNCNvXs_NtCs2Zzx8WPYKXd_15otel_arrow_rust6arraysINtNtCs8sCtDi7t2F4_4core6option6OptionRINtNtNtCs5YmLTPZiaZu_11arrow_array5array15primitive_array14PrimitiveArrayNtNtB1u_5types10UInt16TypeEENtB6_21NullableArrayAccessor8value_at0B8_
FN:57,_RNCNvXs_NtCs2Zzx8WPYKXd_15otel_arrow_rust6arraysINtNtCs8sCtDi7t2F4_4core6option6OptionRINtNtNtCs5YmLTPZiaZu_11arrow_array5array15primitive_array14PrimitiveArrayNtNtB1u_5types10UInt32TypeEENtB6_21NullableArrayAccessor8value_at0B8_
FN:57,_RNCNvXs_NtCs2Zzx8WPYKXd_15otel_arrow_rust6arraysINtNtCs8sCtDi7t2F4_4core6option6OptionRINtNtNtCs5YmLTPZiaZu_11arrow_array5array15primitive_array14PrimitiveArrayNtNtB1u_5types11Float64TypeEENtB6_21NullableArrayAccessor8value_at0B8_
FN:57,_RNCNvXs_NtCs2Zzx8WPYKXd_15otel_arrow_rust6arraysINtNtCs8sCtDi7t2F4_4core6option6OptionRINtNtNtCs5YmLTPZiaZu_11arrow_array5array15primitive_array14PrimitiveArrayNtNtB1u_5types23TimestampNanosecondTypeEENtB6_21NullableArrayAccessor8value_at0B8_
FN:57,_RNCNvXs_NtCs2Zzx8WPYKXd_15otel_arrow_rust6arraysINtNtCs8sCtDi7t2F4_4core6option6OptionRINtNtNtCs5YmLTPZiaZu_11arrow_array5array15primitive_array14PrimitiveArrayNtNtB1u_5types9Int64TypeEENtB6_21NullableArrayAccessor8value_at0B8_
FN:57,_RNCNvXs_NtCs2Zzx8WPYKXd_15otel_arrow_rust6arraysINtNtCs8sCtDi7t2F4_4core6option6OptionRNtNtNtCs5YmLTPZiaZu_11arrow_array5array13boolean_array12BooleanArrayENtB6_21NullableArrayAccessor8value_at0B8_
FN:356,_RNvMsc_NtCs2Zzx8WPYKXd_15otel_arrow_rust6arraysINtB5_22MaybeDictArrayAccessorINtNtNtCs5YmLTPZiaZu_11arrow_array5array10byte_array16GenericByteArrayINtNtB1k_5types17GenericBinaryTypelEEE21try_new_with_datatypeB7_
FN:356,_RNvMsc_NtCs2Zzx8WPYKXd_15otel_arrow_rust6arraysINtB5_22MaybeDictArrayAccessorINtNtNtCs5YmLTPZiaZu_11arrow_array5array10byte_array16GenericByteArrayINtNtB1k_5types17GenericStringTypelEEE21try_new_with_datatypeB7_
FN:356,_RNvMsc_NtCs2Zzx8WPYKXd_15otel_arrow_rust6arraysINtB5_22MaybeDictArrayAccessorINtNtNtCs5YmLTPZiaZu_11arrow_array5array15primitive_array14PrimitiveArrayNtNtB1k_5types10UInt16TypeEE21try_new_with_datatypeB7_
FN:356,_RNvMsc_NtCs2Zzx8WPYKXd_15otel_arrow_rust6arraysINtB5_22MaybeDictArrayAccessorINtNtNtCs5YmLTPZiaZu_11arrow_array5array15primitive_array14PrimitiveArrayNtNtB1k_5types10UInt32TypeEE21try_new_with_datatypeB7_
FN:356,_RNvMsc_NtCs2Zzx8WPYKXd_15otel_arrow_rust6arraysINtB5_22MaybeDictArrayAccessorINtNtNtCs5YmLTPZiaZu_11arrow_array5array15primitive_array14PrimitiveArrayNtNtB1k_5types9Int32TypeEE21try_new_with_datatypeB7_
FN:356,_RNvMsc_NtCs2Zzx8WPYKXd_15otel_arrow_rust6arraysINtB5_22MaybeDictArrayAccessorINtNtNtCs5YmLTPZiaZu_11arrow_array5array15primitive_array14PrimitiveArrayNtNtB1k_5types9Int64TypeEE21try_new_with_datatypeB7_
FN:356,_RNvMsc_NtCs2Zzx8WPYKXd_15otel_arrow_rust6arraysINtB5_22MaybeDictArrayAccessorNtNtNtCs5YmLTPZiaZu_11arrow_array5array23fixed_size_binary_array20FixedSizeBinaryArrayE21try_new_with_datatypeB7_
FN:415,_RNvMsd_NtCs2Zzx8WPYKXd_15otel_arrow_rust6arraysINtB5_22MaybeDictArrayAccessorINtNtNtCs5YmLTPZiaZu_11arrow_array5array15primitive_array14PrimitiveArrayNtNtB1k_5types10UInt16TypeEE7try_newB7_
FN:415,_RNvMsd_NtCs2Zzx8WPYKXd_15otel_arrow_rust6arraysINtB5_22MaybeDictArrayAccessorINtNtNtCs5YmLTPZiaZu_11arrow_array5array15primitive_array14PrimitiveArrayNtNtB1k_5types10UInt32TypeEE7try_newB7_
FN:415,_RNvMsd_NtCs2Zzx8WPYKXd_15otel_arrow_rust6arraysINtB5_22MaybeDictArrayAccessorINtNtNtCs5YmLTPZiaZu_11arrow_array5array15primitive_array14PrimitiveArrayNtNtB1k_5types9Int32TypeEE7try_newB7_
FN:415,_RNvMsd_NtCs2Zzx8WPYKXd_15otel_arrow_rust6arraysINtB5_22MaybeDictArrayAccessorINtNtNtCs5YmLTPZiaZu_11arrow_array5array15primitive_array14PrimitiveArrayNtNtB1k_5types9Int64TypeEE7try_newB7_
FN:469,_RNvMsh_NtCs2Zzx8WPYKXd_15otel_arrow_rust6arraysINtB5_23DictionaryArrayAccessorNtNtCs5YmLTPZiaZu_11arrow_array5types10UInt16TypeINtNtNtB1i_5array10byte_array16GenericByteArrayINtB1g_17GenericBinaryTypelEEE3newB7_
FN:481,_RNvMsh_NtCs2Zzx8WPYKXd_15otel_arrow_rust6arraysINtB5_23DictionaryArrayAccessorNtNtCs5YmLTPZiaZu_11arrow_array5types10UInt16TypeINtNtNtB1i_5array10byte_array16GenericByteArrayINtB1g_17GenericBinaryTypelEEE8value_atB7_
FN:469,_RNvMsh_NtCs2Zzx8WPYKXd_15otel_arrow_rust6arraysINtB5_23DictionaryArrayAccessorNtNtCs5YmLTPZiaZu_11arrow_array5types10UInt16TypeINtNtNtB1i_5array10byte_array16GenericByteArrayINtB1g_17GenericStringTypelEEE3newB7_
FN:481,_RNvMsh_NtCs2Zzx8WPYKXd_15otel_arrow_rust6arraysINtB5_23DictionaryArrayAccessorNtNtCs5YmLTPZiaZu_11arrow_array5types10UInt16TypeINtNtNtB1i_5array10byte_array16GenericByteArrayINtB1g_17GenericStringTypelEEE8value_atB7_
FN:469,_RNvMsh_NtCs2Zzx8WPYKXd_15otel_arrow_rust6arraysINtB5_23DictionaryArrayAccessorNtNtCs5YmLTPZiaZu_11arrow_array5types10UInt16TypeINtNtNtB1i_5array15primitive_array14PrimitiveArrayB1e_EE3newB7_
FN:481,_RNvMsh_NtCs2Zzx8WPYKXd_15otel_arrow_rust6arraysINtB5_23DictionaryArrayAccessorNtNtCs5YmLTPZiaZu_11arrow_array5types10UInt16TypeINtNtNtB1i_5array15primitive_array14PrimitiveArrayB1e_EE8value_atB7_
FN:469,_RNvMsh_NtCs2Zzx8WPYKXd_15otel_arrow_rust6arraysINtB5_23DictionaryArrayAccessorNtNtCs5YmLTPZiaZu_11arrow_array5types10UInt16TypeINtNtNtB1i_5array15primitive_array14PrimitiveArrayNtB1g_10UInt32TypeEE3newB7_
FN:481,_RNvMsh_NtCs2Zzx8WPYKXd_15otel_arrow_rust6arraysINtB5_23DictionaryArrayAccessorNtNtCs5YmLTPZiaZu_11arrow_array5types10UInt16TypeINtNtNtB1i_5array15primitive_array14PrimitiveArrayNtB1g_10UInt32TypeEE8value_atB7_
FN:469,_RNvMsh_NtCs2Zzx8WPYKXd_15otel_arrow_rust6arraysINtB5_23DictionaryArrayAccessorNtNtCs5YmLTPZiaZu_11arrow_array5types10UInt16TypeINtNtNtB1i_5array15primitive_array14PrimitiveArrayNtB1g_9Int32TypeEE3newB7_
FN:481,_RNvMsh_NtCs2Zzx8WPYKXd_15otel_arrow_rust6arraysINtB5_23DictionaryArrayAccessorNtNtCs5YmLTPZiaZu_11arrow_array5types10UInt16TypeINtNtNtB1i_5array15primitive_array14PrimitiveArrayNtB1g_9Int32TypeEE8value_atB7_
FN:469,_RNvMsh_NtCs2Zzx8WPYKXd_15otel_arrow_rust6arraysINtB5_23DictionaryArrayAccessorNtNtCs5YmLTPZiaZu_11arrow_array5types10UInt16TypeINtNtNtB1i_5array15primitive_array14PrimitiveArrayNtB1g_9Int64TypeEE3newB7_
FN:481,_RNvMsh_NtCs2Zzx8WPYKXd_15otel_arrow_rust6arraysINtB5_23DictionaryArrayAccessorNtNtCs5YmLTPZiaZu_11arrow_array5types10UInt16TypeINtNtNtB1i_5array15primitive_array14PrimitiveArrayNtB1g_9Int64TypeEE8value_atB7_
FN:469,_RNvMsh_NtCs2Zzx8WPYKXd_15otel_arrow_rust6arraysINtB5_23DictionaryArrayAccessorNtNtCs5YmLTPZiaZu_11arrow_array5types10UInt16TypeNtNtNtB1i_5array23fixed_size_binary_array20FixedSizeBinaryArrayE3newB7_
FN:481,_RNvMsh_NtCs2Zzx8WPYKXd_15otel_arrow_rust6arraysINtB5_23DictionaryArrayAccessorNtNtCs5YmLTPZiaZu_11arrow_array5types10UInt16TypeNtNtNtB1i_5array23fixed_size_binary_array20FixedSizeBinaryArrayE8value_atB7_
FN:469,_RNvMsh_NtCs2Zzx8WPYKXd_15otel_arrow_rust6arraysINtB5_23DictionaryArrayAccessorNtNtCs5YmLTPZiaZu_11arrow_array5types9UInt8TypeINtNtNtB1i_5array10byte_array16GenericByteArrayINtB1g_17GenericBinaryTypelEEE3newB7_
FN:481,_RNvMsh_NtCs2Zzx8WPYKXd_15otel_arrow_rust6arraysINtB5_23DictionaryArrayAccessorNtNtCs5YmLTPZiaZu_11arrow_array5types9UInt8TypeINtNtNtB1i_5array10byte_array16GenericByteArrayINtB1g_17GenericBinaryTypelEEE8value_atB7_
FN:469,_RNvMsh_NtCs2Zzx8WPYKXd_15otel_arrow_rust6arraysINtB5_23DictionaryArrayAccessorNtNtCs5YmLTPZiaZu_11arrow_array5types9UInt8TypeINtNtNtB1i_5array10byte_array16GenericByteArrayINtB1g_17GenericStringTypelEEE3newB7_
FN:481,_RNvMsh_NtCs2Zzx8WPYKXd_15otel_arrow_rust6arraysINtB5_23DictionaryArrayAccessorNtNtCs5YmLTPZiaZu_11arrow_array5types9UInt8TypeINtNtNtB1i_5array10byte_array16GenericByteArrayINtB1g_17GenericStringTypelEEE8value_atB7_
FN:469,_RNvMsh_NtCs2Zzx8WPYKXd_15otel_arrow_rust6arraysINtB5_23DictionaryArrayAccessorNtNtCs5YmLTPZiaZu_11arrow_array5types9UInt8TypeINtNtNtB1i_5array15primitive_array14PrimitiveArrayNtB1g_10UInt16TypeEE3newB7_
FN:481,_RNvMsh_NtCs2Zzx8WPYKXd_15otel_arrow_rust6arraysINtB5_23DictionaryArrayAccessorNtNtCs5YmLTPZiaZu_11arrow_array5types9UInt8TypeINtNtNtB1i_5array15primitive_array14PrimitiveArrayNtB1g_10UInt16TypeEE8value_atB7_
FN:469,_RNvMsh_NtCs2Zzx8WPYKXd_15otel_arrow_rust6arraysINtB5_23DictionaryArrayAccessorNtNtCs5YmLTPZiaZu_11arrow_array5types9UInt8TypeINtNtNtB1i_5array15primitive_array14PrimitiveArrayNtB1g_10UInt32TypeEE3newB7_
FN:481,_RNvMsh_NtCs2Zzx8WPYKXd_15otel_arrow_rust6arraysINtB5_23DictionaryArrayAccessorNtNtCs5YmLTPZiaZu_11arrow_array5types9UInt8TypeINtNtNtB1i_5array15primitive_array14PrimitiveArrayNtB1g_10UInt32TypeEE8value_atB7_
FN:469,_RNvMsh_NtCs2Zzx8WPYKXd_15otel_arrow_rust6arraysINtB5_23DictionaryArrayAccessorNtNtCs5YmLTPZiaZu_11arrow_array5types9UInt8TypeINtNtNtB1i_5array15primitive_array14PrimitiveArrayNtB1g_9Int32TypeEE3newB7_
FN:481,_RNvMsh_NtCs2Zzx8WPYKXd_15otel_arrow_rust6arraysINtB5_23DictionaryArrayAccessorNtNtCs5YmLTPZiaZu_11arrow_array5types9UInt8TypeINtNtNtB1i_5array15primitive_array14PrimitiveArrayNtB1g_9Int32TypeEE8value_atB7_
FN:469,_RNvMsh_NtCs2Zzx8WPYKXd_15otel_arrow_rust6arraysINtB5_23DictionaryArrayAccessorNtNtCs5YmLTPZiaZu_11arrow_array5types9UInt8TypeINtNtNtB1i_5array15primitive_array14PrimitiveArrayNtB1g_9Int64TypeEE3newB7_
FN:481,_RNvMsh_NtCs2Zzx8WPYKXd_15otel_arrow_rust6arraysINtB5_23DictionaryArrayAccessorNtNtCs5YmLTPZiaZu_11arrow_array5types9UInt8TypeINtNtNtB1i_5array15primitive_array14PrimitiveArrayNtB1g_9Int64TypeEE8value_atB7_
FN:469,_RNvMsh_NtCs2Zzx8WPYKXd_15otel_arrow_rust6arraysINtB5_23DictionaryArrayAccessorNtNtCs5YmLTPZiaZu_11arrow_array5types9UInt8TypeNtNtNtB1i_5array23fixed_size_binary_array20FixedSizeBinaryArrayE3newB7_
FN:481,_RNvMsh_NtCs2Zzx8WPYKXd_15otel_arrow_rust6arraysINtB5_23DictionaryArrayAccessorNtNtCs5YmLTPZiaZu_11arrow_array5types9UInt8TypeNtNtNtB1i_5array23fixed_size_binary_array20FixedSizeBinaryArrayE8value_atB7_
FN:333,_RNvXsb_NtCs2Zzx8WPYKXd_15otel_arrow_rust6arraysINtB5_22MaybeDictArrayAccessorINtNtNtCs5YmLTPZiaZu_11arrow_array5array10byte_array16GenericByteArrayINtNtB1k_5types17GenericBinaryTypelEEENtB5_21NullableArrayAccessor8value_atB7_
FN:333,_RNvXsb_NtCs2Zzx8WPYKXd_15otel_arrow_rust6arraysINtB5_22MaybeDictArrayAccessorINtNtNtCs5YmLTPZiaZu_11arrow_array5array10byte_array16GenericByteArrayINtNtB1k_5types17GenericStringTypelEEENtB5_21NullableArrayAccessor8value_atB7_
FN:333,_RNvXsb_NtCs2Zzx8WPYKXd_15otel_arrow_rust6arraysINtB5_22MaybeDictArrayAccessorINtNtNtCs5YmLTPZiaZu_11arrow_array5array15primitive_array14PrimitiveArrayNtNtB1k_5types10UInt16TypeEENtB5_21NullableArrayAccessor8value_atB7_
FN:333,_RNvXsb_NtCs2Zzx8WPYKXd_15otel_arrow_rust6arraysINtB5_22MaybeDictArrayAccessorINtNtNtCs5YmLTPZiaZu_11arrow_array5array15primitive_array14PrimitiveArrayNtNtB1k_5types10UInt32TypeEENtB5_21NullableArrayAccessor8value_atB7_
FN:333,_RNvXsb_NtCs2Zzx8WPYKXd_15otel_arrow_rust6arraysINtB5_22MaybeDictArrayAccessorINtNtNtCs5YmLTPZiaZu_11arrow_array5array15primitive_array14PrimitiveArrayNtNtB1k_5types9Int32TypeEENtB5_21NullableArrayAccessor8value_atB7_
FN:333,_RNvXsb_NtCs2Zzx8WPYKXd_15otel_arrow_rust6arraysINtB5_22MaybeDictArrayAccessorINtNtNtCs5YmLTPZiaZu_11arrow_array5array15primitive_array14PrimitiveArrayNtNtB1k_5types9Int64TypeEENtB5_21NullableArrayAccessor8value_atB7_
FN:333,_RNvXsb_NtCs2Zzx8WPYKXd_15otel_arrow_rust6arraysINtB5_22MaybeDictArrayAccessorNtNtNtCs5YmLTPZiaZu_11arrow_array5array23fixed_size_binary_array20FixedSizeBinaryArrayENtB5_21NullableArrayAccessor8value_atB7_
FN:31,_RNvYINtNtCs2Zzx8WPYKXd_15otel_arrow_rust6arrays22MaybeDictArrayAccessorINtNtNtCs5YmLTPZiaZu_11arrow_array5array15primitive_array14PrimitiveArrayNtNtB1e_5types10UInt16TypeEENtB5_21NullableArrayAccessor19value_at_or_defaultB7_
FN:31,_RNvYINtNtCs2Zzx8WPYKXd_15otel_arrow_rust6arrays22MaybeDictArrayAccessorINtNtNtCs5YmLTPZiaZu_11arrow_array5array15primitive_array14PrimitiveArrayNtNtB1e_5types10UInt32TypeEENtB5_21NullableArrayAccessor19value_at_or_defaultB7_
FN:31,_RNvYNtNtCs2Zzx8WPYKXd_15otel_arrow_rust6arrays17ByteArrayAccessorNtB4_21NullableArrayAccessor19value_at_or_defaultB6_
FN:45,_RNvXNtCs2Zzx8WPYKXd_15otel_arrow_rust6arraysRINtNtNtCs5YmLTPZiaZu_11arrow_array5array15primitive_array14PrimitiveArrayNtNtBO_5types10UInt16TypeENtB2_21NullableArrayAccessor8value_atB4_
FN:45,_RNvXNtCs2Zzx8WPYKXd_15otel_arrow_rust6arraysRINtNtNtCs5YmLTPZiaZu_11arrow_array5array15primitive_array14PrimitiveArrayNtNtBO_5types10UInt32TypeENtB2_21NullableArrayAccessor8value_atB4_
FN:45,_RNvXNtCs2Zzx8WPYKXd_15otel_arrow_rust6arraysRINtNtNtCs5YmLTPZiaZu_11arrow_array5array15primitive_array14PrimitiveArrayNtNtBO_5types11Float64TypeENtB2_21NullableArrayAccessor8value_atB4_
FN:45,_RNvXNtCs2Zzx8WPYKXd_15otel_arrow_rust6arraysRINtNtNtCs5YmLTPZiaZu_11arrow_array5array15primitive_array14PrimitiveArrayNtNtBO_5types23TimestampNanosecondTypeENtB2_21NullableArrayAccessor8value_atB4_
FN:45,_RNvXNtCs2Zzx8WPYKXd_15otel_arrow_rust6arraysRINtNtNtCs5YmLTPZiaZu_11arrow_array5array15primitive_array14PrimitiveArrayNtNtBO_5types9Int32TypeENtB2_21NullableArrayAccessor8value_atB4_
FN:45,_RNvXNtCs2Zzx8WPYKXd_15otel_arrow_rust6arraysRINtNtNtCs5YmLTPZiaZu_11arrow_array5array15primitive_array14PrimitiveArrayNtNtBO_5types9Int64TypeENtB2_21NullableArrayAccessor8value_atB4_
FN:67,_RNvXs0_NtCs2Zzx8WPYKXd_15otel_arrow_rust6arraysINtNtNtCs5YmLTPZiaZu_11arrow_array5array15primitive_array14PrimitiveArrayNtNtBQ_5types10UInt16TypeENtB5_21NullableArrayAccessor8value_atB7_
FN:67,_RNvXs0_NtCs2Zzx8WPYKXd_15otel_arrow_rust6arraysINtNtNtCs5YmLTPZiaZu_11arrow_array5array15primitive_array14PrimitiveArrayNtNtBQ_5types10UInt32TypeENtB5_21NullableArrayAccessor8value_atB7_
FN:67,_RNvXs0_NtCs2Zzx8WPYKXd_15otel_arrow_rust6arraysINtNtNtCs5YmLTPZiaZu_11arrow_array5array15primitive_array14PrimitiveArrayNtNtBQ_5types10UInt64TypeENtB5_21NullableArrayAccessor8value_atB7_
FN:67,_RNvXs0_NtCs2Zzx8WPYKXd_15otel_arrow_rust6arraysINtNtNtCs5YmLTPZiaZu_11arrow_array5array15primitive_array14PrimitiveArrayNtNtBQ_5types11Float64TypeENtB5_21NullableArrayAccessor8value_atB7_
FN:67,_RNvXs0_NtCs2Zzx8WPYKXd_15otel_arrow_rust6arraysINtNtNtCs5YmLTPZiaZu_11arrow_array5array15primitive_array14PrimitiveArrayNtNtBQ_5types23TimestampNanosecondTypeENtB5_21NullableArrayAccessor8value_atB7_
FN:67,_RNvXs0_NtCs2Zzx8WPYKXd_15otel_arrow_rust6arraysINtNtNtCs5YmLTPZiaZu_11arrow_array5array15primitive_array14PrimitiveArrayNtNtBQ_5types9Int32TypeENtB5_21NullableArrayAccessor8value_atB7_
FN:67,_RNvXs0_NtCs2Zzx8WPYKXd_15otel_arrow_rust6arraysINtNtNtCs5YmLTPZiaZu_11arrow_array5array15primitive_array14PrimitiveArrayNtNtBQ_5types9Int64TypeENtB5_21NullableArrayAccessor8value_atB7_
FN:67,_RNvXs0_NtCs2Zzx8WPYKXd_15otel_arrow_rust6arraysINtNtNtCs5YmLTPZiaZu_11arrow_array5array15primitive_array14PrimitiveArrayNtNtBQ_5types9UInt8TypeENtB5_21NullableArrayAccessor8value_atB7_
FN:31,_RNvYINtNtNtCs5YmLTPZiaZu_11arrow_array5array15primitive_array14PrimitiveArrayNtNtB9_5types10UInt16TypeENtNtCs2Zzx8WPYKXd_15otel_arrow_rust6arrays21NullableArrayAccessor19value_at_or_defaultB1H_
FN:31,_RNvYINtNtNtCs5YmLTPZiaZu_11arrow_array5array15primitive_array14PrimitiveArrayNtNtB9_5types10UInt32TypeENtNtCs2Zzx8WPYKXd_15otel_arrow_rust6arrays21NullableArrayAccessor19value_at_or_defaultB1H_
FN:31,_RNvYINtNtNtCs5YmLTPZiaZu_11arrow_array5array15primitive_array14PrimitiveArrayNtNtB9_5types10UInt64TypeENtNtCs2Zzx8WPYKXd_15otel_arrow_rust6arrays21NullableArrayAccessor19value_at_or_defaultB1H_
FN:31,_RNvYINtNtNtCs5YmLTPZiaZu_11arrow_array5array15primitive_array14PrimitiveArrayNtNtB9_5types11Float64TypeENtNtCs2Zzx8WPYKXd_15otel_arrow_rust6arrays21NullableArrayAccessor19value_at_or_defaultB1I_
FN:31,_RNvYINtNtNtCs5YmLTPZiaZu_11arrow_array5array15primitive_array14PrimitiveArrayNtNtB9_5types23TimestampNanosecondTypeENtNtCs2Zzx8WPYKXd_15otel_arrow_rust6arrays21NullableArrayAccessor19value_at_or_defaultB1U_
FN:31,_RNvYINtNtNtCs5YmLTPZiaZu_11arrow_array5array15primitive_array14PrimitiveArrayNtNtB9_5types9Int32TypeENtNtCs2Zzx8WPYKXd_15otel_arrow_rust6arrays21NullableArrayAccessor19value_at_or_defaultB1F_
FN:31,_RNvYINtNtNtCs5YmLTPZiaZu_11arrow_array5array15primitive_array14PrimitiveArrayNtNtB9_5types9UInt8TypeENtNtCs2Zzx8WPYKXd_15otel_arrow_rust6arrays21NullableArrayAccessor19value_at_or_defaultB1F_
FN:580,_RNvNtNtCs2Zzx8WPYKXd_15otel_arrow_rust6arrays5testss_24test_dictionary_accessor
FN:56,_RNvXs_NtCs2Zzx8WPYKXd_15otel_arrow_rust6arraysINtNtCs8sCtDi7t2F4_4core6option6OptionINtB4_22MaybeDictArrayAccessorINtNtNtCs5YmLTPZiaZu_11arrow_array5array10byte_array16GenericByteArrayINtNtB1V_5types17GenericStringTypelEEEENtB4_21NullableArrayAccessor8value_atB6_
FN:56,_RNvXs_NtCs2Zzx8WPYKXd_15otel_arrow_rust6arraysINtNtCs8sCtDi7t2F4_4core6option6OptionINtB4_22MaybeDictArrayAccessorINtNtNtCs5YmLTPZiaZu_11arrow_array5array15primitive_array14PrimitiveArrayNtNtB1V_5types9Int32TypeEEENtB4_21NullableArrayAccessor8value_atB6_
FN:56,_RNvXs_NtCs2Zzx8WPYKXd_15otel_arrow_rust6arraysINtNtCs8sCtDi7t2F4_4core6option6OptionINtB4_22MaybeDictArrayAccessorINtNtNtCs5YmLTPZiaZu_11arrow_array5array15primitive_array14PrimitiveArrayNtNtB1V_5types9Int64TypeEEENtB4_21NullableArrayAccessor8value_atB6_
FN:56,_RNvXs_NtCs2Zzx8WPYKXd_15otel_arrow_rust6arraysINtNtCs8sCtDi7t2F4_4core6option6OptionNtB4_17ByteArrayAccessorENtB4_21NullableArrayAccessor8value_atB6_
FN:56,_RNvXs_NtCs2Zzx8WPYKXd_15otel_arrow_rust6arraysINtNtCs8sCtDi7t2F4_4core6option6OptionNtNtNtB6_4otlp4logs13LogBodyArraysENtB4_21NullableArrayAccessor8value_atB6_
FN:56,_RNvXs_NtCs2Zzx8WPYKXd_15otel_arrow_rust6arraysINtNtCs8sCtDi7t2F4_4core6option6OptionRINtNtNtCs5YmLTPZiaZu_11arrow_array5array15primitive_array14PrimitiveArrayNtNtB1s_5types10UInt16TypeEENtB4_21NullableArrayAccessor8value_atB6_
FN:56,_RNvXs_NtCs2Zzx8WPYKXd_15otel_arrow_rust6arraysINtNtCs8sCtDi7t2F4_4core6option6OptionRINtNtNtCs5YmLTPZiaZu_11arrow_array5array15primitive_array14PrimitiveArrayNtNtB1s_5types10UInt32TypeEENtB4_21NullableArrayAccessor8value_atB6_
FN:56,_RNvXs_NtCs2Zzx8WPYKXd_15otel_arrow_rust6arraysINtNtCs8sCtDi7t2F4_4core6option6OptionRINtNtNtCs5YmLTPZiaZu_11arrow_array5array15primitive_array14PrimitiveArrayNtNtB1s_5types11Float64TypeEENtB4_21NullableArrayAccessor8value_atB6_
FN:56,_RNvXs_NtCs2Zzx8WPYKXd_15otel_arrow_rust6arraysINtNtCs8sCtDi7t2F4_4core6option6OptionRINtNtNtCs5YmLTPZiaZu_11arrow_array5array15primitive_array14PrimitiveArrayNtNtB1s_5types23TimestampNanosecondTypeEENtB4_21NullableArrayAccessor8value_atB6_
FN:56,_RNvXs_NtCs2Zzx8WPYKXd_15otel_arrow_rust6arraysINtNtCs8sCtDi7t2F4_4core6option6OptionRINtNtNtCs5YmLTPZiaZu_11arrow_array5array15primitive_array14PrimitiveArrayNtNtB1s_5types9Int64TypeEENtB4_21NullableArrayAccessor8value_atB6_
FN:56,_RNvXs_NtCs2Zzx8WPYKXd_15otel_arrow_rust6arraysINtNtCs8sCtDi7t2F4_4core6option6OptionRNtNtNtCs5YmLTPZiaZu_11arrow_array5array13boolean_array12BooleanArrayENtB4_21NullableArrayAccessor8value_atB6_
FN:31,_RNvYINtNtCs8sCtDi7t2F4_4core6option6OptionINtNtCs2Zzx8WPYKXd_15otel_arrow_rust6arrays22MaybeDictArrayAccessorINtNtNtCs5YmLTPZiaZu_11arrow_array5array10byte_array16GenericByteArrayINtNtB1Q_5types17GenericStringTypelEEEENtBH_21NullableArrayAccessor19value_at_or_defaultBJ_
FN:31,_RNvYINtNtCs8sCtDi7t2F4_4core6option6OptionINtNtCs2Zzx8WPYKXd_15otel_arrow_rust6arrays22MaybeDictArrayAccessorINtNtNtCs5YmLTPZiaZu_11arrow_array5array15primitive_array14PrimitiveArrayNtNtB1Q_5types9Int32TypeEEENtBH_21NullableArrayAccessor19value_at_or_defaultBJ_
FN:31,_RNvYINtNtCs8sCtDi7t2F4_4core6option6OptionINtNtCs2Zzx8WPYKXd_15otel_arrow_rust6arrays22MaybeDictArrayAccessorINtNtNtCs5YmLTPZiaZu_11arrow_array5array15primitive_array14PrimitiveArrayNtNtB1Q_5types9Int64TypeEEENtBH_21NullableArrayAccessor19value_at_or_defaultBJ_
FN:31,_RNvYINtNtCs8sCtDi7t2F4_4core6option6OptionNtNtCs2Zzx8WPYKXd_15otel_arrow_rust6arrays17ByteArrayAccessorENtBG_21NullableArrayAccessor19value_at_or_defaultBI_
FN:31,_RNvYINtNtCs8sCtDi7t2F4_4core6option6OptionRINtNtNtCs5YmLTPZiaZu_11arrow_array5array15primitive_array14PrimitiveArrayNtNtBM_5types10UInt32TypeEENtNtCs2Zzx8WPYKXd_15otel_arrow_rust6arrays21NullableArrayAccessor19value_at_or_defaultB2l_
FN:31,_RNvYINtNtCs8sCtDi7t2F4_4core6option6OptionRINtNtNtCs5YmLTPZiaZu_11arrow_array5array15primitive_array14PrimitiveArrayNtNtBM_5types11Float64TypeEENtNtCs2Zzx8WPYKXd_15otel_arrow_rust6arrays21NullableArrayAccessor19value_at_or_defaultB2m_
FN:31,_RNvYINtNtCs8sCtDi7t2F4_4core6option6OptionRINtNtNtCs5YmLTPZiaZu_11arrow_array5array15primitive_array14PrimitiveArrayNtNtBM_5types23TimestampNanosecondTypeEENtNtCs2Zzx8WPYKXd_15otel_arrow_rust6arrays21NullableArrayAccessor19value_at_or_defaultB2y_
FN:31,_RNvYINtNtCs8sCtDi7t2F4_4core6option6OptionRINtNtNtCs5YmLTPZiaZu_11arrow_array5array15primitive_array14PrimitiveArrayNtNtBM_5types9Int64TypeEENtNtCs2Zzx8WPYKXd_15otel_arrow_rust6arrays21NullableArrayAccessor19value_at_or_defaultB2j_
FN:31,_RNvYINtNtCs8sCtDi7t2F4_4core6option6OptionRNtNtNtCs5YmLTPZiaZu_11arrow_array5array13boolean_array12BooleanArrayENtNtCs2Zzx8WPYKXd_15otel_arrow_rust6arrays21NullableArrayAccessor19value_at_or_defaultB1Q_
FN:45,_RNvXNtCs2Zzx8WPYKXd_15otel_arrow_rust6arraysRNtNtNtCs5YmLTPZiaZu_11arrow_array5array13boolean_array12BooleanArrayNtB2_21NullableArrayAccessor8value_atB4_
FN:103,_RNvXs3_NtCs2Zzx8WPYKXd_15otel_arrow_rust6arraysNtNtNtCs5YmLTPZiaZu_11arrow_array5array23fixed_size_binary_array20FixedSizeBinaryArrayNtB5_21NullableArrayAccessor8value_at
FN:79,_RNvXs1_NtCs2Zzx8WPYKXd_15otel_arrow_rust6arraysNtNtNtCs5YmLTPZiaZu_11arrow_array5array13boolean_array12BooleanArrayNtB5_21NullableArrayAccessor8value_at
FN:45,_RNvXNtCs2Zzx8WPYKXd_15otel_arrow_rust6arraysRNtNtNtCs5YmLTPZiaZu_11arrow_array5array23fixed_size_binary_array20FixedSizeBinaryArrayNtB2_21NullableArrayAccessor8value_atB4_
FNDA:0,_RNvXNtCs2Zzx8WPYKXd_15otel_arrow_rust6arraysRINtNtNtCs5YmLTPZiaZu_11arrow_array5array10byte_array16GenericByteArrayINtNtBO_5types17GenericBinaryTypelEENtB2_21NullableArrayAccessor8value_atB4_
FNDA:0,_RNvXNtCs2Zzx8WPYKXd_15otel_arrow_rust6arraysRINtNtNtCs5YmLTPZiaZu_11arrow_array5array10byte_array16GenericByteArrayINtNtBO_5types17GenericStringTypelEENtB2_21NullableArrayAccessor8value_atB4_
FNDA:0,_RNCNCNvNtCs2Zzx8WPYKXd_15otel_arrow_rust6arrays16get_i8_array_opt00B7_
FNDA:0,_RNCNCNvNtCs2Zzx8WPYKXd_15otel_arrow_rust6arrays16get_u8_array_opt00B7_
FNDA:0,_RNCNCNvNtCs2Zzx8WPYKXd_15otel_arrow_rust6arrays17get_f32_array_opt00B7_
FNDA:0,_RNCNCNvNtCs2Zzx8WPYKXd_15otel_arrow_rust6arrays17get_i16_array_opt00B7_
FNDA:0,_RNCNCNvNtCs2Zzx8WPYKXd_15otel_arrow_rust6arrays17get_i32_array_opt00B7_
FNDA:0,_RNCNCNvNtCs2Zzx8WPYKXd_15otel_arrow_rust6arrays17get_u16_array_opt00B7_
FNDA:0,_RNCNCNvNtCs2Zzx8WPYKXd_15otel_arrow_rust6arrays17get_u64_array_opt00B7_
FNDA:0,_RNCNCNvNtCs2Zzx8WPYKXd_15otel_arrow_rust6arrays20get_binary_array_opt00B7_
FNDA:0,_RNCNCNvNtCs2Zzx8WPYKXd_15otel_arrow_rust6arrays20get_string_array_opt00B7_
FNDA:0,_RNCNvNtCs2Zzx8WPYKXd_15otel_arrow_rust6arrays12get_i8_array0B5_
FNDA:0,_RNCNvNtCs2Zzx8WPYKXd_15otel_arrow_rust6arrays13get_f32_array0B5_
FNDA:0,_RNCNvNtCs2Zzx8WPYKXd_15otel_arrow_rust6arrays13get_i16_array0B5_
FNDA:0,_RNCNvNtCs2Zzx8WPYKXd_15otel_arrow_rust6arrays13get_i64_array0B5_
FNDA:0,_RNCNvNtCs2Zzx8WPYKXd_15otel_arrow_rust6arrays14get_bool_array0B5_
FNDA:0,_RNCNvNtCs2Zzx8WPYKXd_15otel_arrow_rust6arrays16get_binary_array0B5_
FNDA:0,_RNCNvNtCs2Zzx8WPYKXd_15otel_arrow_rust6arrays16get_i8_array_opt0B5_
FNDA:0,_RNCNvNtCs2Zzx8WPYKXd_15otel_arrow_rust6arrays16get_string_array0B5_
FNDA:0,_RNCNvNtCs2Zzx8WPYKXd_15otel_arrow_rust6arrays16get_u8_array_opt0B5_
FNDA:0,_RNCNvNtCs2Zzx8WPYKXd_15otel_arrow_rust6arrays17get_f32_array_opt0B5_
FNDA:0,_RNCNvNtCs2Zzx8WPYKXd_15otel_arrow_rust6arrays17get_i16_array_opt0B5_
FNDA:0,_RNCNvNtCs2Zzx8WPYKXd_15otel_arrow_rust6arrays17get_i32_array_opt0B5_
FNDA:0,_RNCNvNtCs2Zzx8WPYKXd_15otel_arrow_rust6arrays17get_u16_array_opt0B5_
FNDA:0,_RNCNvNtCs2Zzx8WPYKXd_15otel_arrow_rust6arrays17get_u64_array_opt0B5_
FNDA:0,_RNCNvNtCs2Zzx8WPYKXd_15otel_arrow_rust6arrays20get_binary_array_opt0B5_
FNDA:0,_RNCNvNtCs2Zzx8WPYKXd_15otel_arrow_rust6arrays20get_string_array_opt0B5_
FNDA:0,_RNvMsd_NtCs2Zzx8WPYKXd_15otel_arrow_rust6arraysINtB5_22MaybeDictArrayAccessorINtNtNtCs5YmLTPZiaZu_11arrow_array5array15primitive_array14PrimitiveArraypEE18try_new_for_columnB7_
FNDA:0,_RNvNtCs2Zzx8WPYKXd_15otel_arrow_rust6arrays12get_i8_array
FNDA:0,_RNvNtCs2Zzx8WPYKXd_15otel_arrow_rust6arrays13get_f32_array
FNDA:0,_RNvNtCs2Zzx8WPYKXd_15otel_arrow_rust6arrays13get_i16_array
FNDA:0,_RNvNtCs2Zzx8WPYKXd_15otel_arrow_rust6arrays13get_i64_array
FNDA:0,_RNvNtCs2Zzx8WPYKXd_15otel_arrow_rust6arrays14get_bool_array
FNDA:0,_RNvNtCs2Zzx8WPYKXd_15otel_arrow_rust6arrays16get_binary_array
FNDA:0,_RNvNtCs2Zzx8WPYKXd_15otel_arrow_rust6arrays16get_i8_array_opt
FNDA:0,_RNvNtCs2Zzx8WPYKXd_15otel_arrow_rust6arrays16get_string_array
FNDA:0,_RNvNtCs2Zzx8WPYKXd_15otel_arrow_rust6arrays16get_u8_array_opt
FNDA:0,_RNvNtCs2Zzx8WPYKXd_15otel_arrow_rust6arrays17get_f32_array_opt
FNDA:0,_RNvNtCs2Zzx8WPYKXd_15otel_arrow_rust6arrays17get_i16_array_opt
FNDA:0,_RNvNtCs2Zzx8WPYKXd_15otel_arrow_rust6arrays17get_i32_array_opt
FNDA:0,_RNvNtCs2Zzx8WPYKXd_15otel_arrow_rust6arrays17get_u16_array_opt
FNDA:0,_RNvNtCs2Zzx8WPYKXd_15otel_arrow_rust6arrays17get_u64_array_opt
FNDA:0,_RNvNtCs2Zzx8WPYKXd_15otel_arrow_rust6arrays20get_binary_array_opt
FNDA:0,_RNvNtCs2Zzx8WPYKXd_15otel_arrow_rust6arrays20get_string_array_opt
FNDA:0,_RNvXININtCs2Zzx8WPYKXd_15otel_arrow_rust6arrayss6_0pERINtNtNtCs5YmLTPZiaZu_11arrow_array5array16dictionary_array15DictionaryArraypENtB5_26NullableInt64ArrayAccessor6i64_atB7_
FNDA:0,_RNvXININtCs2Zzx8WPYKXd_15otel_arrow_rust6arrayss8_0pERINtNtNtCs5YmLTPZiaZu_11arrow_array5array16dictionary_array15DictionaryArraypENtB5_24NullableF64ArrayAccessor6f64_atB7_
FNDA:0,_RNvXs5_NtCs2Zzx8WPYKXd_15otel_arrow_rust6arraysRINtNtNtCs5YmLTPZiaZu_11arrow_array5array15primitive_array14PrimitiveArrayNtNtBR_5types9Int64TypeENtB5_26NullableInt64ArrayAccessor6i64_at
FNDA:0,_RNvXs7_NtCs2Zzx8WPYKXd_15otel_arrow_rust6arraysRINtNtNtCs5YmLTPZiaZu_11arrow_array5array15primitive_array14PrimitiveArrayNtNtBR_5types11Float64TypeENtB5_24NullableF64ArrayAccessor6f64_at
FNDA:0,_RNvMs9_NtCs2Zzx8WPYKXd_15otel_arrow_rust6arraysNtB5_17ByteArrayAccessor18try_new_for_column
FNDA:6,_RNvMs9_NtCs2Zzx8WPYKXd_15otel_arrow_rust6arraysNtB5_17ByteArrayAccessor7try_new
FNDA:2,_RNvMse_NtCs2Zzx8WPYKXd_15otel_arrow_rust6arraysINtB5_22MaybeDictArrayAccessorINtNtNtCs5YmLTPZiaZu_11arrow_array5array10byte_array16GenericByteArrayINtNtB1k_5types17GenericBinaryTypelEEE7try_new
FNDA:4,_RNvMsf_NtCs2Zzx8WPYKXd_15otel_arrow_rust6arraysINtB5_22MaybeDictArrayAccessorNtNtNtCs5YmLTPZiaZu_11arrow_array5array23fixed_size_binary_array20FixedSizeBinaryArrayE7try_new
FNDA:3,_RNvMsg_NtCs2Zzx8WPYKXd_15otel_arrow_rust6arraysINtB5_22MaybeDictArrayAccessorINtNtNtCs5YmLTPZiaZu_11arrow_array5array10byte_array16GenericByteArrayINtNtB1k_5types17GenericStringTypelEEE18try_new_for_column
FNDA:13,_RNvMsg_NtCs2Zzx8WPYKXd_15otel_arrow_rust6arraysINtB5_22MaybeDictArrayAccessorINtNtNtCs5YmLTPZiaZu_11arrow_array5array10byte_array16GenericByteArrayINtNtB1k_5types17GenericStringTypelEEE7try_new
FNDA:2,_RNvMsi_NtCs2Zzx8WPYKXd_15otel_arrow_rust6arraysNtB5_20StructColumnAccessor14bool_column_op
FNDA:11,_RNvMsi_NtCs2Zzx8WPYKXd_15otel_arrow_rust6arraysNtB5_20StructColumnAccessor16string_column_op
FNDA:4,_RNvMsi_NtCs2Zzx8WPYKXd_15otel_arrow_rust6arraysNtB5_20StructColumnAccessor20byte_array_column_op
FNDA:8,_RNvMsi_NtCs2Zzx8WPYKXd_15otel_arrow_rust6arraysNtB5_20StructColumnAccessor3new
FNDA:4,_RNvNtCs2Zzx8WPYKXd_15otel_arrow_rust6arrays12get_u8_array
FNDA:0,_RNvNtCs2Zzx8WPYKXd_15otel_arrow_rust6arrays13get_f64_array
FNDA:0,_RNvNtCs2Zzx8WPYKXd_15otel_arrow_rust6arrays13get_i32_array
FNDA:4,_RNvNtCs2Zzx8WPYKXd_15otel_arrow_rust6arrays13get_u16_array
FNDA:1,_RNvNtCs2Zzx8WPYKXd_15otel_arrow_rust6arrays13get_u32_array
FNDA:0,_RNvNtCs2Zzx8WPYKXd_15otel_arrow_rust6arrays13get_u64_array
FNDA:4,_RNvNtCs2Zzx8WPYKXd_15otel_arrow_rust6arrays17get_f64_array_opt
FNDA:1,_RNvNtCs2Zzx8WPYKXd_15otel_arrow_rust6arrays17get_i64_array_opt
FNDA:5,_RNvNtCs2Zzx8WPYKXd_15otel_arrow_rust6arrays17get_u32_array_opt
FNDA:4,_RNvNtCs2Zzx8WPYKXd_15otel_arrow_rust6arrays18get_bool_array_opt
FNDA:19,_RNvNtCs2Zzx8WPYKXd_15otel_arrow_rust6arrays18get_required_array
FNDA:1,_RNvNtCs2Zzx8WPYKXd_15otel_arrow_rust6arrays30get_timestamp_nanosecond_array
FNDA:5,_RNvNtCs2Zzx8WPYKXd_15otel_arrow_rust6arrays34get_timestamp_nanosecond_array_opt
FNDA:10,_RNvXsa_NtCs2Zzx8WPYKXd_15otel_arrow_rust6arraysNtB5_17ByteArrayAccessorNtB5_21NullableArrayAccessor8value_at
FNDA:4,_RNvXs2_NtCs2Zzx8WPYKXd_15otel_arrow_rust6arraysINtNtNtCs5YmLTPZiaZu_11arrow_array5array10byte_array16GenericByteArrayINtNtBQ_5types17GenericBinaryTypelEENtB5_21NullableArrayAccessor8value_at
FNDA:21,_RNvXs4_NtCs2Zzx8WPYKXd_15otel_arrow_rust6arraysINtNtNtCs5YmLTPZiaZu_11arrow_array5array10byte_array16GenericByteArrayINtNtBQ_5types17GenericStringTypelEENtB5_21NullableArrayAccessor8value_at
FNDA:3,_RINvMsi_NtCs2Zzx8WPYKXd_15otel_arrow_rust6arraysNtB6_20StructColumnAccessor16primitive_columnNtNtCs5YmLTPZiaZu_11arrow_array5types10UInt16TypeEB8_
FNDA:2,_RINvMsi_NtCs2Zzx8WPYKXd_15otel_arrow_rust6arraysNtB6_20StructColumnAccessor16primitive_columnNtNtCs5YmLTPZiaZu_11arrow_array5types9UInt8TypeEB8_
FNDA:6,_RINvMsi_NtCs2Zzx8WPYKXd_15otel_arrow_rust6arraysNtB6_20StructColumnAccessor19primitive_column_opNtNtCs5YmLTPZiaZu_11arrow_array5types10UInt16TypeEB8_
FNDA:6,_RINvMsi_NtCs2Zzx8WPYKXd_15otel_arrow_rust6arraysNtB6_20StructColumnAccessor19primitive_column_opNtNtCs5YmLTPZiaZu_11arrow_array5types10UInt32TypeEB8_
FNDA:2,_RINvMsi_NtCs2Zzx8WPYKXd_15otel_arrow_rust6arraysNtB6_20StructColumnAccessor19primitive_column_opNtNtCs5YmLTPZiaZu_11arrow_array5types11Float64TypeEB8_
FNDA:2,_RINvMsi_NtCs2Zzx8WPYKXd_15otel_arrow_rust6arraysNtB6_20StructColumnAccessor19primitive_column_opNtNtCs5YmLTPZiaZu_11arrow_array5types9Int64TypeEB8_
FNDA:2,_RINvMsi_NtCs2Zzx8WPYKXd_15otel_arrow_rust6arraysNtB6_20StructColumnAccessor19primitive_column_opNtNtCs5YmLTPZiaZu_11arrow_array5types9UInt8TypeEB8_
FNDA:0,_RNCINvMsi_NtCs2Zzx8WPYKXd_15otel_arrow_rust6arraysNtB8_20StructColumnAccessor16primitive_columnNtNtCs5YmLTPZiaZu_11arrow_array5types10UInt16TypeE0Ba_
FNDA:0,_RNCINvMsi_NtCs2Zzx8WPYKXd_15otel_arrow_rust6arraysNtB8_20StructColumnAccessor16primitive_columnNtNtCs5YmLTPZiaZu_11arrow_array5types9UInt8TypeE0Ba_
FNDA:6,_RNCINvMsi_NtCs2Zzx8WPYKXd_15otel_arrow_rust6arraysNtB8_20StructColumnAccessor19primitive_column_opNtNtCs5YmLTPZiaZu_11arrow_array5types10UInt16TypeE0Ba_
FNDA:0,_RNCINvMsi_NtCs2Zzx8WPYKXd_15otel_arrow_rust6arraysNtB8_20StructColumnAccessor19primitive_column_opNtNtCs5YmLTPZiaZu_11arrow_array5types10UInt32TypeE0Ba_
FNDA:0,_RNCINvMsi_NtCs2Zzx8WPYKXd_15otel_arrow_rust6arraysNtB8_20StructColumnAccessor19primitive_column_opNtNtCs5YmLTPZiaZu_11arrow_array5types11Float64TypeE0Ba_
FNDA:0,_RNCINvMsi_NtCs2Zzx8WPYKXd_15otel_arrow_rust6arraysNtB8_20StructColumnAccessor19primitive_column_opNtNtCs5YmLTPZiaZu_11arrow_array5types9Int64TypeE0Ba_
FNDA:2,_RNCINvMsi_NtCs2Zzx8WPYKXd_15otel_arrow_rust6arraysNtB8_20StructColumnAccessor19primitive_column_opNtNtCs5YmLTPZiaZu_11arrow_array5types9UInt8TypeE0Ba_
FNDA:0,_RNCNCINvMsi_NtCs2Zzx8WPYKXd_15otel_arrow_rust6arraysNtBa_20StructColumnAccessor19primitive_column_opNtNtCs5YmLTPZiaZu_11arrow_array5types10UInt16TypeE00Bc_
FNDA:0,_RNCNCINvMsi_NtCs2Zzx8WPYKXd_15otel_arrow_rust6arraysNtBa_20StructColumnAccessor19primitive_column_opNtNtCs5YmLTPZiaZu_11arrow_array5types10UInt32TypeE00Bc_
FNDA:0,_RNCNCINvMsi_NtCs2Zzx8WPYKXd_15otel_arrow_rust6arraysNtBa_20StructColumnAccessor19primitive_column_opNtNtCs5YmLTPZiaZu_11arrow_array5types11Float64TypeE00Bc_
FNDA:0,_RNCNCINvMsi_NtCs2Zzx8WPYKXd_15otel_arrow_rust6arraysNtBa_20StructColumnAccessor19primitive_column_opNtNtCs5YmLTPZiaZu_11arrow_array5types9Int64TypeE00Bc_
FNDA:0,_RNCNCINvMsi_NtCs2Zzx8WPYKXd_15otel_arrow_rust6arraysNtBa_20StructColumnAccessor19primitive_column_opNtNtCs5YmLTPZiaZu_11arrow_array5types9UInt8TypeE00Bc_
FNDA:0,_RNCNCNvMsi_NtCs2Zzx8WPYKXd_15otel_arrow_rust6arraysNtB9_20StructColumnAccessor14bool_column_op00Bb_
FNDA:0,_RNCNCNvNtCs2Zzx8WPYKXd_15otel_arrow_rust6arrays17get_f64_array_opt00B7_
FNDA:0,_RNCNCNvNtCs2Zzx8WPYKXd_15otel_arrow_rust6arrays17get_i64_array_opt00B7_
FNDA:0,_RNCNCNvNtCs2Zzx8WPYKXd_15otel_arrow_rust6arrays17get_u32_array_opt00B7_
FNDA:0,_RNCNCNvNtCs2Zzx8WPYKXd_15otel_arrow_rust6arrays18get_bool_array_opt00B7_
FNDA:0,_RNCNCNvNtCs2Zzx8WPYKXd_15otel_arrow_rust6arrays34get_timestamp_nanosecond_array_opt00B7_
FNDA:0,_RNCNvMsh_NtCs2Zzx8WPYKXd_15otel_arrow_rust6arraysINtB7_23DictionaryArrayAccessorNtNtCs5YmLTPZiaZu_11arrow_array5types10UInt16TypeINtNtNtB1k_5array10byte_array16GenericByteArrayINtB1i_17GenericBinaryTypelEEE3new0B9_
FNDA:0,_RNCNvMsh_NtCs2Zzx8WPYKXd_15otel_arrow_rust6arraysINtB7_23DictionaryArrayAccessorNtNtCs5YmLTPZiaZu_11arrow_array5types10UInt16TypeINtNtNtB1k_5array10byte_array16GenericByteArrayINtB1i_17GenericStringTypelEEE3new0B9_
FNDA:0,_RNCNvMsh_NtCs2Zzx8WPYKXd_15otel_arrow_rust6arraysINtB7_23DictionaryArrayAccessorNtNtCs5YmLTPZiaZu_11arrow_array5types10UInt16TypeINtNtNtB1k_5array15primitive_array14PrimitiveArrayB1g_EE3new0B9_
FNDA:0,_RNCNvMsh_NtCs2Zzx8WPYKXd_15otel_arrow_rust6arraysINtB7_23DictionaryArrayAccessorNtNtCs5YmLTPZiaZu_11arrow_array5types10UInt16TypeINtNtNtB1k_5array15primitive_array14PrimitiveArrayNtB1i_10UInt32TypeEE3new0B9_
FNDA:0,_RNCNvMsh_NtCs2Zzx8WPYKXd_15otel_arrow_rust6arraysINtB7_23DictionaryArrayAccessorNtNtCs5YmLTPZiaZu_11arrow_array5types10UInt16TypeINtNtNtB1k_5array15primitive_array14PrimitiveArrayNtB1i_9Int32TypeEE3new0B9_
FNDA:0,_RNCNvMsh_NtCs2Zzx8WPYKXd_15otel_arrow_rust6arraysINtB7_23DictionaryArrayAccessorNtNtCs5YmLTPZiaZu_11arrow_array5types10UInt16TypeINtNtNtB1k_5array15primitive_array14PrimitiveArrayNtB1i_9Int64TypeEE3new0B9_
FNDA:0,_RNCNvMsh_NtCs2Zzx8WPYKXd_15otel_arrow_rust6arraysINtB7_23DictionaryArrayAccessorNtNtCs5YmLTPZiaZu_11arrow_array5types10UInt16TypeNtNtNtB1k_5array23fixed_size_binary_array20FixedSizeBinaryArrayE3new0B9_
FNDA:0,_RNCNvMsh_NtCs2Zzx8WPYKXd_15otel_arrow_rust6arraysINtB7_23DictionaryArrayAccessorNtNtCs5YmLTPZiaZu_11arrow_array5types9UInt8TypeINtNtNtB1k_5array10byte_array16GenericByteArrayINtB1i_17GenericBinaryTypelEEE3new0B9_
FNDA:0,_RNCNvMsh_NtCs2Zzx8WPYKXd_15otel_arrow_rust6arraysINtB7_23DictionaryArrayAccessorNtNtCs5YmLTPZiaZu_11arrow_array5types9UInt8TypeINtNtNtB1k_5array10byte_array16GenericByteArrayINtB1i_17GenericStringTypelEEE3new0B9_
FNDA:0,_RNCNvMsh_NtCs2Zzx8WPYKXd_15otel_arrow_rust6arraysINtB7_23DictionaryArrayAccessorNtNtCs5YmLTPZiaZu_11arrow_array5types9UInt8TypeINtNtNtB1k_5array15primitive_array14PrimitiveArrayNtB1i_10UInt16TypeEE3new0B9_
FNDA:0,_RNCNvMsh_NtCs2Zzx8WPYKXd_15otel_arrow_rust6arraysINtB7_23DictionaryArrayAccessorNtNtCs5YmLTPZiaZu_11arrow_array5types9UInt8TypeINtNtNtB1k_5array15primitive_array14PrimitiveArrayNtB1i_10UInt32TypeEE3new0B9_
FNDA:0,_RNCNvMsh_NtCs2Zzx8WPYKXd_15otel_arrow_rust6arraysINtB7_23DictionaryArrayAccessorNtNtCs5YmLTPZiaZu_11arrow_array5types9UInt8TypeINtNtNtB1k_5array15primitive_array14PrimitiveArrayNtB1i_9Int32TypeEE3new0B9_
FNDA:0,_RNCNvMsh_NtCs2Zzx8WPYKXd_15otel_arrow_rust6arraysINtB7_23DictionaryArrayAccessorNtNtCs5YmLTPZiaZu_11arrow_array5types9UInt8TypeINtNtNtB1k_5array15primitive_array14PrimitiveArrayNtB1i_9Int64TypeEE3new0B9_
FNDA:0,_RNCNvMsh_NtCs2Zzx8WPYKXd_15otel_arrow_rust6arraysINtB7_23DictionaryArrayAccessorNtNtCs5YmLTPZiaZu_11arrow_array5types9UInt8TypeNtNtNtB1k_5array23fixed_size_binary_array20FixedSizeBinaryArrayE3new0B9_
FNDA:0,_RNCNvMsi_NtCs2Zzx8WPYKXd_15otel_arrow_rust6arraysNtB7_20StructColumnAccessor14bool_column_op0B9_
FNDA:0,_RNCNvNtCs2Zzx8WPYKXd_15otel_arrow_rust6arrays12get_u8_array0B5_
FNDA:0,_RNCNvNtCs2Zzx8WPYKXd_15otel_arrow_rust6arrays13get_f64_array0B5_
FNDA:0,_RNCNvNtCs2Zzx8WPYKXd_15otel_arrow_rust6arrays13get_i32_array0B5_
FNDA:0,_RNCNvNtCs2Zzx8WPYKXd_15otel_arrow_rust6arrays13get_u16_array0B5_
FNDA:0,_RNCNvNtCs2Zzx8WPYKXd_15otel_arrow_rust6arrays13get_u32_array0B5_
FNDA:0,_RNCNvNtCs2Zzx8WPYKXd_15otel_arrow_rust6arrays13get_u64_array0B5_
FNDA:1,_RNCNvNtCs2Zzx8WPYKXd_15otel_arrow_rust6arrays17get_f64_array_opt0B5_
FNDA:0,_RNCNvNtCs2Zzx8WPYKXd_15otel_arrow_rust6arrays17get_i64_array_opt0B5_
FNDA:0,_RNCNvNtCs2Zzx8WPYKXd_15otel_arrow_rust6arrays17get_u32_array_opt0B5_
FNDA:0,_RNCNvNtCs2Zzx8WPYKXd_15otel_arrow_rust6arrays18get_bool_array_opt0B5_
FNDA:0,_RNCNvNtCs2Zzx8WPYKXd_15otel_arrow_rust6arrays30get_timestamp_nanosecond_array0B5_
FNDA:5,_RNCNvNtCs2Zzx8WPYKXd_15otel_arrow_rust6arrays34get_timestamp_nanosecond_array_opt0B5_
FNDA:12,_RNCNvXs_NtCs2Zzx8WPYKXd_15otel_arrow_rust6arraysINtNtCs8sCtDi7t2F4_4core6option6OptionINtB6_22MaybeDictArrayAccessorINtNtNtCs5YmLTPZiaZu_11arrow_array5array10byte_array16GenericByteArrayINtNtB1X_5types17GenericStringTypelEEEENtB6_21NullableArrayAccessor8value_at0B8_
FNDA:3,_RNCNvXs_NtCs2Zzx8WPYKXd_15otel_arrow_rust6arraysINtNtCs8sCtDi7t2F4_4core6option6OptionINtB6_22MaybeDictArrayAccessorINtNtNtCs5YmLTPZiaZu_11arrow_array5array15primitive_array14PrimitiveArrayNtNtB1X_5types9Int32TypeEEENtB6_21NullableArrayAccessor8value_at0B8_
FNDA:0,_RNCNvXs_NtCs2Zzx8WPYKXd_15otel_arrow_rust6arraysINtNtCs8sCtDi7t2F4_4core6option6OptionINtB6_22MaybeDictArrayAccessorINtNtNtCs5YmLTPZiaZu_11arrow_array5array15primitive_array14PrimitiveArrayNtNtB1X_5types9Int64TypeEEENtB6_21NullableArrayAccessor8value_at0B8_
FNDA:10,_RNCNvXs_NtCs2Zzx8WPYKXd_15otel_arrow_rust6arraysINtNtCs8sCtDi7t2F4_4core6option6OptionNtB6_17ByteArrayAccessorENtB6_21NullableArrayAccessor8value_at0B8_
FNDA:3,_RNCNvXs_NtCs2Zzx8WPYKXd_15otel_arrow_rust6arraysINtNtCs8sCtDi7t2F4_4core6option6OptionNtNtNtB8_4otlp4logs13LogBodyArraysENtB6_21NullableArrayAccessor8value_at0B8_
FNDA:4,_RNCNvXs_NtCs2Zzx8WPYKXd_15otel_arrow_rust6arraysINtNtCs8sCtDi7t2F4_4core6option6OptionRINtNtNtCs5YmLTPZiaZu_11arrow_array5array15primitive_array14PrimitiveArrayNtNtB1u_5types10UInt16TypeEENtB6_21NullableArrayAccessor8value_at0B8_
FNDA:0,_RNCNvXs_NtCs2Zzx8WPYKXd_15otel_arrow_rust6arraysINtNtCs8sCtDi7t2F4_4core6option6OptionRINtNtNtCs5YmLTPZiaZu_11arrow_array5array15primitive_array14PrimitiveArrayNtNtB1u_5types10UInt32TypeEENtB6_21NullableArrayAccessor8value_at0B8_
FNDA:1,_RNCNvXs_NtCs2Zzx8WPYKXd_15otel_arrow_rust6arraysINtNtCs8sCtDi7t2F4_4core6option6OptionRINtNtNtCs5YmLTPZiaZu_11arrow_array5array15primitive_array14PrimitiveArrayNtNtB1u_5types11Float64TypeEENtB6_21NullableArrayAccessor8value_at0B8_
FNDA:7,_RNCNvXs_NtCs2Zzx8WPYKXd_15otel_arrow_rust6arraysINtNtCs8sCtDi7t2F4_4core6option6OptionRINtNtNtCs5YmLTPZiaZu_11arrow_array5array15primitive_array14PrimitiveArrayNtNtB1u_5types23TimestampNanosecondTypeEENtB6_21NullableArrayAccessor8value_at0B8_
FNDA:0,_RNCNvXs_NtCs2Zzx8WPYKXd_15otel_arrow_rust6arraysINtNtCs8sCtDi7t2F4_4core6option6OptionRINtNtNtCs5YmLTPZiaZu_11arrow_array5array15primitive_array14PrimitiveArrayNtNtB1u_5types9Int64TypeEENtB6_21NullableArrayAccessor8value_at0B8_
FNDA:0,_RNCNvXs_NtCs2Zzx8WPYKXd_15otel_arrow_rust6arraysINtNtCs8sCtDi7t2F4_4core6option6OptionRNtNtNtCs5YmLTPZiaZu_11arrow_array5array13boolean_array12BooleanArrayENtB6_21NullableArrayAccessor8value_at0B8_
FNDA:2,_RNvMsc_NtCs2Zzx8WPYKXd_15otel_arrow_rust6arraysINtB5_22MaybeDictArrayAccessorINtNtNtCs5YmLTPZiaZu_11arrow_array5array10byte_array16GenericByteArrayINtNtB1k_5types17GenericBinaryTypelEEE21try_new_with_datatypeB7_
FNDA:13,_RNvMsc_NtCs2Zzx8WPYKXd_15otel_arrow_rust6arraysINtB5_22MaybeDictArrayAccessorINtNtNtCs5YmLTPZiaZu_11arrow_array5array10byte_array16GenericByteArrayINtNtB1k_5types17GenericStringTypelEEE21try_new_with_datatypeB7_
FNDA:5,_RNvMsc_NtCs2Zzx8WPYKXd_15otel_arrow_rust6arraysINtB5_22MaybeDictArrayAccessorINtNtNtCs5YmLTPZiaZu_11arrow_array5array15primitive_array14PrimitiveArrayNtNtB1k_5types10UInt16TypeEE21try_new_with_datatypeB7_
FNDA:1,_RNvMsc_NtCs2Zzx8WPYKXd_15otel_arrow_rust6arraysINtB5_22MaybeDictArrayAccessorINtNtNtCs5YmLTPZiaZu_11arrow_array5array15primitive_array14PrimitiveArrayNtNtB1k_5types10UInt32TypeEE21try_new_with_datatypeB7_
FNDA:2,_RNvMsc_NtCs2Zzx8WPYKXd_15otel_arrow_rust6arraysINtB5_22MaybeDictArrayAccessorINtNtNtCs5YmLTPZiaZu_11arrow_array5array15primitive_array14PrimitiveArrayNtNtB1k_5types9Int32TypeEE21try_new_with_datatypeB7_
FNDA:0,_RNvMsc_NtCs2Zzx8WPYKXd_15otel_arrow_rust6arraysINtB5_22MaybeDictArrayAccessorINtNtNtCs5YmLTPZiaZu_11arrow_array5array15primitive_array14PrimitiveArrayNtNtB1k_5types9Int64TypeEE21try_new_with_datatypeB7_
FNDA:4,_RNvMsc_NtCs2Zzx8WPYKXd_15otel_arrow_rust6arraysINtB5_22MaybeDictArrayAccessorNtNtNtCs5YmLTPZiaZu_11arrow_array5array23fixed_size_binary_array20FixedSizeBinaryArrayE21try_new_with_datatypeB7_
FNDA:5,_RNvMsd_NtCs2Zzx8WPYKXd_15otel_arrow_rust6arraysINtB5_22MaybeDictArrayAccessorINtNtNtCs5YmLTPZiaZu_11arrow_array5array15primitive_array14PrimitiveArrayNtNtB1k_5types10UInt16TypeEE7try_newB7_
FNDA:1,_RNvMsd_NtCs2Zzx8WPYKXd_15otel_arrow_rust6arraysINtB5_22MaybeDictArrayAccessorINtNtNtCs5YmLTPZiaZu_11arrow_array5array15primitive_array14PrimitiveArrayNtNtB1k_5types10UInt32TypeEE7try_newB7_
FNDA:2,_RNvMsd_NtCs2Zzx8WPYKXd_15otel_arrow_rust6arraysINtB5_22MaybeDictArrayAccessorINtNtNtCs5YmLTPZiaZu_11arrow_array5array15primitive_array14PrimitiveArrayNtNtB1k_5types9Int32TypeEE7try_newB7_
FNDA:0,_RNvMsd_NtCs2Zzx8WPYKXd_15otel_arrow_rust6arraysINtB5_22MaybeDictArrayAccessorINtNtNtCs5YmLTPZiaZu_11arrow_array5array15primitive_array14PrimitiveArrayNtNtB1k_5types9Int64TypeEE7try_newB7_
FNDA:2,_RNvMsh_NtCs2Zzx8WPYKXd_15otel_arrow_rust6arraysINtB5_23DictionaryArrayAccessorNtNtCs5YmLTPZiaZu_11arrow_array5types10UInt16TypeINtNtNtB1i_5array10byte_array16GenericByteArrayINtB1g_17GenericBinaryTypelEEE3newB7_
FNDA:4,_RNvMsh_NtCs2Zzx8WPYKXd_15otel_arrow_rust6arraysINtB5_23DictionaryArrayAccessorNtNtCs5YmLTPZiaZu_11arrow_array5types10UInt16TypeINtNtNtB1i_5array10byte_array16GenericByteArrayINtB1g_17GenericBinaryTypelEEE8value_atB7_
FNDA:5,_RNvMsh_NtCs2Zzx8WPYKXd_15otel_arrow_rust6arraysINtB5_23DictionaryArrayAccessorNtNtCs5YmLTPZiaZu_11arrow_array5types10UInt16TypeINtNtNtB1i_5array10byte_array16GenericByteArrayINtB1g_17GenericStringTypelEEE3newB7_
FNDA:9,_RNvMsh_NtCs2Zzx8WPYKXd_15otel_arrow_rust6arraysINtB5_23DictionaryArrayAccessorNtNtCs5YmLTPZiaZu_11arrow_array5types10UInt16TypeINtNtNtB1i_5array10byte_array16GenericByteArrayINtB1g_17GenericStringTypelEEE8value_atB7_
FNDA:0,_RNvMsh_NtCs2Zzx8WPYKXd_15otel_arrow_rust6arraysINtB5_23DictionaryArrayAccessorNtNtCs5YmLTPZiaZu_11arrow_array5types10UInt16TypeINtNtNtB1i_5array15primitive_array14PrimitiveArrayB1e_EE3newB7_
FNDA:0,_RNvMsh_NtCs2Zzx8WPYKXd_15otel_arrow_rust6arraysINtB5_23DictionaryArrayAccessorNtNtCs5YmLTPZiaZu_11arrow_array5types10UInt16TypeINtNtNtB1i_5array15primitive_array14PrimitiveArrayB1e_EE8value_atB7_
FNDA:0,_RNvMsh_NtCs2Zzx8WPYKXd_15otel_arrow_rust6arraysINtB5_23DictionaryArrayAccessorNtNtCs5YmLTPZiaZu_11arrow_array5types10UInt16TypeINtNtNtB1i_5array15primitive_array14PrimitiveArrayNtB1g_10UInt32TypeEE3newB7_
FNDA:0,_RNvMsh_NtCs2Zzx8WPYKXd_15otel_arrow_rust6arraysINtB5_23DictionaryArrayAccessorNtNtCs5YmLTPZiaZu_11arrow_array5types10UInt16TypeINtNtNtB1i_5array15primitive_array14PrimitiveArrayNtB1g_10UInt32TypeEE8value_atB7_
FNDA:0,_RNvMsh_NtCs2Zzx8WPYKXd_15otel_arrow_rust6arraysINtB5_23DictionaryArrayAccessorNtNtCs5YmLTPZiaZu_11arrow_array5types10UInt16TypeINtNtNtB1i_5array15primitive_array14PrimitiveArrayNtB1g_9Int32TypeEE3newB7_
FNDA:0,_RNvMsh_NtCs2Zzx8WPYKXd_15otel_arrow_rust6arraysINtB5_23DictionaryArrayAccessorNtNtCs5YmLTPZiaZu_11arrow_array5types10UInt16TypeINtNtNtB1i_5array15primitive_array14PrimitiveArrayNtB1g_9Int32TypeEE8value_atB7_
FNDA:0,_RNvMsh_NtCs2Zzx8WPYKXd_15otel_arrow_rust6arraysINtB5_23DictionaryArrayAccessorNtNtCs5YmLTPZiaZu_11arrow_array5types10UInt16TypeINtNtNtB1i_5array15primitive_array14PrimitiveArrayNtB1g_9Int64TypeEE3newB7_
FNDA:0,_RNvMsh_NtCs2Zzx8WPYKXd_15otel_arrow_rust6arraysINtB5_23DictionaryArrayAccessorNtNtCs5YmLTPZiaZu_11arrow_array5types10UInt16TypeINtNtNtB1i_5array15primitive_array14PrimitiveArrayNtB1g_9Int64TypeEE8value_atB7_
FNDA:0,_RNvMsh_NtCs2Zzx8WPYKXd_15otel_arrow_rust6arraysINtB5_23DictionaryArrayAccessorNtNtCs5YmLTPZiaZu_11arrow_array5types10UInt16TypeNtNtNtB1i_5array23fixed_size_binary_array20FixedSizeBinaryArrayE3newB7_
FNDA:0,_RNvMsh_NtCs2Zzx8WPYKXd_15otel_arrow_rust6arraysINtB5_23DictionaryArrayAccessorNtNtCs5YmLTPZiaZu_11arrow_array5types10UInt16TypeNtNtNtB1i_5array23fixed_size_binary_array20FixedSizeBinaryArrayE8value_atB7_
FNDA:0,_RNvMsh_NtCs2Zzx8WPYKXd_15otel_arrow_rust6arraysINtB5_23DictionaryArrayAccessorNtNtCs5YmLTPZiaZu_11arrow_array5types9UInt8TypeINtNtNtB1i_5array10byte_array16GenericByteArrayINtB1g_17GenericBinaryTypelEEE3newB7_
FNDA:0,_RNvMsh_NtCs2Zzx8WPYKXd_15otel_arrow_rust6arraysINtB5_23DictionaryArrayAccessorNtNtCs5YmLTPZiaZu_11arrow_array5types9UInt8TypeINtNtNtB1i_5array10byte_array16GenericByteArrayINtB1g_17GenericBinaryTypelEEE8value_atB7_
FNDA:8,_RNvMsh_NtCs2Zzx8WPYKXd_15otel_arrow_rust6arraysINtB5_23DictionaryArrayAccessorNtNtCs5YmLTPZiaZu_11arrow_array5types9UInt8TypeINtNtNtB1i_5array10byte_array16GenericByteArrayINtB1g_17GenericStringTypelEEE3newB7_
FNDA:12,_RNvMsh_NtCs2Zzx8WPYKXd_15otel_arrow_rust6arraysINtB5_23DictionaryArrayAccessorNtNtCs5YmLTPZiaZu_11arrow_array5types9UInt8TypeINtNtNtB1i_5array10byte_array16GenericByteArrayINtB1g_17GenericStringTypelEEE8value_atB7_
FNDA:0,_RNvMsh_NtCs2Zzx8WPYKXd_15otel_arrow_rust6arraysINtB5_23DictionaryArrayAccessorNtNtCs5YmLTPZiaZu_11arrow_array5types9UInt8TypeINtNtNtB1i_5array15primitive_array14PrimitiveArrayNtB1g_10UInt16TypeEE3newB7_
FNDA:0,_RNvMsh_NtCs2Zzx8WPYKXd_15otel_arrow_rust6arraysINtB5_23DictionaryArrayAccessorNtNtCs5YmLTPZiaZu_11arrow_array5types9UInt8TypeINtNtNtB1i_5array15primitive_array14PrimitiveArrayNtB1g_10UInt16TypeEE8value_atB7_
FNDA:1,_RNvMsh_NtCs2Zzx8WPYKXd_15otel_arrow_rust6arraysINtB5_23DictionaryArrayAccessorNtNtCs5YmLTPZiaZu_11arrow_array5types9UInt8TypeINtNtNtB1i_5array15primitive_array14PrimitiveArrayNtB1g_10UInt32TypeEE3newB7_
FNDA:1,_RNvMsh_NtCs2Zzx8WPYKXd_15otel_arrow_rust6arraysINtB5_23DictionaryArrayAccessorNtNtCs5YmLTPZiaZu_11arrow_array5types9UInt8TypeINtNtNtB1i_5array15primitive_array14PrimitiveArrayNtB1g_10UInt32TypeEE8value_atB7_
FNDA:2,_RNvMsh_NtCs2Zzx8WPYKXd_15otel_arrow_rust6arraysINtB5_23DictionaryArrayAccessorNtNtCs5YmLTPZiaZu_11arrow_array5types9UInt8TypeINtNtNtB1i_5array15primitive_array14PrimitiveArrayNtB1g_9Int32TypeEE3newB7_
FNDA:3,_RNvMsh_NtCs2Zzx8WPYKXd_15otel_arrow_rust6arraysINtB5_23DictionaryArrayAccessorNtNtCs5YmLTPZiaZu_11arrow_array5types9UInt8TypeINtNtNtB1i_5array15primitive_array14PrimitiveArrayNtB1g_9Int32TypeEE8value_atB7_
FNDA:0,_RNvMsh_NtCs2Zzx8WPYKXd_15otel_arrow_rust6arraysINtB5_23DictionaryArrayAccessorNtNtCs5YmLTPZiaZu_11arrow_array5types9UInt8TypeINtNtNtB1i_5array15primitive_array14PrimitiveArrayNtB1g_9Int64TypeEE3newB7_
FNDA:0,_RNvMsh_NtCs2Zzx8WPYKXd_15otel_arrow_rust6arraysINtB5_23DictionaryArrayAccessorNtNtCs5YmLTPZiaZu_11arrow_array5types9UInt8TypeINtNtNtB1i_5array15primitive_array14PrimitiveArrayNtB1g_9Int64TypeEE8value_atB7_
FNDA:4,_RNvMsh_NtCs2Zzx8WPYKXd_15otel_arrow_rust6arraysINtB5_23DictionaryArrayAccessorNtNtCs5YmLTPZiaZu_11arrow_array5types9UInt8TypeNtNtNtB1i_5array23fixed_size_binary_array20FixedSizeBinaryArrayE3newB7_
FNDA:6,_RNvMsh_NtCs2Zzx8WPYKXd_15otel_arrow_rust6arraysINtB5_23DictionaryArrayAccessorNtNtCs5YmLTPZiaZu_11arrow_array5types9UInt8TypeNtNtNtB1i_5array23fixed_size_binary_array20FixedSizeBinaryArrayE8value_atB7_
FNDA:4,_RNvXsb_NtCs2Zzx8WPYKXd_15otel_arrow_rust6arraysINtB5_22MaybeDictArrayAccessorINtNtNtCs5YmLTPZiaZu_11arrow_array5array10byte_array16GenericByteArrayINtNtB1k_5types17GenericBinaryTypelEEENtB5_21NullableArrayAccessor8value_atB7_
FNDA:21,_RNvXsb_NtCs2Zzx8WPYKXd_15otel_arrow_rust6arraysINtB5_22MaybeDictArrayAccessorINtNtNtCs5YmLTPZiaZu_11arrow_array5array10byte_array16GenericByteArrayINtNtB1k_5types17GenericStringTypelEEENtB5_21NullableArrayAccessor8value_atB7_
FNDA:5,_RNvXsb_NtCs2Zzx8WPYKXd_15otel_arrow_rust6arraysINtB5_22MaybeDictArrayAccessorINtNtNtCs5YmLTPZiaZu_11arrow_array5array15primitive_array14PrimitiveArrayNtNtB1k_5types10UInt16TypeEENtB5_21NullableArrayAccessor8value_atB7_
FNDA:1,_RNvXsb_NtCs2Zzx8WPYKXd_15otel_arrow_rust6arraysINtB5_22MaybeDictArrayAccessorINtNtNtCs5YmLTPZiaZu_11arrow_array5array15primitive_array14PrimitiveArrayNtNtB1k_5types10UInt32TypeEENtB5_21NullableArrayAccessor8value_atB7_
FNDA:3,_RNvXsb_NtCs2Zzx8WPYKXd_15otel_arrow_rust6arraysINtB5_22MaybeDictArrayAccessorINtNtNtCs5YmLTPZiaZu_11arrow_array5array15primitive_array14PrimitiveArrayNtNtB1k_5types9Int32TypeEENtB5_21NullableArrayAccessor8value_atB7_
FNDA:0,_RNvXsb_NtCs2Zzx8WPYKXd_15otel_arrow_rust6arraysINtB5_22MaybeDictArrayAccessorINtNtNtCs5YmLTPZiaZu_11arrow_array5array15primitive_array14PrimitiveArrayNtNtB1k_5types9Int64TypeEENtB5_21NullableArrayAccessor8value_atB7_
FNDA:6,_RNvXsb_NtCs2Zzx8WPYKXd_15otel_arrow_rust6arraysINtB5_22MaybeDictArrayAccessorNtNtNtCs5YmLTPZiaZu_11arrow_array5array23fixed_size_binary_array20FixedSizeBinaryArrayENtB5_21NullableArrayAccessor8value_atB7_
FNDA:5,_RNvYINtNtCs2Zzx8WPYKXd_15otel_arrow_rust6arrays22MaybeDictArrayAccessorINtNtNtCs5YmLTPZiaZu_11arrow_array5array15primitive_array14PrimitiveArrayNtNtB1e_5types10UInt16TypeEENtB5_21NullableArrayAccessor19value_at_or_defaultB7_
FNDA:1,_RNvYINtNtCs2Zzx8WPYKXd_15otel_arrow_rust6arrays22MaybeDictArrayAccessorINtNtNtCs5YmLTPZiaZu_11arrow_array5array15primitive_array14PrimitiveArrayNtNtB1e_5types10UInt32TypeEENtB5_21NullableArrayAccessor19value_at_or_defaultB7_
FNDA:0,_RNvYNtNtCs2Zzx8WPYKXd_15otel_arrow_rust6arrays17ByteArrayAccessorNtB4_21NullableArrayAccessor19value_at_or_defaultB6_
FNDA:9,_RNvXNtCs2Zzx8WPYKXd_15otel_arrow_rust6arraysRINtNtNtCs5YmLTPZiaZu_11arrow_array5array15primitive_array14PrimitiveArrayNtNtBO_5types10UInt16TypeENtB2_21NullableArrayAccessor8value_atB4_
FNDA:0,_RNvXNtCs2Zzx8WPYKXd_15otel_arrow_rust6arraysRINtNtNtCs5YmLTPZiaZu_11arrow_array5array15primitive_array14PrimitiveArrayNtNtBO_5types10UInt32TypeENtB2_21NullableArrayAccessor8value_atB4_
FNDA:1,_RNvXNtCs2Zzx8WPYKXd_15otel_arrow_rust6arraysRINtNtNtCs5YmLTPZiaZu_11arrow_array5array15primitive_array14PrimitiveArrayNtNtBO_5types11Float64TypeENtB2_21NullableArrayAccessor8value_atB4_
FNDA:7,_RNvXNtCs2Zzx8WPYKXd_15otel_arrow_rust6arraysRINtNtNtCs5YmLTPZiaZu_11arrow_array5array15primitive_array14PrimitiveArrayNtNtBO_5types23TimestampNanosecondTypeENtB2_21NullableArrayAccessor8value_atB4_
FNDA:0,_RNvXNtCs2Zzx8WPYKXd_15otel_arrow_rust6arraysRINtNtNtCs5YmLTPZiaZu_11arrow_array5array15primitive_array14PrimitiveArrayNtNtBO_5types9Int32TypeENtB2_21NullableArrayAccessor8value_atB4_
FNDA:0,_RNvXNtCs2Zzx8WPYKXd_15otel_arrow_rust6arraysRINtNtNtCs5YmLTPZiaZu_11arrow_array5array15primitive_array14PrimitiveArrayNtNtBO_5types9Int64TypeENtB2_21NullableArrayAccessor8value_atB4_
FNDA:21,_RNvXs0_NtCs2Zzx8WPYKXd_15otel_arrow_rust6arraysINtNtNtCs5YmLTPZiaZu_11arrow_array5array15primitive_array14PrimitiveArrayNtNtBQ_5types10UInt16TypeENtB5_21NullableArrayAccessor8value_atB7_
FNDA:2,_RNvXs0_NtCs2Zzx8WPYKXd_15otel_arrow_rust6arraysINtNtNtCs5YmLTPZiaZu_11arrow_array5array15primitive_array14PrimitiveArrayNtNtBQ_5types10UInt32TypeENtB5_21NullableArrayAccessor8value_atB7_
FNDA:0,_RNvXs0_NtCs2Zzx8WPYKXd_15otel_arrow_rust6arraysINtNtNtCs5YmLTPZiaZu_11arrow_array5array15primitive_array14PrimitiveArrayNtNtBQ_5types10UInt64TypeENtB5_21NullableArrayAccessor8value_atB7_
FNDA:1,_RNvXs0_NtCs2Zzx8WPYKXd_15otel_arrow_rust6arraysINtNtNtCs5YmLTPZiaZu_11arrow_array5array15primitive_array14PrimitiveArrayNtNtBQ_5types11Float64TypeENtB5_21NullableArrayAccessor8value_atB7_
FNDA:8,_RNvXs0_NtCs2Zzx8WPYKXd_15otel_arrow_rust6arraysINtNtNtCs5YmLTPZiaZu_11arrow_array5array15primitive_array14PrimitiveArrayNtNtBQ_5types23TimestampNanosecondTypeENtB5_21NullableArrayAccessor8value_atB7_
FNDA:3,_RNvXs0_NtCs2Zzx8WPYKXd_15otel_arrow_rust6arraysINtNtNtCs5YmLTPZiaZu_11arrow_array5array15primitive_array14PrimitiveArrayNtNtBQ_5types9Int32TypeENtB5_21NullableArrayAccessor8value_atB7_
FNDA:0,_RNvXs0_NtCs2Zzx8WPYKXd_15otel_arrow_rust6arraysINtNtNtCs5YmLTPZiaZu_11arrow_array5array15primitive_array14PrimitiveArrayNtNtBQ_5types9Int64TypeENtB5_21NullableArrayAccessor8value_atB7_
FNDA:10,_RNvXs0_NtCs2Zzx8WPYKXd_15otel_arrow_rust6arraysINtNtNtCs5YmLTPZiaZu_11arrow_array5array15primitive_array14PrimitiveArrayNtNtBQ_5types9UInt8TypeENtB5_21NullableArrayAccessor8value_atB7_
FNDA:4,_RNvYINtNtNtCs5YmLTPZiaZu_11arrow_array5array15primitive_array14PrimitiveArrayNtNtB9_5types10UInt16TypeENtNtCs2Zzx8WPYKXd_15otel_arrow_rust6arrays21NullableArrayAccessor19value_at_or_defaultB1H_
FNDA:0,_RNvYINtNtNtCs5YmLTPZiaZu_11arrow_array5array15primitive_array14PrimitiveArrayNtNtB9_5types10UInt32TypeENtNtCs2Zzx8WPYKXd_15otel_arrow_rust6arrays21NullableArrayAccessor19value_at_or_defaultB1H_
FNDA:0,_RNvYINtNtNtCs5YmLTPZiaZu_11arrow_array5array15primitive_array14PrimitiveArrayNtNtB9_5types10UInt64TypeENtNtCs2Zzx8WPYKXd_15otel_arrow_rust6arrays21NullableArrayAccessor19value_at_or_defaultB1H_
FNDA:0,_RNvYINtNtNtCs5YmLTPZiaZu_11arrow_array5array15primitive_array14PrimitiveArrayNtNtB9_5types11Float64TypeENtNtCs2Zzx8WPYKXd_15otel_arrow_rust6arrays21NullableArrayAccessor19value_at_or_defaultB1I_
FNDA:0,_RNvYINtNtNtCs5YmLTPZiaZu_11arrow_array5array15primitive_array14PrimitiveArrayNtNtB9_5types23TimestampNanosecondTypeENtNtCs2Zzx8WPYKXd_15otel_arrow_rust6arrays21NullableArrayAccessor19value_at_or_defaultB1U_
FNDA:0,_RNvYINtNtNtCs5YmLTPZiaZu_11arrow_array5array15primitive_array14PrimitiveArrayNtNtB9_5types9Int32TypeENtNtCs2Zzx8WPYKXd_15otel_arrow_rust6arrays21NullableArrayAccessor19value_at_or_defaultB1F_
FNDA:10,_RNvYINtNtNtCs5YmLTPZiaZu_11arrow_array5array15primitive_array14PrimitiveArrayNtNtB9_5types9UInt8TypeENtNtCs2Zzx8WPYKXd_15otel_arrow_rust6arrays21NullableArrayAccessor19value_at_or_defaultB1F_
FNDA:1,_RNvNtNtCs2Zzx8WPYKXd_15otel_arrow_rust6arrays5testss_24test_dictionary_accessor
FNDA:24,_RNvXs_NtCs2Zzx8WPYKXd_15otel_arrow_rust6arraysINtNtCs8sCtDi7t2F4_4core6option6OptionINtB4_22MaybeDictArrayAccessorINtNtNtCs5YmLTPZiaZu_11arrow_array5array10byte_array16GenericByteArrayINtNtB1V_5types17GenericStringTypelEEEENtB4_21NullableArrayAccessor8value_atB6_
FNDA:4,_RNvXs_NtCs2Zzx8WPYKXd_15otel_arrow_rust6arraysINtNtCs8sCtDi7t2F4_4core6option6OptionINtB4_22MaybeDictArrayAccessorINtNtNtCs5YmLTPZiaZu_11arrow_array5array15primitive_array14PrimitiveArrayNtNtB1V_5types9Int32TypeEEENtB4_21NullableArrayAccessor8value_atB6_
FNDA:0,_RNvXs_NtCs2Zzx8WPYKXd_15otel_arrow_rust6arraysINtNtCs8sCtDi7t2F4_4core6option6OptionINtB4_22MaybeDictArrayAccessorINtNtNtCs5YmLTPZiaZu_11arrow_array5array15primitive_array14PrimitiveArrayNtNtB1V_5types9Int64TypeEEENtB4_21NullableArrayAccessor8value_atB6_
FNDA:10,_RNvXs_NtCs2Zzx8WPYKXd_15otel_arrow_rust6arraysINtNtCs8sCtDi7t2F4_4core6option6OptionNtB4_17ByteArrayAccessorENtB4_21NullableArrayAccessor8value_atB6_
FNDA:3,_RNvXs_NtCs2Zzx8WPYKXd_15otel_arrow_rust6arraysINtNtCs8sCtDi7t2F4_4core6option6OptionNtNtNtB6_4otlp4logs13LogBodyArraysENtB4_21NullableArrayAccessor8value_atB6_
FNDA:4,_RNvXs_NtCs2Zzx8WPYKXd_15otel_arrow_rust6arraysINtNtCs8sCtDi7t2F4_4core6option6OptionRINtNtNtCs5YmLTPZiaZu_11arrow_array5array15primitive_array14PrimitiveArrayNtNtB1s_5types10UInt16TypeEENtB4_21NullableArrayAccessor8value_atB6_
FNDA:13,_RNvXs_NtCs2Zzx8WPYKXd_15otel_arrow_rust6arraysINtNtCs8sCtDi7t2F4_4core6option6OptionRINtNtNtCs5YmLTPZiaZu_11arrow_array5array15primitive_array14PrimitiveArrayNtNtB1s_5types10UInt32TypeEENtB4_21NullableArrayAccessor8value_atB6_
FNDA:1,_RNvXs_NtCs2Zzx8WPYKXd_15otel_arrow_rust6arraysINtNtCs8sCtDi7t2F4_4core6option6OptionRINtNtNtCs5YmLTPZiaZu_11arrow_array5array15primitive_array14PrimitiveArrayNtNtB1s_5types11Float64TypeEENtB4_21NullableArrayAccessor8value_atB6_
FNDA:7,_RNvXs_NtCs2Zzx8WPYKXd_15otel_arrow_rust6arraysINtNtCs8sCtDi7t2F4_4core6option6OptionRINtNtNtCs5YmLTPZiaZu_11arrow_array5array15primitive_array14PrimitiveArrayNtNtB1s_5types23TimestampNanosecondTypeEENtB4_21NullableArrayAccessor8value_atB6_
FNDA:1,_RNvXs_NtCs2Zzx8WPYKXd_15otel_arrow_rust6arraysINtNtCs8sCtDi7t2F4_4core6option6OptionRINtNtNtCs5YmLTPZiaZu_11arrow_array5array15primitive_array14PrimitiveArrayNtNtB1s_5types9Int64TypeEENtB4_21NullableArrayAccessor8value_atB6_
FNDA:1,_RNvXs_NtCs2Zzx8WPYKXd_15otel_arrow_rust6arraysINtNtCs8sCtDi7t2F4_4core6option6OptionRNtNtNtCs5YmLTPZiaZu_11arrow_array5array13boolean_array12BooleanArrayENtB4_21NullableArrayAccessor8value_atB6_
FNDA:14,_RNvYINtNtCs8sCtDi7t2F4_4core6option6OptionINtNtCs2Zzx8WPYKXd_15otel_arrow_rust6arrays22MaybeDictArrayAccessorINtNtNtCs5YmLTPZiaZu_11arrow_array5array10byte_array16GenericByteArrayINtNtB1Q_5types17GenericStringTypelEEEENtBH_21NullableArrayAccessor19value_at_or_defaultBJ_
FNDA:4,_RNvYINtNtCs8sCtDi7t2F4_4core6option6OptionINtNtCs2Zzx8WPYKXd_15otel_arrow_rust6arrays22MaybeDictArrayAccessorINtNtNtCs5YmLTPZiaZu_11arrow_array5array15primitive_array14PrimitiveArrayNtNtB1Q_5types9Int32TypeEEENtBH_21NullableArrayAccessor19value_at_or_defaultBJ_
FNDA:0,_RNvYINtNtCs8sCtDi7t2F4_4core6option6OptionINtNtCs2Zzx8WPYKXd_15otel_arrow_rust6arrays22MaybeDictArrayAccessorINtNtNtCs5YmLTPZiaZu_11arrow_array5array15primitive_array14PrimitiveArrayNtNtB1Q_5types9Int64TypeEEENtBH_21NullableArrayAccessor19value_at_or_defaultBJ_
FNDA:0,_RNvYINtNtCs8sCtDi7t2F4_4core6option6OptionNtNtCs2Zzx8WPYKXd_15otel_arrow_rust6arrays17ByteArrayAccessorENtBG_21NullableArrayAccessor19value_at_or_defaultBI_
FNDA:10,_RNvYINtNtCs8sCtDi7t2F4_4core6option6OptionRINtNtNtCs5YmLTPZiaZu_11arrow_array5array15primitive_array14PrimitiveArrayNtNtBM_5types10UInt32TypeEENtNtCs2Zzx8WPYKXd_15otel_arrow_rust6arrays21NullableArrayAccessor19value_at_or_defaultB2l_
FNDA:0,_RNvYINtNtCs8sCtDi7t2F4_4core6option6OptionRINtNtNtCs5YmLTPZiaZu_11arrow_array5array15primitive_array14PrimitiveArrayNtNtBM_5types11Float64TypeEENtNtCs2Zzx8WPYKXd_15otel_arrow_rust6arrays21NullableArrayAccessor19value_at_or_defaultB2m_
FNDA:6,_RNvYINtNtCs8sCtDi7t2F4_4core6option6OptionRINtNtNtCs5YmLTPZiaZu_11arrow_array5array15primitive_array14PrimitiveArrayNtNtBM_5types23TimestampNanosecondTypeEENtNtCs2Zzx8WPYKXd_15otel_arrow_rust6arrays21NullableArrayAccessor19value_at_or_defaultB2y_
FNDA:0,_RNvYINtNtCs8sCtDi7t2F4_4core6option6OptionRINtNtNtCs5YmLTPZiaZu_11arrow_array5array15primitive_array14PrimitiveArrayNtNtBM_5types9Int64TypeEENtNtCs2Zzx8WPYKXd_15otel_arrow_rust6arrays21NullableArrayAccessor19value_at_or_defaultB2j_
FNDA:1,_RNvYINtNtCs8sCtDi7t2F4_4core6option6OptionRNtNtNtCs5YmLTPZiaZu_11arrow_array5array13boolean_array12BooleanArrayENtNtCs2Zzx8WPYKXd_15otel_arrow_rust6arrays21NullableArrayAccessor19value_at_or_defaultB1Q_
FNDA:0,_RNvXNtCs2Zzx8WPYKXd_15otel_arrow_rust6arraysRNtNtNtCs5YmLTPZiaZu_11arrow_array5array13boolean_array12BooleanArrayNtB2_21NullableArrayAccessor8value_atB4_
FNDA:6,_RNvXs3_NtCs2Zzx8WPYKXd_15otel_arrow_rust6arraysNtNtNtCs5YmLTPZiaZu_11arrow_array5array23fixed_size_binary_array20FixedSizeBinaryArrayNtB5_21NullableArrayAccessor8value_at
FNDA:0,_RNvXs1_NtCs2Zzx8WPYKXd_15otel_arrow_rust6arraysNtNtNtCs5YmLTPZiaZu_11arrow_array5array13boolean_array12BooleanArrayNtB5_21NullableArrayAccessor8value_at
FNDA:0,_RNvXNtCs2Zzx8WPYKXd_15otel_arrow_rust6arraysRNtNtNtCs5YmLTPZiaZu_11arrow_array5array23fixed_size_binary_array20FixedSizeBinaryArrayNtB2_21NullableArrayAccessor8value_atB4_
FNF:45
FNH:31
DA:31,55
DA:32,55
DA:33,55
DA:34,55
DA:35,55
DA:36,55
DA:45,17
DA:46,17
DA:47,17
DA:56,68
DA:57,68
DA:58,68
DA:67,45
DA:68,45
DA:69,45
DA:71,0
DA:73,45
DA:79,0
DA:80,0
DA:81,0
DA:83,0
DA:85,0
DA:91,4
DA:92,4
DA:93,4
DA:95,0
DA:97,4
DA:103,6
DA:104,6
DA:105,6
DA:107,0
DA:109,6
DA:115,21
DA:116,21
DA:117,21
DA:119,0
DA:121,21
DA:127,19
DA:129,19
DA:130,19
DA:131,6
DA:132,6
DA:133,6
DA:134,0
DA:135,0
DA:136,0
DA:137,6
DA:138,19
DA:139,19
DA:141,10
DA:143,10
DA:145,10
DA:146,10
DA:147,10
DA:148,0
DA:149,0
DA:150,0
DA:151,10
DA:152,10
DA:181,19
DA:182,19
DA:183,19
DA:184,19
DA:185,19
DA:186,19
DA:187,19
DA:188,19
DA:195,0
DA:196,0
DA:197,0
DA:204,0
DA:205,0
DA:206,0
DA:208,0
DA:209,0
DA:210,0
DA:211,0
DA:212,0
DA:213,0
DA:214,0
DA:215,0
DA:223,0
DA:224,0
DA:225,0
DA:232,0
DA:233,0
DA:234,0
DA:237,0
DA:238,0
DA:239,0
DA:240,0
DA:241,0
DA:242,0
DA:243,0
DA:244,0
DA:256,0
DA:257,0
DA:258,0
DA:259,0
DA:260,0
DA:261,0
DA:263,6
DA:264,6
DA:266,0
DA:268,0
DA:269,0
DA:270,0
DA:272,6
DA:274,2
DA:276,4
DA:277,4
DA:278,4
DA:280,0
DA:281,0
DA:282,0
DA:283,0
DA:284,0
DA:286,0
DA:287,0
DA:288,0
DA:289,0
DA:290,0
DA:291,0
DA:292,0
DA:293,0
DA:294,0
DA:295,0
DA:296,0
DA:297,0
DA:298,0
DA:299,0
DA:300,0
DA:301,0
DA:302,0
DA:303,0
DA:305,6
DA:311,10
DA:312,10
DA:313,4
DA:314,6
DA:316,10
DA:333,40
DA:334,40
DA:335,40
DA:336,40
DA:337,40
DA:338,5
DA:339,22
DA:340,13
DA:342,40
DA:356,27
DA:357,27
DA:358,27
DA:359,5
DA:360,5
DA:361,5
DA:362,5
DA:363,5
DA:364,22
DA:367,22
DA:368,22
DA:369,22
DA:370,0
DA:371,0
DA:372,0
DA:373,0
DA:376,22
DA:377,15
DA:378,15
DA:379,15
DA:380,15
DA:381,15
DA:382,7
DA:383,7
DA:384,7
DA:385,7
DA:386,7
DA:388,0
DA:389,0
DA:390,0
DA:391,0
DA:392,0
DA:396,22
DA:397,0
DA:398,0
DA:399,0
DA:400,0
DA:401,0
DA:402,0
DA:403,0
DA:404,0
DA:405,0
DA:406,0
DA:407,0
DA:408,27
DA:415,8
DA:416,8
DA:417,8
DA:419,0
DA:420,0
DA:421,0
DA:422,0
DA:423,0
DA:424,0
DA:428,2
DA:429,2
DA:430,2
DA:434,4
DA:435,4
DA:436,4
DA:440,13
DA:441,13
DA:442,13
DA:444,3
DA:445,3
DA:446,3
DA:447,3
DA:448,3
DA:449,3
DA:469,22
DA:470,22
DA:471,22
DA:472,22
DA:473,22
DA:474,22
DA:475,0
DA:476,0
DA:477,22
DA:478,22
DA:479,22
DA:481,35
DA:482,35
DA:483,35
DA:484,35
DA:485,35
DA:486,35
DA:487,35
DA:489,0
DA:491,35
DA:504,8
DA:505,8
DA:506,8
DA:508,5
DA:509,5
DA:510,5
DA:511,5
DA:512,5
DA:513,5
DA:514,0
DA:515,5
DA:516,5
DA:518,18
DA:519,18
DA:520,18
DA:521,18
DA:522,18
DA:523,18
DA:524,18
DA:525,8
DA:526,8
DA:527,8
DA:528,0
DA:529,0
DA:530,0
DA:531,8
DA:532,18
DA:533,18
DA:534,18
DA:536,2
DA:537,2
DA:538,2
DA:539,2
DA:540,0
DA:541,0
DA:542,0
DA:543,0
DA:544,0
DA:545,0
DA:546,0
DA:547,2
DA:548,2
DA:549,2
DA:551,11
DA:552,11
DA:553,11
DA:554,11
DA:555,11
DA:556,11
DA:557,11
DA:558,11
DA:559,11
DA:561,4
DA:562,4
DA:563,4
DA:564,4
DA:565,4
DA:566,4
DA:567,4
DA:568,4
DA:569,4
DA:580,1
DA:581,1
DA:582,1
DA:583,1
DA:584,1
DA:585,1
DA:586,1
DA:587,1
DA:588,1
BRF:0
BRH:0
LF:328
LH:192
end_of_record
SF:/Users/d.dahl/code/otel-arrow/rust/otel-arrow-rust/src/decode/decoder.rs
FN:175,_RNvNtNtNtCs2Zzx8WPYKXd_15otel_arrow_rust6decode7decoder5testss_18test_replace_bytes
FN:70,_RNCNvMs_NtNtCs2Zzx8WPYKXd_15otel_arrow_rust6decode7decoderNtB6_8Consumer11consume_bar0Ba_
FN:79,_RNCNvMs_NtNtCs2Zzx8WPYKXd_15otel_arrow_rust6decode7decoderNtB6_8Consumer11consume_bars_0Ba_
FN:160,_RNCNvNtNtCs2Zzx8WPYKXd_15otel_arrow_rust6decode7decoder21get_main_payload_type0B7_
FN:44,_RNvMNtNtCs2Zzx8WPYKXd_15otel_arrow_rust6decode7decoderNtB2_14StreamConsumer13replace_bytes
FN:34,_RNvMNtNtCs2Zzx8WPYKXd_15otel_arrow_rust6decode7decoderNtB2_14StreamConsumer3new
FN:48,_RNvMNtNtCs2Zzx8WPYKXd_15otel_arrow_rust6decode7decoderNtB2_14StreamConsumer4next
FN:60,_RNvMs_NtNtCs2Zzx8WPYKXd_15otel_arrow_rust6decode7decoderNtB4_8Consumer11consume_bar
FN:134,_RNvMs_NtNtCs2Zzx8WPYKXd_15otel_arrow_rust6decode7decoderNtB4_8Consumer20consume_logs_batches
FN:112,_RNvMs_NtNtCs2Zzx8WPYKXd_15otel_arrow_rust6decode7decoderNtB4_8Consumer23consume_metrics_batches
FN:155,_RNvNtNtCs2Zzx8WPYKXd_15otel_arrow_rust6decode7decoder21get_main_payload_type
FNDA:1,_RNvNtNtNtCs2Zzx8WPYKXd_15otel_arrow_rust6decode7decoder5testss_18test_replace_bytes
FNDA:0,_RNCNvMs_NtNtCs2Zzx8WPYKXd_15otel_arrow_rust6decode7decoderNtB6_8Consumer11consume_bar0Ba_
FNDA:5,_RNCNvMs_NtNtCs2Zzx8WPYKXd_15otel_arrow_rust6decode7decoderNtB6_8Consumer11consume_bars_0Ba_
FNDA:0,_RNCNvNtNtCs2Zzx8WPYKXd_15otel_arrow_rust6decode7decoder21get_main_payload_type0B7_
FNDA:0,_RNvMNtNtCs2Zzx8WPYKXd_15otel_arrow_rust6decode7decoderNtB2_14StreamConsumer13replace_bytes
FNDA:7,_RNvMNtNtCs2Zzx8WPYKXd_15otel_arrow_rust6decode7decoderNtB2_14StreamConsumer3new
FNDA:7,_RNvMNtNtCs2Zzx8WPYKXd_15otel_arrow_rust6decode7decoderNtB2_14StreamConsumer4next
FNDA:3,_RNvMs_NtNtCs2Zzx8WPYKXd_15otel_arrow_rust6decode7decoderNtB4_8Consumer11consume_bar
FNDA:2,_RNvMs_NtNtCs2Zzx8WPYKXd_15otel_arrow_rust6decode7decoderNtB4_8Consumer20consume_logs_batches
FNDA:1,_RNvMs_NtNtCs2Zzx8WPYKXd_15otel_arrow_rust6decode7decoderNtB4_8Consumer23consume_metrics_batches
FNDA:3,_RNvNtNtCs2Zzx8WPYKXd_15otel_arrow_rust6decode7decoder21get_main_payload_type
FNF:11
FNH:8
DA:34,7
DA:35,7
DA:36,7
DA:37,7
DA:38,7
DA:39,7
DA:40,7
DA:41,7
DA:42,7
DA:44,0
DA:45,0
DA:46,0
DA:48,7
DA:49,7
DA:50,7
DA:60,3
DA:61,3
DA:63,7
DA:65,7
DA:66,7
DA:67,7
DA:68,7
DA:69,7
DA:70,7
DA:72,7
DA:76,7
DA:77,7
DA:78,7
DA:79,7
DA:80,7
DA:81,7
DA:82,7
DA:83,7
DA:84,7
DA:86,0
DA:87,0
DA:88,0
DA:89,0
DA:93,7
DA:95,7
DA:96,7
DA:97,7
DA:98,7
DA:99,7
DA:100,7
DA:101,7
DA:102,0
DA:103,0
DA:104,0
DA:106,3
DA:107,3
DA:112,1
DA:113,1
DA:114,1
DA:115,1
DA:116,1
DA:118,1
DA:119,1
DA:120,1
DA:121,1
DA:122,1
DA:124,0
DA:125,0
DA:126,0
DA:127,0
DA:129,1
DA:134,2
DA:135,2
DA:136,2
DA:137,2
DA:138,2
DA:140,2
DA:141,2
DA:142,2
DA:143,2
DA:144,2
DA:146,0
DA:147,0
DA:148,0
DA:149,0
DA:151,2
DA:155,3
DA:156,3
DA:159,3
DA:160,3
DA:161,0
DA:162,0
DA:163,0
DA:164,0
DA:165,3
DA:166,3
DA:175,1
DA:176,1
DA:177,1
DA:178,1
DA:179,1
DA:180,1
DA:181,1
DA:182,1
DA:183,1
DA:184,1
DA:185,1
DA:186,1
DA:187,1
DA:188,1
DA:191,1
DA:192,1
DA:193,1
DA:194,1
DA:195,1
DA:196,1
DA:197,1
BRF:0
BRH:0
LF:116
LH:91
end_of_record
SF:/Users/d.dahl/code/otel-arrow/rust/otel-arrow-rust/src/error.rs
FN:23,_RINvMNtCs2Zzx8WPYKXd_15otel_arrow_rust5errorINtB3_19ColumnNotFoundSnafupE4failpEB5_
FN:23,_RINvMs0_NtCs2Zzx8WPYKXd_15otel_arrow_rust5errorINtB6_27ColumnDataTypeMismatchSnafupppE4failpEB8_
FN:23,_RINvMsA_NtCs2Zzx8WPYKXd_15otel_arrow_rust5errorINtB6_32UnsupportedStringColumnTypeSnafupE4failpEB8_
FN:23,_RINvMsC_NtCs2Zzx8WPYKXd_15otel_arrow_rust5errorINtB6_33UnsupportedStringDictKeyTypeSnafupE4failpEB8_
FN:23,_RINvMsi_NtCs2Zzx8WPYKXd_15otel_arrow_rust5errorINtB6_24InvalidQuantileTypeSnafupE4failpEB8_
FN:23,_RINvMss_NtCs2Zzx8WPYKXd_15otel_arrow_rust5errorNtB6_22LogRecordNotFoundSnafu4failpEB8_
FN:23,_RINvMsu_NtCs2Zzx8WPYKXd_15otel_arrow_rust5errorNtB6_25MetricRecordNotFoundSnafu4failpEB8_
FN:23,_RNvMNtCs2Zzx8WPYKXd_15otel_arrow_rust5errorINtB2_19ColumnNotFoundSnafupE5buildB4_
FN:23,_RNvMs0_NtCs2Zzx8WPYKXd_15otel_arrow_rust5errorINtB5_27ColumnDataTypeMismatchSnafupppE5buildB7_
FN:23,_RNvMsA_NtCs2Zzx8WPYKXd_15otel_arrow_rust5errorINtB5_32UnsupportedStringColumnTypeSnafupE5buildB7_
FN:23,_RNvMsC_NtCs2Zzx8WPYKXd_15otel_arrow_rust5errorINtB5_33UnsupportedStringDictKeyTypeSnafupE5buildB7_
FN:23,_RNvMsi_NtCs2Zzx8WPYKXd_15otel_arrow_rust5errorINtB5_24InvalidQuantileTypeSnafupE5buildB7_
FN:23,_RNvMss_NtCs2Zzx8WPYKXd_15otel_arrow_rust5errorNtB5_22LogRecordNotFoundSnafu5build
FN:23,_RNvMsu_NtCs2Zzx8WPYKXd_15otel_arrow_rust5errorNtB5_25MetricRecordNotFoundSnafu5build
FN:23,_RNvXININtCs2Zzx8WPYKXd_15otel_arrow_rust5errors9_0pEINtB5_32InvalidSerializedMapKeyTypeSnafupEINtCs6zNvjk53Iaz_5snafu9IntoErrorNtB5_5ErrorE10into_errorB7_
FN:23,_RNvXININtCs2Zzx8WPYKXd_15otel_arrow_rust5errorsB_0pEINtB5_32UnsupportedStringColumnTypeSnafupEINtCs6zNvjk53Iaz_5snafu9IntoErrorNtB5_5ErrorE10into_errorB7_
FN:23,_RNvXININtCs2Zzx8WPYKXd_15otel_arrow_rust5errorsD_0pEINtB5_33UnsupportedStringDictKeyTypeSnafupEINtCs6zNvjk53Iaz_5snafu9IntoErrorNtB5_5ErrorE10into_errorB7_
FN:23,_RNvXININtCs2Zzx8WPYKXd_15otel_arrow_rust5errorsb_0pEINtB5_40UnsupportedSerializedAttributeValueSnafupEINtCs6zNvjk53Iaz_5snafu9IntoErrorNtB5_5ErrorE10into_errorB7_
FN:23,_RNvXININtCs2Zzx8WPYKXd_15otel_arrow_rust5errorsd_0pEINtB5_24InvalidExemplarDataSnafupEINtCs6zNvjk53Iaz_5snafu9IntoErrorNtB5_5ErrorE10into_errorB7_
FN:23,_RNvXININtCs2Zzx8WPYKXd_15otel_arrow_rust5errorsf_0pEINtB5_18InvalidSpanIdSnafupEINtCs6zNvjk53Iaz_5snafu9IntoErrorNtB5_5ErrorE10into_errorB7_
FN:23,_RNvXININtCs2Zzx8WPYKXd_15otel_arrow_rust5errorsh_0pEINtB5_19InvalidTraceIdSnafupEINtCs6zNvjk53Iaz_5snafu9IntoErrorNtB5_5ErrorE10into_errorB7_
FN:23,_RNvXININtCs2Zzx8WPYKXd_15otel_arrow_rust5errorsn_0pEINtB5_27UnsupportedPayloadTypeSnafupEINtCs6zNvjk53Iaz_5snafu9IntoErrorNtB5_5ErrorE10into_errorB7_
FN:23,_RNvXININtCs2Zzx8WPYKXd_15otel_arrow_rust5errorsx_0ppEINtB5_33UnsupportedDictionaryKeyTypeSnafuppEINtCs6zNvjk53Iaz_5snafu9IntoErrorNtB5_5ErrorE10into_errorB7_
FN:23,_RNvXININtCs2Zzx8WPYKXd_15otel_arrow_rust5errorsz_0ppEINtB5_35UnsupportedDictionaryValueTypeSnafuppEINtCs6zNvjk53Iaz_5snafu9IntoErrorNtB5_5ErrorE10into_errorB7_
FN:23,_RNvXs4_NtCs2Zzx8WPYKXd_15otel_arrow_rust5errorNtB5_20EmptyMetricTypeSnafuINtCs6zNvjk53Iaz_5snafu9IntoErrorNtB5_5ErrorE10into_error
FN:23,_RNvXsr_NtCs2Zzx8WPYKXd_15otel_arrow_rust5errorNtB5_15EmptyBatchSnafuINtCs6zNvjk53Iaz_5snafu9IntoErrorNtB5_5ErrorE10into_error
FN:23,_RINvMs3_NtCs2Zzx8WPYKXd_15otel_arrow_rust5errorNtB6_20EmptyMetricTypeSnafu4failNtNtNtNtNtNtB8_5proto13opentelemetry9collector7metrics2v127ExportMetricsServiceRequestEB8_
FN:23,_RINvMs8_NtCs2Zzx8WPYKXd_15otel_arrow_rust5errorINtB6_32InvalidSerializedMapKeyTypeSnafuNtNtCs2Kc9XCowmpf_8ciborium5value5ValueE4failNtNtNtNtNtB8_5proto13opentelemetry6common2v18KeyValueEB8_
FN:23,_RINvMsa_NtCs2Zzx8WPYKXd_15otel_arrow_rust5errorINtB6_40UnsupportedSerializedAttributeValueSnafuNtNtCs2Kc9XCowmpf_8ciborium5value5ValueE4failNtNtNtNtB8_4otlp10attributes4cbor10MaybeValueEB8_
FN:23,_RINvMsc_NtCs2Zzx8WPYKXd_15otel_arrow_rust5errorINtB6_24InvalidExemplarDataSnafuNtNtCshFLakfGc1jx_5alloc6string6StringE4failNtNtNtNtB8_4otlp7metrics8exemplar14ExemplarsStoreEB8_
FN:23,_RINvMse_NtCs2Zzx8WPYKXd_15otel_arrow_rust5errorINtB6_18InvalidSpanIdSnafuNtNtCshFLakfGc1jx_5alloc6string6StringE4failNtNtNtNtB8_4otlp7metrics8exemplar14ExemplarsStoreEB8_
FN:23,_RINvMse_NtCs2Zzx8WPYKXd_15otel_arrow_rust5errorINtB6_18InvalidSpanIdSnafuNtNtCshFLakfGc1jx_5alloc6string6StringE4failNtNtNtNtNtNtB8_5proto13opentelemetry9collector4logs2v124ExportLogsServiceRequestEB8_
FN:23,_RINvMsg_NtCs2Zzx8WPYKXd_15otel_arrow_rust5errorINtB6_19InvalidTraceIdSnafuNtNtCshFLakfGc1jx_5alloc6string6StringE4failNtNtNtNtB8_4otlp7metrics8exemplar14ExemplarsStoreEB8_
FN:23,_RINvMsg_NtCs2Zzx8WPYKXd_15otel_arrow_rust5errorINtB6_19InvalidTraceIdSnafuNtNtCshFLakfGc1jx_5alloc6string6StringE4failNtNtNtNtNtNtB8_5proto13opentelemetry9collector4logs2v124ExportLogsServiceRequestEB8_
FN:23,_RINvMsk_NtCs2Zzx8WPYKXd_15otel_arrow_rust5errorINtB6_21InvalidListArraySnafuINtNtCshFLakfGc1jx_5alloc3vec3VecNtNtCs1YodqRmw17A_12arrow_schema8datatype8DataTypeEB1J_E4failINtNtB8_6arrays22MaybeDictArrayAccessorINtNtNtCs5YmLTPZiaZu_11arrow_array5array10byte_array16GenericByteArrayINtNtB3s_5types17GenericBinaryTypelEEEEB8_
FN:23,_RINvMsk_NtCs2Zzx8WPYKXd_15otel_arrow_rust5errorINtB6_21InvalidListArraySnafuINtNtCshFLakfGc1jx_5alloc3vec3VecNtNtCs1YodqRmw17A_12arrow_schema8datatype8DataTypeEB1J_E4failINtNtB8_6arrays22MaybeDictArrayAccessorINtNtNtCs5YmLTPZiaZu_11arrow_array5array10byte_array16GenericByteArrayINtNtB3s_5types17GenericStringTypelEEEEB8_
FN:23,_RINvMsk_NtCs2Zzx8WPYKXd_15otel_arrow_rust5errorINtB6_21InvalidListArraySnafuINtNtCshFLakfGc1jx_5alloc3vec3VecNtNtCs1YodqRmw17A_12arrow_schema8datatype8DataTypeEB1J_E4failINtNtB8_6arrays22MaybeDictArrayAccessorINtNtNtCs5YmLTPZiaZu_11arrow_array5array15primitive_array14PrimitiveArrayNtNtB3s_5types10UInt16TypeEEEB8_
FN:23,_RINvMsk_NtCs2Zzx8WPYKXd_15otel_arrow_rust5errorINtB6_21InvalidListArraySnafuINtNtCshFLakfGc1jx_5alloc3vec3VecNtNtCs1YodqRmw17A_12arrow_schema8datatype8DataTypeEB1J_E4failINtNtB8_6arrays22MaybeDictArrayAccessorINtNtNtCs5YmLTPZiaZu_11arrow_array5array15primitive_array14PrimitiveArrayNtNtB3s_5types10UInt32TypeEEEB8_
FN:23,_RINvMsk_NtCs2Zzx8WPYKXd_15otel_arrow_rust5errorINtB6_21InvalidListArraySnafuINtNtCshFLakfGc1jx_5alloc3vec3VecNtNtCs1YodqRmw17A_12arrow_schema8datatype8DataTypeEB1J_E4failINtNtB8_6arrays22MaybeDictArrayAccessorINtNtNtCs5YmLTPZiaZu_11arrow_array5array15primitive_array14PrimitiveArrayNtNtB3s_5types9Int32TypeEEEB8_
FN:23,_RINvMsk_NtCs2Zzx8WPYKXd_15otel_arrow_rust5errorINtB6_21InvalidListArraySnafuINtNtCshFLakfGc1jx_5alloc3vec3VecNtNtCs1YodqRmw17A_12arrow_schema8datatype8DataTypeEB1J_E4failINtNtB8_6arrays22MaybeDictArrayAccessorINtNtNtCs5YmLTPZiaZu_11arrow_array5array15primitive_array14PrimitiveArrayNtNtB3s_5types9Int64TypeEEEB8_
FN:23,_RINvMsk_NtCs2Zzx8WPYKXd_15otel_arrow_rust5errorINtB6_21InvalidListArraySnafuINtNtCshFLakfGc1jx_5alloc3vec3VecNtNtCs1YodqRmw17A_12arrow_schema8datatype8DataTypeEB1J_E4failINtNtB8_6arrays22MaybeDictArrayAccessorNtNtNtCs5YmLTPZiaZu_11arrow_array5array23fixed_size_binary_array20FixedSizeBinaryArrayEEB8_
FN:23,_RINvMsk_NtCs2Zzx8WPYKXd_15otel_arrow_rust5errorINtB6_21InvalidListArraySnafuINtNtCshFLakfGc1jx_5alloc3vec3VecNtNtCs1YodqRmw17A_12arrow_schema8datatype8DataTypeEB1J_E4failNtNtB8_6arrays17ByteArrayAccessorEB8_
FN:23,_RINvMsm_NtCs2Zzx8WPYKXd_15otel_arrow_rust5errorINtB6_27UnsupportedPayloadTypeSnafuNtNtNtNtNtB8_5proto13opentelemetry5arrow2v116ArrowPayloadTypeE4failNtNtNtNtB1o_9collector4logs2v124ExportLogsServiceRequestEB8_
FN:23,_RINvMsm_NtCs2Zzx8WPYKXd_15otel_arrow_rust5errorINtB6_27UnsupportedPayloadTypeSnafuNtNtNtNtNtB8_5proto13opentelemetry5arrow2v116ArrowPayloadTypeE4failNtNtNtNtB1o_9collector7metrics2v127ExportMetricsServiceRequestEB8_
FN:23,_RINvMsm_NtCs2Zzx8WPYKXd_15otel_arrow_rust5errorINtB6_27UnsupportedPayloadTypeSnafuNtNtNtNtNtB8_5proto13opentelemetry5arrow2v116ArrowPayloadTypeE4failTNtNtNtNtB8_4otlp4logs12related_data11RelatedDataINtNtCs8sCtDi7t2F4_4core6option6OptionjEEEB8_
FN:23,_RINvMsm_NtCs2Zzx8WPYKXd_15otel_arrow_rust5errorINtB6_27UnsupportedPayloadTypeSnafuNtNtNtNtNtB8_5proto13opentelemetry5arrow2v116ArrowPayloadTypeE4failTNtNtNtNtB8_4otlp7metrics12related_data11RelatedDataINtNtCs8sCtDi7t2F4_4core6option6OptionjEEEB8_
FN:23,_RINvMsq_NtCs2Zzx8WPYKXd_15otel_arrow_rust5errorNtB6_15EmptyBatchSnafu4failNtNtNtNtNtB8_5proto13opentelemetry5arrow2v116ArrowPayloadTypeEB8_
FN:23,_RINvMsw_NtCs2Zzx8WPYKXd_15otel_arrow_rust5errorINtB6_33UnsupportedDictionaryKeyTypeSnafuINtNtCshFLakfGc1jx_5alloc3vec3VecNtNtCs1YodqRmw17A_12arrow_schema8datatype8DataTypeEB1V_E4failINtNtB8_6arrays22MaybeDictArrayAccessorINtNtNtCs5YmLTPZiaZu_11arrow_array5array10byte_array16GenericByteArrayINtNtB3E_5types17GenericBinaryTypelEEEEB8_
FN:23,_RINvMsw_NtCs2Zzx8WPYKXd_15otel_arrow_rust5errorINtB6_33UnsupportedDictionaryKeyTypeSnafuINtNtCshFLakfGc1jx_5alloc3vec3VecNtNtCs1YodqRmw17A_12arrow_schema8datatype8DataTypeEB1V_E4failINtNtB8_6arrays22MaybeDictArrayAccessorINtNtNtCs5YmLTPZiaZu_11arrow_array5array10byte_array16GenericByteArrayINtNtB3E_5types17GenericStringTypelEEEEB8_
FN:23,_RINvMsw_NtCs2Zzx8WPYKXd_15otel_arrow_rust5errorINtB6_33UnsupportedDictionaryKeyTypeSnafuINtNtCshFLakfGc1jx_5alloc3vec3VecNtNtCs1YodqRmw17A_12arrow_schema8datatype8DataTypeEB1V_E4failINtNtB8_6arrays22MaybeDictArrayAccessorINtNtNtCs5YmLTPZiaZu_11arrow_array5array15primitive_array14PrimitiveArrayNtNtB3E_5types10UInt16TypeEEEB8_
FN:23,_RINvMsw_NtCs2Zzx8WPYKXd_15otel_arrow_rust5errorINtB6_33UnsupportedDictionaryKeyTypeSnafuINtNtCshFLakfGc1jx_5alloc3vec3VecNtNtCs1YodqRmw17A_12arrow_schema8datatype8DataTypeEB1V_E4failINtNtB8_6arrays22MaybeDictArrayAccessorINtNtNtCs5YmLTPZiaZu_11arrow_array5array15primitive_array14PrimitiveArrayNtNtB3E_5types10UInt32TypeEEEB8_
FN:23,_RINvMsw_NtCs2Zzx8WPYKXd_15otel_arrow_rust5errorINtB6_33UnsupportedDictionaryKeyTypeSnafuINtNtCshFLakfGc1jx_5alloc3vec3VecNtNtCs1YodqRmw17A_12arrow_schema8datatype8DataTypeEB1V_E4failINtNtB8_6arrays22MaybeDictArrayAccessorINtNtNtCs5YmLTPZiaZu_11arrow_array5array15primitive_array14PrimitiveArrayNtNtB3E_5types9Int32TypeEEEB8_
FN:23,_RINvMsw_NtCs2Zzx8WPYKXd_15otel_arrow_rust5errorINtB6_33UnsupportedDictionaryKeyTypeSnafuINtNtCshFLakfGc1jx_5alloc3vec3VecNtNtCs1YodqRmw17A_12arrow_schema8datatype8DataTypeEB1V_E4failINtNtB8_6arrays22MaybeDictArrayAccessorINtNtNtCs5YmLTPZiaZu_11arrow_array5array15primitive_array14PrimitiveArrayNtNtB3E_5types9Int64TypeEEEB8_
FN:23,_RINvMsw_NtCs2Zzx8WPYKXd_15otel_arrow_rust5errorINtB6_33UnsupportedDictionaryKeyTypeSnafuINtNtCshFLakfGc1jx_5alloc3vec3VecNtNtCs1YodqRmw17A_12arrow_schema8datatype8DataTypeEB1V_E4failINtNtB8_6arrays22MaybeDictArrayAccessorNtNtNtCs5YmLTPZiaZu_11arrow_array5array23fixed_size_binary_array20FixedSizeBinaryArrayEEB8_
FN:23,_RINvMsy_NtCs2Zzx8WPYKXd_15otel_arrow_rust5errorINtB6_35UnsupportedDictionaryValueTypeSnafuINtNtCshFLakfGc1jx_5alloc3vec3VecNtNtCs1YodqRmw17A_12arrow_schema8datatype8DataTypeEB1X_E4failINtNtB8_6arrays22MaybeDictArrayAccessorINtNtNtCs5YmLTPZiaZu_11arrow_array5array10byte_array16GenericByteArrayINtNtB3G_5types17GenericBinaryTypelEEEEB8_
FN:23,_RINvMsy_NtCs2Zzx8WPYKXd_15otel_arrow_rust5errorINtB6_35UnsupportedDictionaryValueTypeSnafuINtNtCshFLakfGc1jx_5alloc3vec3VecNtNtCs1YodqRmw17A_12arrow_schema8datatype8DataTypeEB1X_E4failINtNtB8_6arrays22MaybeDictArrayAccessorINtNtNtCs5YmLTPZiaZu_11arrow_array5array10byte_array16GenericByteArrayINtNtB3G_5types17GenericStringTypelEEEEB8_
FN:23,_RINvMsy_NtCs2Zzx8WPYKXd_15otel_arrow_rust5errorINtB6_35UnsupportedDictionaryValueTypeSnafuINtNtCshFLakfGc1jx_5alloc3vec3VecNtNtCs1YodqRmw17A_12arrow_schema8datatype8DataTypeEB1X_E4failINtNtB8_6arrays22MaybeDictArrayAccessorINtNtNtCs5YmLTPZiaZu_11arrow_array5array15primitive_array14PrimitiveArrayNtNtB3G_5types10UInt16TypeEEEB8_
FN:23,_RINvMsy_NtCs2Zzx8WPYKXd_15otel_arrow_rust5errorINtB6_35UnsupportedDictionaryValueTypeSnafuINtNtCshFLakfGc1jx_5alloc3vec3VecNtNtCs1YodqRmw17A_12arrow_schema8datatype8DataTypeEB1X_E4failINtNtB8_6arrays22MaybeDictArrayAccessorINtNtNtCs5YmLTPZiaZu_11arrow_array5array15primitive_array14PrimitiveArrayNtNtB3G_5types10UInt32TypeEEEB8_
FN:23,_RINvMsy_NtCs2Zzx8WPYKXd_15otel_arrow_rust5errorINtB6_35UnsupportedDictionaryValueTypeSnafuINtNtCshFLakfGc1jx_5alloc3vec3VecNtNtCs1YodqRmw17A_12arrow_schema8datatype8DataTypeEB1X_E4failINtNtB8_6arrays22MaybeDictArrayAccessorINtNtNtCs5YmLTPZiaZu_11arrow_array5array15primitive_array14PrimitiveArrayNtNtB3G_5types9Int32TypeEEEB8_
FN:23,_RINvMsy_NtCs2Zzx8WPYKXd_15otel_arrow_rust5errorINtB6_35UnsupportedDictionaryValueTypeSnafuINtNtCshFLakfGc1jx_5alloc3vec3VecNtNtCs1YodqRmw17A_12arrow_schema8datatype8DataTypeEB1X_E4failINtNtB8_6arrays22MaybeDictArrayAccessorINtNtNtCs5YmLTPZiaZu_11arrow_array5array15primitive_array14PrimitiveArrayNtNtB3G_5types9Int64TypeEEEB8_
FN:23,_RINvMsy_NtCs2Zzx8WPYKXd_15otel_arrow_rust5errorINtB6_35UnsupportedDictionaryValueTypeSnafuINtNtCshFLakfGc1jx_5alloc3vec3VecNtNtCs1YodqRmw17A_12arrow_schema8datatype8DataTypeEB1X_E4failINtNtB8_6arrays22MaybeDictArrayAccessorNtNtNtCs5YmLTPZiaZu_11arrow_array5array23fixed_size_binary_array20FixedSizeBinaryArrayEEB8_
FN:23,_RINvMsy_NtCs2Zzx8WPYKXd_15otel_arrow_rust5errorINtB6_35UnsupportedDictionaryValueTypeSnafuINtNtCshFLakfGc1jx_5alloc3vec3VecNtNtCs1YodqRmw17A_12arrow_schema8datatype8DataTypeEB1X_E4failNtNtB8_6arrays17ByteArrayAccessorEB8_
FN:23,_RNCNvXs2_NtCs2Zzx8WPYKXd_15otel_arrow_rust5errorINtB7_27UnrecognizedMetricTypeSnafuhEINtCs6zNvjk53Iaz_5snafu9IntoErrorNtB7_5ErrorE10into_error0B9_
FN:23,_RNCNvXs5_NtCs2Zzx8WPYKXd_15otel_arrow_rust5errorNtB7_35UnrecognizedAttributeValueTypeSnafuINtCs6zNvjk53Iaz_5snafu9IntoErrorNtB7_5ErrorE10into_error0B9_
FN:23,_RNCNvXs6_NtCs2Zzx8WPYKXd_15otel_arrow_rust5errorNtB7_36InvalidSerializedAttributeBytesSnafuINtCs6zNvjk53Iaz_5snafu9IntoErrorNtB7_5ErrorE10into_error0B9_
FN:23,_RNCNvXs7_NtCs2Zzx8WPYKXd_15otel_arrow_rust5errorNtB7_39InvalidSerializedIntAttributeValueSnafuINtCs6zNvjk53Iaz_5snafu9IntoErrorNtB7_5ErrorE10into_error0B9_
FN:23,_RNCNvXso_NtCs2Zzx8WPYKXd_15otel_arrow_rust5errorNtB7_22BuildStreamReaderSnafuINtCs6zNvjk53Iaz_5snafu9IntoErrorNtB7_5ErrorE10into_error0B9_
FN:23,_RNCNvXsp_NtCs2Zzx8WPYKXd_15otel_arrow_rust5errorNtB7_20ReadRecordBatchSnafuINtCs6zNvjk53Iaz_5snafu9IntoErrorNtB7_5ErrorE10into_error0B9_
FN:23,_RNvMs8_NtCs2Zzx8WPYKXd_15otel_arrow_rust5errorINtB5_32InvalidSerializedMapKeyTypeSnafuNtNtCs2Kc9XCowmpf_8ciborium5value5ValueE5buildB7_
FN:23,_RNvMsa_NtCs2Zzx8WPYKXd_15otel_arrow_rust5errorINtB5_40UnsupportedSerializedAttributeValueSnafuNtNtCs2Kc9XCowmpf_8ciborium5value5ValueE5buildB7_
FN:23,_RNvMsc_NtCs2Zzx8WPYKXd_15otel_arrow_rust5errorINtB5_24InvalidExemplarDataSnafuNtNtCshFLakfGc1jx_5alloc6string6StringE5buildB7_
FN:23,_RNvMse_NtCs2Zzx8WPYKXd_15otel_arrow_rust5errorINtB5_18InvalidSpanIdSnafuNtNtCshFLakfGc1jx_5alloc6string6StringE5buildB7_
FN:23,_RNvMsg_NtCs2Zzx8WPYKXd_15otel_arrow_rust5errorINtB5_19InvalidTraceIdSnafuNtNtCshFLakfGc1jx_5alloc6string6StringE5buildB7_
FN:23,_RNvMsk_NtCs2Zzx8WPYKXd_15otel_arrow_rust5errorINtB5_21InvalidListArraySnafuINtNtCshFLakfGc1jx_5alloc3vec3VecNtNtCs1YodqRmw17A_12arrow_schema8datatype8DataTypeEB1I_E5buildB7_
FN:23,_RNvMsm_NtCs2Zzx8WPYKXd_15otel_arrow_rust5errorINtB5_27UnsupportedPayloadTypeSnafuNtNtNtNtNtB7_5proto13opentelemetry5arrow2v116ArrowPayloadTypeE5buildB7_
FN:23,_RNvMsm_NtCs2Zzx8WPYKXd_15otel_arrow_rust5errorINtB5_27UnsupportedPayloadTypeSnafulE5buildB7_
FN:23,_RNvMsw_NtCs2Zzx8WPYKXd_15otel_arrow_rust5errorINtB5_33UnsupportedDictionaryKeyTypeSnafuINtNtCshFLakfGc1jx_5alloc3vec3VecNtNtCs1YodqRmw17A_12arrow_schema8datatype8DataTypeEB1U_E5buildB7_
FN:23,_RNvMsy_NtCs2Zzx8WPYKXd_15otel_arrow_rust5errorINtB5_35UnsupportedDictionaryValueTypeSnafuINtNtCshFLakfGc1jx_5alloc3vec3VecNtNtCs1YodqRmw17A_12arrow_schema8datatype8DataTypeEB1W_E5buildB7_
FN:23,_RNvXs1_NtCs2Zzx8WPYKXd_15otel_arrow_rust5errorINtB5_27ColumnDataTypeMismatchSnafuNtNtCshFLakfGc1jx_5alloc6string6StringNtNtCs1YodqRmw17A_12arrow_schema8datatype8DataTypeB1T_EINtCs6zNvjk53Iaz_5snafu9IntoErrorNtB5_5ErrorE10into_errorB7_
FN:23,_RNvXs1_NtCs2Zzx8WPYKXd_15otel_arrow_rust5errorINtB5_27ColumnDataTypeMismatchSnafuReNtNtCs1YodqRmw17A_12arrow_schema8datatype8DataTypeB1j_EINtCs6zNvjk53Iaz_5snafu9IntoErrorNtB5_5ErrorE10into_errorB7_
FN:23,_RNvXs_NtCs2Zzx8WPYKXd_15otel_arrow_rust5errorINtB4_19ColumnNotFoundSnafuNtNtCshFLakfGc1jx_5alloc6string6StringEINtCs6zNvjk53Iaz_5snafu9IntoErrorNtB4_5ErrorE10into_errorB6_
FN:23,_RNvXs_NtCs2Zzx8WPYKXd_15otel_arrow_rust5errorINtB4_19ColumnNotFoundSnafuReEINtCs6zNvjk53Iaz_5snafu9IntoErrorNtB4_5ErrorE10into_errorB6_
FN:23,_RNvXsj_NtCs2Zzx8WPYKXd_15otel_arrow_rust5errorINtB5_24InvalidQuantileTypeSnafuNtNtCshFLakfGc1jx_5alloc6string6StringEINtCs6zNvjk53Iaz_5snafu9IntoErrorNtB5_5ErrorE10into_errorB7_
FN:23,_RNvXsl_NtCs2Zzx8WPYKXd_15otel_arrow_rust5errorINtB5_21InvalidListArraySnafuINtNtCshFLakfGc1jx_5alloc3vec3VecNtNtCs1YodqRmw17A_12arrow_schema8datatype8DataTypeEB1I_EINtCs6zNvjk53Iaz_5snafu9IntoErrorNtB5_5ErrorE10into_errorB7_
FN:23,_RNvMs3_NtCs2Zzx8WPYKXd_15otel_arrow_rust5errorNtB5_20EmptyMetricTypeSnafu5build
FN:23,_RNvMsq_NtCs2Zzx8WPYKXd_15otel_arrow_rust5errorNtB5_15EmptyBatchSnafu5build
FN:23,_RNvXst_NtCs2Zzx8WPYKXd_15otel_arrow_rust5errorNtB5_22LogRecordNotFoundSnafuINtCs6zNvjk53Iaz_5snafu9IntoErrorNtB5_5ErrorE10into_error
FN:23,_RNvXsv_NtCs2Zzx8WPYKXd_15otel_arrow_rust5errorNtB5_25MetricRecordNotFoundSnafuINtCs6zNvjk53Iaz_5snafu9IntoErrorNtB5_5ErrorE10into_error
FNDA:0,_RINvMNtCs2Zzx8WPYKXd_15otel_arrow_rust5errorINtB3_19ColumnNotFoundSnafupE4failpEB5_
FNDA:0,_RINvMs0_NtCs2Zzx8WPYKXd_15otel_arrow_rust5errorINtB6_27ColumnDataTypeMismatchSnafupppE4failpEB8_
FNDA:0,_RINvMsA_NtCs2Zzx8WPYKXd_15otel_arrow_rust5errorINtB6_32UnsupportedStringColumnTypeSnafupE4failpEB8_
FNDA:0,_RINvMsC_NtCs2Zzx8WPYKXd_15otel_arrow_rust5errorINtB6_33UnsupportedStringDictKeyTypeSnafupE4failpEB8_
FNDA:0,_RINvMsi_NtCs2Zzx8WPYKXd_15otel_arrow_rust5errorINtB6_24InvalidQuantileTypeSnafupE4failpEB8_
FNDA:0,_RINvMss_NtCs2Zzx8WPYKXd_15otel_arrow_rust5errorNtB6_22LogRecordNotFoundSnafu4failpEB8_
FNDA:0,_RINvMsu_NtCs2Zzx8WPYKXd_15otel_arrow_rust5errorNtB6_25MetricRecordNotFoundSnafu4failpEB8_
FNDA:0,_RNvMNtCs2Zzx8WPYKXd_15otel_arrow_rust5errorINtB2_19ColumnNotFoundSnafupE5buildB4_
FNDA:0,_RNvMs0_NtCs2Zzx8WPYKXd_15otel_arrow_rust5errorINtB5_27ColumnDataTypeMismatchSnafupppE5buildB7_
FNDA:0,_RNvMsA_NtCs2Zzx8WPYKXd_15otel_arrow_rust5errorINtB5_32UnsupportedStringColumnTypeSnafupE5buildB7_
FNDA:0,_RNvMsC_NtCs2Zzx8WPYKXd_15otel_arrow_rust5errorINtB5_33UnsupportedStringDictKeyTypeSnafupE5buildB7_
FNDA:0,_RNvMsi_NtCs2Zzx8WPYKXd_15otel_arrow_rust5errorINtB5_24InvalidQuantileTypeSnafupE5buildB7_
FNDA:0,_RNvMss_NtCs2Zzx8WPYKXd_15otel_arrow_rust5errorNtB5_22LogRecordNotFoundSnafu5build
FNDA:0,_RNvMsu_NtCs2Zzx8WPYKXd_15otel_arrow_rust5errorNtB5_25MetricRecordNotFoundSnafu5build
FNDA:0,_RNvXININtCs2Zzx8WPYKXd_15otel_arrow_rust5errors9_0pEINtB5_32InvalidSerializedMapKeyTypeSnafupEINtCs6zNvjk53Iaz_5snafu9IntoErrorNtB5_5ErrorE10into_errorB7_
FNDA:0,_RNvXININtCs2Zzx8WPYKXd_15otel_arrow_rust5errorsB_0pEINtB5_32UnsupportedStringColumnTypeSnafupEINtCs6zNvjk53Iaz_5snafu9IntoErrorNtB5_5ErrorE10into_errorB7_
FNDA:0,_RNvXININtCs2Zzx8WPYKXd_15otel_arrow_rust5errorsD_0pEINtB5_33UnsupportedStringDictKeyTypeSnafupEINtCs6zNvjk53Iaz_5snafu9IntoErrorNtB5_5ErrorE10into_errorB7_
FNDA:0,_RNvXININtCs2Zzx8WPYKXd_15otel_arrow_rust5errorsb_0pEINtB5_40UnsupportedSerializedAttributeValueSnafupEINtCs6zNvjk53Iaz_5snafu9IntoErrorNtB5_5ErrorE10into_errorB7_
FNDA:0,_RNvXININtCs2Zzx8WPYKXd_15otel_arrow_rust5errorsd_0pEINtB5_24InvalidExemplarDataSnafupEINtCs6zNvjk53Iaz_5snafu9IntoErrorNtB5_5ErrorE10into_errorB7_
FNDA:0,_RNvXININtCs2Zzx8WPYKXd_15otel_arrow_rust5errorsf_0pEINtB5_18InvalidSpanIdSnafupEINtCs6zNvjk53Iaz_5snafu9IntoErrorNtB5_5ErrorE10into_errorB7_
FNDA:0,_RNvXININtCs2Zzx8WPYKXd_15otel_arrow_rust5errorsh_0pEINtB5_19InvalidTraceIdSnafupEINtCs6zNvjk53Iaz_5snafu9IntoErrorNtB5_5ErrorE10into_errorB7_
FNDA:0,_RNvXININtCs2Zzx8WPYKXd_15otel_arrow_rust5errorsn_0pEINtB5_27UnsupportedPayloadTypeSnafupEINtCs6zNvjk53Iaz_5snafu9IntoErrorNtB5_5ErrorE10into_errorB7_
FNDA:0,_RNvXININtCs2Zzx8WPYKXd_15otel_arrow_rust5errorsx_0ppEINtB5_33UnsupportedDictionaryKeyTypeSnafuppEINtCs6zNvjk53Iaz_5snafu9IntoErrorNtB5_5ErrorE10into_errorB7_
FNDA:0,_RNvXININtCs2Zzx8WPYKXd_15otel_arrow_rust5errorsz_0ppEINtB5_35UnsupportedDictionaryValueTypeSnafuppEINtCs6zNvjk53Iaz_5snafu9IntoErrorNtB5_5ErrorE10into_errorB7_
FNDA:0,_RNvXs4_NtCs2Zzx8WPYKXd_15otel_arrow_rust5errorNtB5_20EmptyMetricTypeSnafuINtCs6zNvjk53Iaz_5snafu9IntoErrorNtB5_5ErrorE10into_error
FNDA:0,_RNvXsr_NtCs2Zzx8WPYKXd_15otel_arrow_rust5errorNtB5_15EmptyBatchSnafuINtCs6zNvjk53Iaz_5snafu9IntoErrorNtB5_5ErrorE10into_error
FNDA:0,_RINvMs3_NtCs2Zzx8WPYKXd_15otel_arrow_rust5errorNtB6_20EmptyMetricTypeSnafu4failNtNtNtNtNtNtB8_5proto13opentelemetry9collector7metrics2v127ExportMetricsServiceRequestEB8_
FNDA:0,_RINvMs8_NtCs2Zzx8WPYKXd_15otel_arrow_rust5errorINtB6_32InvalidSerializedMapKeyTypeSnafuNtNtCs2Kc9XCowmpf_8ciborium5value5ValueE4failNtNtNtNtNtB8_5proto13opentelemetry6common2v18KeyValueEB8_
FNDA:0,_RINvMsa_NtCs2Zzx8WPYKXd_15otel_arrow_rust5errorINtB6_40UnsupportedSerializedAttributeValueSnafuNtNtCs2Kc9XCowmpf_8ciborium5value5ValueE4failNtNtNtNtB8_4otlp10attributes4cbor10MaybeValueEB8_
FNDA:0,_RINvMsc_NtCs2Zzx8WPYKXd_15otel_arrow_rust5errorINtB6_24InvalidExemplarDataSnafuNtNtCshFLakfGc1jx_5alloc6string6StringE4failNtNtNtNtB8_4otlp7metrics8exemplar14ExemplarsStoreEB8_
FNDA:0,_RINvMse_NtCs2Zzx8WPYKXd_15otel_arrow_rust5errorINtB6_18InvalidSpanIdSnafuNtNtCshFLakfGc1jx_5alloc6string6StringE4failNtNtNtNtB8_4otlp7metrics8exemplar14ExemplarsStoreEB8_
FNDA:0,_RINvMse_NtCs2Zzx8WPYKXd_15otel_arrow_rust5errorINtB6_18InvalidSpanIdSnafuNtNtCshFLakfGc1jx_5alloc6string6StringE4failNtNtNtNtNtNtB8_5proto13opentelemetry9collector4logs2v124ExportLogsServiceRequestEB8_
FNDA:0,_RINvMsg_NtCs2Zzx8WPYKXd_15otel_arrow_rust5errorINtB6_19InvalidTraceIdSnafuNtNtCshFLakfGc1jx_5alloc6string6StringE4failNtNtNtNtB8_4otlp7metrics8exemplar14ExemplarsStoreEB8_
FNDA:0,_RINvMsg_NtCs2Zzx8WPYKXd_15otel_arrow_rust5errorINtB6_19InvalidTraceIdSnafuNtNtCshFLakfGc1jx_5alloc6string6StringE4failNtNtNtNtNtNtB8_5proto13opentelemetry9collector4logs2v124ExportLogsServiceRequestEB8_
FNDA:0,_RINvMsk_NtCs2Zzx8WPYKXd_15otel_arrow_rust5errorINtB6_21InvalidListArraySnafuINtNtCshFLakfGc1jx_5alloc3vec3VecNtNtCs1YodqRmw17A_12arrow_schema8datatype8DataTypeEB1J_E4failINtNtB8_6arrays22MaybeDictArrayAccessorINtNtNtCs5YmLTPZiaZu_11arrow_array5array10byte_array16GenericByteArrayINtNtB3s_5types17GenericBinaryTypelEEEEB8_
FNDA:0,_RINvMsk_NtCs2Zzx8WPYKXd_15otel_arrow_rust5errorINtB6_21InvalidListArraySnafuINtNtCshFLakfGc1jx_5alloc3vec3VecNtNtCs1YodqRmw17A_12arrow_schema8datatype8DataTypeEB1J_E4failINtNtB8_6arrays22MaybeDictArrayAccessorINtNtNtCs5YmLTPZiaZu_11arrow_array5array10byte_array16GenericByteArrayINtNtB3s_5types17GenericStringTypelEEEEB8_
FNDA:0,_RINvMsk_NtCs2Zzx8WPYKXd_15otel_arrow_rust5errorINtB6_21InvalidListArraySnafuINtNtCshFLakfGc1jx_5alloc3vec3VecNtNtCs1YodqRmw17A_12arrow_schema8datatype8DataTypeEB1J_E4failINtNtB8_6arrays22MaybeDictArrayAccessorINtNtNtCs5YmLTPZiaZu_11arrow_array5array15primitive_array14PrimitiveArrayNtNtB3s_5types10UInt16TypeEEEB8_
FNDA:0,_RINvMsk_NtCs2Zzx8WPYKXd_15otel_arrow_rust5errorINtB6_21InvalidListArraySnafuINtNtCshFLakfGc1jx_5alloc3vec3VecNtNtCs1YodqRmw17A_12arrow_schema8datatype8DataTypeEB1J_E4failINtNtB8_6arrays22MaybeDictArrayAccessorINtNtNtCs5YmLTPZiaZu_11arrow_array5array15primitive_array14PrimitiveArrayNtNtB3s_5types10UInt32TypeEEEB8_
FNDA:0,_RINvMsk_NtCs2Zzx8WPYKXd_15otel_arrow_rust5errorINtB6_21InvalidListArraySnafuINtNtCshFLakfGc1jx_5alloc3vec3VecNtNtCs1YodqRmw17A_12arrow_schema8datatype8DataTypeEB1J_E4failINtNtB8_6arrays22MaybeDictArrayAccessorINtNtNtCs5YmLTPZiaZu_11arrow_array5array15primitive_array14PrimitiveArrayNtNtB3s_5types9Int32TypeEEEB8_
FNDA:0,_RINvMsk_NtCs2Zzx8WPYKXd_15otel_arrow_rust5errorINtB6_21InvalidListArraySnafuINtNtCshFLakfGc1jx_5alloc3vec3VecNtNtCs1YodqRmw17A_12arrow_schema8datatype8DataTypeEB1J_E4failINtNtB8_6arrays22MaybeDictArrayAccessorINtNtNtCs5YmLTPZiaZu_11arrow_array5array15primitive_array14PrimitiveArrayNtNtB3s_5types9Int64TypeEEEB8_
FNDA:0,_RINvMsk_NtCs2Zzx8WPYKXd_15otel_arrow_rust5errorINtB6_21InvalidListArraySnafuINtNtCshFLakfGc1jx_5alloc3vec3VecNtNtCs1YodqRmw17A_12arrow_schema8datatype8DataTypeEB1J_E4failINtNtB8_6arrays22MaybeDictArrayAccessorNtNtNtCs5YmLTPZiaZu_11arrow_array5array23fixed_size_binary_array20FixedSizeBinaryArrayEEB8_
FNDA:0,_RINvMsk_NtCs2Zzx8WPYKXd_15otel_arrow_rust5errorINtB6_21InvalidListArraySnafuINtNtCshFLakfGc1jx_5alloc3vec3VecNtNtCs1YodqRmw17A_12arrow_schema8datatype8DataTypeEB1J_E4failNtNtB8_6arrays17ByteArrayAccessorEB8_
FNDA:0,_RINvMsm_NtCs2Zzx8WPYKXd_15otel_arrow_rust5errorINtB6_27UnsupportedPayloadTypeSnafuNtNtNtNtNtB8_5proto13opentelemetry5arrow2v116ArrowPayloadTypeE4failNtNtNtNtB1o_9collector4logs2v124ExportLogsServiceRequestEB8_
FNDA:0,_RINvMsm_NtCs2Zzx8WPYKXd_15otel_arrow_rust5errorINtB6_27UnsupportedPayloadTypeSnafuNtNtNtNtNtB8_5proto13opentelemetry5arrow2v116ArrowPayloadTypeE4failNtNtNtNtB1o_9collector7metrics2v127ExportMetricsServiceRequestEB8_
FNDA:0,_RINvMsm_NtCs2Zzx8WPYKXd_15otel_arrow_rust5errorINtB6_27UnsupportedPayloadTypeSnafuNtNtNtNtNtB8_5proto13opentelemetry5arrow2v116ArrowPayloadTypeE4failTNtNtNtNtB8_4otlp4logs12related_data11RelatedDataINtNtCs8sCtDi7t2F4_4core6option6OptionjEEEB8_
FNDA:0,_RINvMsm_NtCs2Zzx8WPYKXd_15otel_arrow_rust5errorINtB6_27UnsupportedPayloadTypeSnafuNtNtNtNtNtB8_5proto13opentelemetry5arrow2v116ArrowPayloadTypeE4failTNtNtNtNtB8_4otlp7metrics12related_data11RelatedDataINtNtCs8sCtDi7t2F4_4core6option6OptionjEEEB8_
FNDA:0,_RINvMsq_NtCs2Zzx8WPYKXd_15otel_arrow_rust5errorNtB6_15EmptyBatchSnafu4failNtNtNtNtNtB8_5proto13opentelemetry5arrow2v116ArrowPayloadTypeEB8_
FNDA:0,_RINvMsw_NtCs2Zzx8WPYKXd_15otel_arrow_rust5errorINtB6_33UnsupportedDictionaryKeyTypeSnafuINtNtCshFLakfGc1jx_5alloc3vec3VecNtNtCs1YodqRmw17A_12arrow_schema8datatype8DataTypeEB1V_E4failINtNtB8_6arrays22MaybeDictArrayAccessorINtNtNtCs5YmLTPZiaZu_11arrow_array5array10byte_array16GenericByteArrayINtNtB3E_5types17GenericBinaryTypelEEEEB8_
FNDA:0,_RINvMsw_NtCs2Zzx8WPYKXd_15otel_arrow_rust5errorINtB6_33UnsupportedDictionaryKeyTypeSnafuINtNtCshFLakfGc1jx_5alloc3vec3VecNtNtCs1YodqRmw17A_12arrow_schema8datatype8DataTypeEB1V_E4failINtNtB8_6arrays22MaybeDictArrayAccessorINtNtNtCs5YmLTPZiaZu_11arrow_array5array10byte_array16GenericByteArrayINtNtB3E_5types17GenericStringTypelEEEEB8_
FNDA:0,_RINvMsw_NtCs2Zzx8WPYKXd_15otel_arrow_rust5errorINtB6_33UnsupportedDictionaryKeyTypeSnafuINtNtCshFLakfGc1jx_5alloc3vec3VecNtNtCs1YodqRmw17A_12arrow_schema8datatype8DataTypeEB1V_E4failINtNtB8_6arrays22MaybeDictArrayAccessorINtNtNtCs5YmLTPZiaZu_11arrow_array5array15primitive_array14PrimitiveArrayNtNtB3E_5types10UInt16TypeEEEB8_
FNDA:0,_RINvMsw_NtCs2Zzx8WPYKXd_15otel_arrow_rust5errorINtB6_33UnsupportedDictionaryKeyTypeSnafuINtNtCshFLakfGc1jx_5alloc3vec3VecNtNtCs1YodqRmw17A_12arrow_schema8datatype8DataTypeEB1V_E4failINtNtB8_6arrays22MaybeDictArrayAccessorINtNtNtCs5YmLTPZiaZu_11arrow_array5array15primitive_array14PrimitiveArrayNtNtB3E_5types10UInt32TypeEEEB8_
FNDA:0,_RINvMsw_NtCs2Zzx8WPYKXd_15otel_arrow_rust5errorINtB6_33UnsupportedDictionaryKeyTypeSnafuINtNtCshFLakfGc1jx_5alloc3vec3VecNtNtCs1YodqRmw17A_12arrow_schema8datatype8DataTypeEB1V_E4failINtNtB8_6arrays22MaybeDictArrayAccessorINtNtNtCs5YmLTPZiaZu_11arrow_array5array15primitive_array14PrimitiveArrayNtNtB3E_5types9Int32TypeEEEB8_
FNDA:0,_RINvMsw_NtCs2Zzx8WPYKXd_15otel_arrow_rust5errorINtB6_33UnsupportedDictionaryKeyTypeSnafuINtNtCshFLakfGc1jx_5alloc3vec3VecNtNtCs1YodqRmw17A_12arrow_schema8datatype8DataTypeEB1V_E4failINtNtB8_6arrays22MaybeDictArrayAccessorINtNtNtCs5YmLTPZiaZu_11arrow_array5array15primitive_array14PrimitiveArrayNtNtB3E_5types9Int64TypeEEEB8_
FNDA:0,_RINvMsw_NtCs2Zzx8WPYKXd_15otel_arrow_rust5errorINtB6_33UnsupportedDictionaryKeyTypeSnafuINtNtCshFLakfGc1jx_5alloc3vec3VecNtNtCs1YodqRmw17A_12arrow_schema8datatype8DataTypeEB1V_E4failINtNtB8_6arrays22MaybeDictArrayAccessorNtNtNtCs5YmLTPZiaZu_11arrow_array5array23fixed_size_binary_array20FixedSizeBinaryArrayEEB8_
FNDA:0,_RINvMsy_NtCs2Zzx8WPYKXd_15otel_arrow_rust5errorINtB6_35UnsupportedDictionaryValueTypeSnafuINtNtCshFLakfGc1jx_5alloc3vec3VecNtNtCs1YodqRmw17A_12arrow_schema8datatype8DataTypeEB1X_E4failINtNtB8_6arrays22MaybeDictArrayAccessorINtNtNtCs5YmLTPZiaZu_11arrow_array5array10byte_array16GenericByteArrayINtNtB3G_5types17GenericBinaryTypelEEEEB8_
FNDA:0,_RINvMsy_NtCs2Zzx8WPYKXd_15otel_arrow_rust5errorINtB6_35UnsupportedDictionaryValueTypeSnafuINtNtCshFLakfGc1jx_5alloc3vec3VecNtNtCs1YodqRmw17A_12arrow_schema8datatype8DataTypeEB1X_E4failINtNtB8_6arrays22MaybeDictArrayAccessorINtNtNtCs5YmLTPZiaZu_11arrow_array5array10byte_array16GenericByteArrayINtNtB3G_5types17GenericStringTypelEEEEB8_
FNDA:0,_RINvMsy_NtCs2Zzx8WPYKXd_15otel_arrow_rust5errorINtB6_35UnsupportedDictionaryValueTypeSnafuINtNtCshFLakfGc1jx_5alloc3vec3VecNtNtCs1YodqRmw17A_12arrow_schema8datatype8DataTypeEB1X_E4failINtNtB8_6arrays22MaybeDictArrayAccessorINtNtNtCs5YmLTPZiaZu_11arrow_array5array15primitive_array14PrimitiveArrayNtNtB3G_5types10UInt16TypeEEEB8_
FNDA:0,_RINvMsy_NtCs2Zzx8WPYKXd_15otel_arrow_rust5errorINtB6_35UnsupportedDictionaryValueTypeSnafuINtNtCshFLakfGc1jx_5alloc3vec3VecNtNtCs1YodqRmw17A_12arrow_schema8datatype8DataTypeEB1X_E4failINtNtB8_6arrays22MaybeDictArrayAccessorINtNtNtCs5YmLTPZiaZu_11arrow_array5array15primitive_array14PrimitiveArrayNtNtB3G_5types10UInt32TypeEEEB8_
FNDA:0,_RINvMsy_NtCs2Zzx8WPYKXd_15otel_arrow_rust5errorINtB6_35UnsupportedDictionaryValueTypeSnafuINtNtCshFLakfGc1jx_5alloc3vec3VecNtNtCs1YodqRmw17A_12arrow_schema8datatype8DataTypeEB1X_E4failINtNtB8_6arrays22MaybeDictArrayAccessorINtNtNtCs5YmLTPZiaZu_11arrow_array5array15primitive_array14PrimitiveArrayNtNtB3G_5types9Int32TypeEEEB8_
FNDA:0,_RINvMsy_NtCs2Zzx8WPYKXd_15otel_arrow_rust5errorINtB6_35UnsupportedDictionaryValueTypeSnafuINtNtCshFLakfGc1jx_5alloc3vec3VecNtNtCs1YodqRmw17A_12arrow_schema8datatype8DataTypeEB1X_E4failINtNtB8_6arrays22MaybeDictArrayAccessorINtNtNtCs5YmLTPZiaZu_11arrow_array5array15primitive_array14PrimitiveArrayNtNtB3G_5types9Int64TypeEEEB8_
FNDA:0,_RINvMsy_NtCs2Zzx8WPYKXd_15otel_arrow_rust5errorINtB6_35UnsupportedDictionaryValueTypeSnafuINtNtCshFLakfGc1jx_5alloc3vec3VecNtNtCs1YodqRmw17A_12arrow_schema8datatype8DataTypeEB1X_E4failINtNtB8_6arrays22MaybeDictArrayAccessorNtNtNtCs5YmLTPZiaZu_11arrow_array5array23fixed_size_binary_array20FixedSizeBinaryArrayEEB8_
FNDA:0,_RINvMsy_NtCs2Zzx8WPYKXd_15otel_arrow_rust5errorINtB6_35UnsupportedDictionaryValueTypeSnafuINtNtCshFLakfGc1jx_5alloc3vec3VecNtNtCs1YodqRmw17A_12arrow_schema8datatype8DataTypeEB1X_E4failNtNtB8_6arrays17ByteArrayAccessorEB8_
FNDA:0,_RNCNvXs2_NtCs2Zzx8WPYKXd_15otel_arrow_rust5errorINtB7_27UnrecognizedMetricTypeSnafuhEINtCs6zNvjk53Iaz_5snafu9IntoErrorNtB7_5ErrorE10into_error0B9_
FNDA:0,_RNCNvXs5_NtCs2Zzx8WPYKXd_15otel_arrow_rust5errorNtB7_35UnrecognizedAttributeValueTypeSnafuINtCs6zNvjk53Iaz_5snafu9IntoErrorNtB7_5ErrorE10into_error0B9_
FNDA:0,_RNCNvXs6_NtCs2Zzx8WPYKXd_15otel_arrow_rust5errorNtB7_36InvalidSerializedAttributeBytesSnafuINtCs6zNvjk53Iaz_5snafu9IntoErrorNtB7_5ErrorE10into_error0B9_
FNDA:0,_RNCNvXs7_NtCs2Zzx8WPYKXd_15otel_arrow_rust5errorNtB7_39InvalidSerializedIntAttributeValueSnafuINtCs6zNvjk53Iaz_5snafu9IntoErrorNtB7_5ErrorE10into_error0B9_
FNDA:0,_RNCNvXso_NtCs2Zzx8WPYKXd_15otel_arrow_rust5errorNtB7_22BuildStreamReaderSnafuINtCs6zNvjk53Iaz_5snafu9IntoErrorNtB7_5ErrorE10into_error0B9_
FNDA:0,_RNCNvXsp_NtCs2Zzx8WPYKXd_15otel_arrow_rust5errorNtB7_20ReadRecordBatchSnafuINtCs6zNvjk53Iaz_5snafu9IntoErrorNtB7_5ErrorE10into_error0B9_
FNDA:0,_RNvMs8_NtCs2Zzx8WPYKXd_15otel_arrow_rust5errorINtB5_32InvalidSerializedMapKeyTypeSnafuNtNtCs2Kc9XCowmpf_8ciborium5value5ValueE5buildB7_
FNDA:0,_RNvMsa_NtCs2Zzx8WPYKXd_15otel_arrow_rust5errorINtB5_40UnsupportedSerializedAttributeValueSnafuNtNtCs2Kc9XCowmpf_8ciborium5value5ValueE5buildB7_
FNDA:0,_RNvMsc_NtCs2Zzx8WPYKXd_15otel_arrow_rust5errorINtB5_24InvalidExemplarDataSnafuNtNtCshFLakfGc1jx_5alloc6string6StringE5buildB7_
FNDA:0,_RNvMse_NtCs2Zzx8WPYKXd_15otel_arrow_rust5errorINtB5_18InvalidSpanIdSnafuNtNtCshFLakfGc1jx_5alloc6string6StringE5buildB7_
FNDA:0,_RNvMsg_NtCs2Zzx8WPYKXd_15otel_arrow_rust5errorINtB5_19InvalidTraceIdSnafuNtNtCshFLakfGc1jx_5alloc6string6StringE5buildB7_
FNDA:0,_RNvMsk_NtCs2Zzx8WPYKXd_15otel_arrow_rust5errorINtB5_21InvalidListArraySnafuINtNtCshFLakfGc1jx_5alloc3vec3VecNtNtCs1YodqRmw17A_12arrow_schema8datatype8DataTypeEB1I_E5buildB7_
FNDA:0,_RNvMsm_NtCs2Zzx8WPYKXd_15otel_arrow_rust5errorINtB5_27UnsupportedPayloadTypeSnafuNtNtNtNtNtB7_5proto13opentelemetry5arrow2v116ArrowPayloadTypeE5buildB7_
FNDA:0,_RNvMsm_NtCs2Zzx8WPYKXd_15otel_arrow_rust5errorINtB5_27UnsupportedPayloadTypeSnafulE5buildB7_
FNDA:0,_RNvMsw_NtCs2Zzx8WPYKXd_15otel_arrow_rust5errorINtB5_33UnsupportedDictionaryKeyTypeSnafuINtNtCshFLakfGc1jx_5alloc3vec3VecNtNtCs1YodqRmw17A_12arrow_schema8datatype8DataTypeEB1U_E5buildB7_
FNDA:0,_RNvMsy_NtCs2Zzx8WPYKXd_15otel_arrow_rust5errorINtB5_35UnsupportedDictionaryValueTypeSnafuINtNtCshFLakfGc1jx_5alloc3vec3VecNtNtCs1YodqRmw17A_12arrow_schema8datatype8DataTypeEB1W_E5buildB7_
FNDA:0,_RNvXs1_NtCs2Zzx8WPYKXd_15otel_arrow_rust5errorINtB5_27ColumnDataTypeMismatchSnafuNtNtCshFLakfGc1jx_5alloc6string6StringNtNtCs1YodqRmw17A_12arrow_schema8datatype8DataTypeB1T_EINtCs6zNvjk53Iaz_5snafu9IntoErrorNtB5_5ErrorE10into_errorB7_
FNDA:0,_RNvXs1_NtCs2Zzx8WPYKXd_15otel_arrow_rust5errorINtB5_27ColumnDataTypeMismatchSnafuReNtNtCs1YodqRmw17A_12arrow_schema8datatype8DataTypeB1j_EINtCs6zNvjk53Iaz_5snafu9IntoErrorNtB5_5ErrorE10into_errorB7_
FNDA:0,_RNvXs_NtCs2Zzx8WPYKXd_15otel_arrow_rust5errorINtB4_19ColumnNotFoundSnafuNtNtCshFLakfGc1jx_5alloc6string6StringEINtCs6zNvjk53Iaz_5snafu9IntoErrorNtB4_5ErrorE10into_errorB6_
FNDA:0,_RNvXs_NtCs2Zzx8WPYKXd_15otel_arrow_rust5errorINtB4_19ColumnNotFoundSnafuReEINtCs6zNvjk53Iaz_5snafu9IntoErrorNtB4_5ErrorE10into_errorB6_
FNDA:0,_RNvXsj_NtCs2Zzx8WPYKXd_15otel_arrow_rust5errorINtB5_24InvalidQuantileTypeSnafuNtNtCshFLakfGc1jx_5alloc6string6StringEINtCs6zNvjk53Iaz_5snafu9IntoErrorNtB5_5ErrorE10into_errorB7_
FNDA:0,_RNvXsl_NtCs2Zzx8WPYKXd_15otel_arrow_rust5errorINtB5_21InvalidListArraySnafuINtNtCshFLakfGc1jx_5alloc3vec3VecNtNtCs1YodqRmw17A_12arrow_schema8datatype8DataTypeEB1I_EINtCs6zNvjk53Iaz_5snafu9IntoErrorNtB5_5ErrorE10into_errorB7_
FNDA:0,_RNvMs3_NtCs2Zzx8WPYKXd_15otel_arrow_rust5errorNtB5_20EmptyMetricTypeSnafu5build
FNDA:0,_RNvMsq_NtCs2Zzx8WPYKXd_15otel_arrow_rust5errorNtB5_15EmptyBatchSnafu5build
FNDA:0,_RNvXst_NtCs2Zzx8WPYKXd_15otel_arrow_rust5errorNtB5_22LogRecordNotFoundSnafuINtCs6zNvjk53Iaz_5snafu9IntoErrorNtB5_5ErrorE10into_error
FNDA:0,_RNvXsv_NtCs2Zzx8WPYKXd_15otel_arrow_rust5errorNtB5_25MetricRecordNotFoundSnafuINtCs6zNvjk53Iaz_5snafu9IntoErrorNtB5_5ErrorE10into_error
FNF:1
FNH:0
DA:23,0
BRF:0
BRH:0
LF:1
LH:0
end_of_record
SF:/Users/d.dahl/code/otel-arrow/rust/otel-arrow-rust/src/otlp/attributes/cbor.rs
FN:63,_RNCNvXs0_NtNtNtCs2Zzx8WPYKXd_15otel_arrow_rust4otlp10attributes4cborNtNtNtNtNtNtBd_5proto13opentelemetry6common2v19any_value5ValueINtNtCs8sCtDi7t2F4_4core7convert7TryFromINtNtCshFLakfGc1jx_5alloc3vec3VecNtNtCs2Kc9XCowmpf_8ciborium5value5ValueEE8try_from0Bd_
FN:82,_RNCNvXs1_NtNtNtCs2Zzx8WPYKXd_15otel_arrow_rust4otlp10attributes4cborNtNtNtNtNtNtBd_5proto13opentelemetry6common2v19any_value5ValueINtNtCs8sCtDi7t2F4_4core7convert7TryFromINtNtCshFLakfGc1jx_5alloc3vec3VecTNtNtCs2Kc9XCowmpf_8ciborium5value5ValueB3g_EEE8try_from0Bd_
FN:25,_RNvXNtNtNtCs2Zzx8WPYKXd_15otel_arrow_rust4otlp10attributes4cborINtNtCs8sCtDi7t2F4_4core6option6OptionNtNtNtNtNtNtB8_5proto13opentelemetry6common2v19any_value5ValueEINtNtB14_7convert4FromNtB2_10MaybeValueE4from
FN:12,_RNvNtNtNtCs2Zzx8WPYKXd_15otel_arrow_rust4otlp10attributes4cbor18decode_pcommon_val
FN:33,_RNvXs_NtNtNtCs2Zzx8WPYKXd_15otel_arrow_rust4otlp10attributes4cborNtB4_10MaybeValueINtNtCs8sCtDi7t2F4_4core7convert7TryFromNtNtCs2Kc9XCowmpf_8ciborium5value5ValueE8try_from
FN:60,_RNvXs0_NtNtNtCs2Zzx8WPYKXd_15otel_arrow_rust4otlp10attributes4cborNtNtNtNtNtNtBb_5proto13opentelemetry6common2v19any_value5ValueINtNtCs8sCtDi7t2F4_4core7convert7TryFromINtNtCshFLakfGc1jx_5alloc3vec3VecNtNtCs2Kc9XCowmpf_8ciborium5value5ValueEE8try_from
FN:77,_RNvXs1_NtNtNtCs2Zzx8WPYKXd_15otel_arrow_rust4otlp10attributes4cborNtNtNtNtNtNtBb_5proto13opentelemetry6common2v19any_value5ValueINtNtCs8sCtDi7t2F4_4core7convert7TryFromINtNtCshFLakfGc1jx_5alloc3vec3VecTNtNtCs2Kc9XCowmpf_8ciborium5value5ValueB3e_EEE8try_from
FNDA:6,_RNCNvXs0_NtNtNtCs2Zzx8WPYKXd_15otel_arrow_rust4otlp10attributes4cborNtNtNtNtNtNtBd_5proto13opentelemetry6common2v19any_value5ValueINtNtCs8sCtDi7t2F4_4core7convert7TryFromINtNtCshFLakfGc1jx_5alloc3vec3VecNtNtCs2Kc9XCowmpf_8ciborium5value5ValueEE8try_from0Bd_
FNDA:10,_RNCNvXs1_NtNtNtCs2Zzx8WPYKXd_15otel_arrow_rust4otlp10attributes4cborNtNtNtNtNtNtBd_5proto13opentelemetry6common2v19any_value5ValueINtNtCs8sCtDi7t2F4_4core7convert7TryFromINtNtCshFLakfGc1jx_5alloc3vec3VecTNtNtCs2Kc9XCowmpf_8ciborium5value5ValueB3g_EEE8try_from0Bd_
FNDA:20,_RNvXNtNtNtCs2Zzx8WPYKXd_15otel_arrow_rust4otlp10attributes4cborINtNtCs8sCtDi7t2F4_4core6option6OptionNtNtNtNtNtNtB8_5proto13opentelemetry6common2v19any_value5ValueEINtNtB14_7convert4FromNtB2_10MaybeValueE4from
FNDA:4,_RNvNtNtNtCs2Zzx8WPYKXd_15otel_arrow_rust4otlp10attributes4cbor18decode_pcommon_val
FNDA:20,_RNvXs_NtNtNtCs2Zzx8WPYKXd_15otel_arrow_rust4otlp10attributes4cborNtB4_10MaybeValueINtNtCs8sCtDi7t2F4_4core7convert7TryFromNtNtCs2Kc9XCowmpf_8ciborium5value5ValueE8try_from
FNDA:3,_RNvXs0_NtNtNtCs2Zzx8WPYKXd_15otel_arrow_rust4otlp10attributes4cborNtNtNtNtNtNtBb_5proto13opentelemetry6common2v19any_value5ValueINtNtCs8sCtDi7t2F4_4core7convert7TryFromINtNtCshFLakfGc1jx_5alloc3vec3VecNtNtCs2Kc9XCowmpf_8ciborium5value5ValueEE8try_from
FNDA:3,_RNvXs1_NtNtNtCs2Zzx8WPYKXd_15otel_arrow_rust4otlp10attributes4cborNtNtNtNtNtNtBb_5proto13opentelemetry6common2v19any_value5ValueINtNtCs8sCtDi7t2F4_4core7convert7TryFromINtNtCshFLakfGc1jx_5alloc3vec3VecTNtNtCs2Kc9XCowmpf_8ciborium5value5ValueB3e_EEE8try_from
FNF:7
FNH:7
DA:12,4
DA:13,4
DA:14,4
DA:16,4
DA:17,4
DA:25,20
DA:26,20
DA:27,20
DA:33,20
DA:34,20
DA:35,1
DA:36,6
DA:37,1
DA:38,1
DA:39,1
DA:40,4
DA:41,4
DA:42,4
DA:43,4
DA:45,3
DA:46,3
DA:47,0
DA:48,0
DA:52,20
DA:53,20
DA:60,3
DA:61,3
DA:62,3
DA:63,6
DA:64,6
DA:65,0
DA:66,6
DA:67,3
DA:68,3
DA:69,3
DA:70,3
DA:77,3
DA:78,3
DA:79,3
DA:80,3
DA:81,3
DA:82,10
DA:83,10
DA:84,10
DA:85,10
DA:86,0
DA:89,0
DA:91,10
DA:92,3
DA:93,3
DA:94,3
DA:95,3
BRF:0
BRH:0
LF:56
LH:51
end_of_record
SF:/Users/d.dahl/code/otel-arrow/rust/otel-arrow-rust/src/otlp/attributes/decoder.rs
FN:52,_RNvMs_NtNtNtCs2Zzx8WPYKXd_15otel_arrow_rust4otlp10attributes7decoderINtB4_20AttrsParentIdDecodermE6decodeBa_
FN:52,_RNvMs_NtNtNtCs2Zzx8WPYKXd_15otel_arrow_rust4otlp10attributes7decoderINtB4_20AttrsParentIdDecodertE6decodeBa_
FN:39,_RNvXNtNtNtCs2Zzx8WPYKXd_15otel_arrow_rust4otlp10attributes7decoderINtB2_20AttrsParentIdDecodermENtNtCs8sCtDi7t2F4_4core7default7Default7defaultB8_
FN:39,_RNvXNtNtNtCs2Zzx8WPYKXd_15otel_arrow_rust4otlp10attributes7decoderINtB2_20AttrsParentIdDecodertENtNtCs8sCtDi7t2F4_4core7default7Default7defaultB8_
FNDA:1,_RNvMs_NtNtNtCs2Zzx8WPYKXd_15otel_arrow_rust4otlp10attributes7decoderINtB4_20AttrsParentIdDecodermE6decodeBa_
FNDA:5,_RNvMs_NtNtNtCs2Zzx8WPYKXd_15otel_arrow_rust4otlp10attributes7decoderINtB4_20AttrsParentIdDecodertE6decodeBa_
FNDA:1,_RNvXNtNtNtCs2Zzx8WPYKXd_15otel_arrow_rust4otlp10attributes7decoderINtB2_20AttrsParentIdDecodermENtNtCs8sCtDi7t2F4_4core7default7Default7defaultB8_
FNDA:5,_RNvXNtNtNtCs2Zzx8WPYKXd_15otel_arrow_rust4otlp10attributes7decoderINtB2_20AttrsParentIdDecodertENtNtCs8sCtDi7t2F4_4core7default7Default7defaultB8_
FNF:2
FNH:2
DA:39,6
DA:40,6
DA:41,6
DA:42,6
DA:43,6
DA:44,6
DA:45,6
DA:52,6
DA:53,6
DA:54,0
DA:55,0
DA:56,0
DA:58,6
DA:59,6
DA:60,6
DA:61,6
DA:63,6
BRF:0
BRH:0
LF:17
LH:14
end_of_record
SF:/Users/d.dahl/code/otel-arrow/rust/otel-arrow-rust/src/otlp/attributes/parent_id.rs
FN:29,_RNvXNtNtNtCs2Zzx8WPYKXd_15otel_arrow_rust4otlp10attributes9parent_idtNtB2_8ParentId11new_decoder
FN:37,_RNvXs_NtNtNtCs2Zzx8WPYKXd_15otel_arrow_rust4otlp10attributes9parent_idmNtB4_8ParentId11new_decoder
FNDA:5,_RNvXNtNtNtCs2Zzx8WPYKXd_15otel_arrow_rust4otlp10attributes9parent_idtNtB2_8ParentId11new_decoder
FNDA:1,_RNvXs_NtNtNtCs2Zzx8WPYKXd_15otel_arrow_rust4otlp10attributes9parent_idmNtB4_8ParentId11new_decoder
FNF:2
FNH:2
DA:29,5
DA:30,5
DA:31,5
DA:37,1
DA:38,1
DA:39,1
BRF:0
BRH:0
LF:6
LH:6
end_of_record
SF:/Users/d.dahl/code/otel-arrow/rust/otel-arrow-rust/src/otlp/attributes/store.rs
FN:63,_RNCNvMNtNtNtCs2Zzx8WPYKXd_15otel_arrow_rust4otlp10attributes5storeINtB4_14AttributeStoremE15attribute_by_id0Ba_
FN:59,_RNCNvMNtNtNtCs2Zzx8WPYKXd_15otel_arrow_rust4otlp10attributes5storeINtB4_14AttributeStoremE21attribute_by_delta_id0Ba_
FN:63,_RNCNvMNtNtNtCs2Zzx8WPYKXd_15otel_arrow_rust4otlp10attributes5storeINtB4_14AttributeStoretE15attribute_by_id0Ba_
FN:59,_RNCNvMNtNtNtCs2Zzx8WPYKXd_15otel_arrow_rust4otlp10attributes5storeINtB4_14AttributeStoretE21attribute_by_delta_id0Ba_
FN:171,_RNCNvXs0_NtNtNtCs2Zzx8WPYKXd_15otel_arrow_rust4otlp10attributes5storeINtNtCshFLakfGc1jx_5alloc3vec3VecNtNtNtNtNtBd_5proto13opentelemetry6common2v18KeyValueEINtB7_17FindOrAppendValueINtNtCs8sCtDi7t2F4_4core6option6OptionNtB1E_8AnyValueEE14find_or_append0Bd_
FN:62,_RNvMNtNtNtCs2Zzx8WPYKXd_15otel_arrow_rust4otlp10attributes5storeINtB2_14AttributeStoremE15attribute_by_idB8_
FN:55,_RNvMNtNtNtCs2Zzx8WPYKXd_15otel_arrow_rust4otlp10attributes5storeINtB2_14AttributeStoremE21attribute_by_delta_idB8_
FN:62,_RNvMNtNtNtCs2Zzx8WPYKXd_15otel_arrow_rust4otlp10attributes5storeINtB2_14AttributeStoretE15attribute_by_idB8_
FN:55,_RNvMNtNtNtCs2Zzx8WPYKXd_15otel_arrow_rust4otlp10attributes5storeINtB2_14AttributeStoretE21attribute_by_delta_idB8_
FN:75,_RNvXs_NtNtNtCs2Zzx8WPYKXd_15otel_arrow_rust4otlp10attributes5storeINtB4_14AttributeStoremEINtNtCs8sCtDi7t2F4_4core7convert7TryFromRNtNtCs5YmLTPZiaZu_11arrow_array12record_batch11RecordBatchE8try_fromBa_
FN:75,_RNvXs_NtNtNtCs2Zzx8WPYKXd_15otel_arrow_rust4otlp10attributes5storeINtB4_14AttributeStoretEINtNtCs8sCtDi7t2F4_4core7convert7TryFromRNtNtCs5YmLTPZiaZu_11arrow_array12record_batch11RecordBatchE8try_fromBa_
FN:29,_RNvXs8_NtNtNtCs2Zzx8WPYKXd_15otel_arrow_rust4otlp10attributes5storeNtB5_18AttributeValueTypeINtNtCs8sCtDi7t2F4_4core7convert7TryFromhE8try_fromBb_
FN:169,_RNvXs0_NtNtNtCs2Zzx8WPYKXd_15otel_arrow_rust4otlp10attributes5storeINtNtCshFLakfGc1jx_5alloc3vec3VecNtNtNtNtNtBb_5proto13opentelemetry6common2v18KeyValueEINtB5_17FindOrAppendValueINtNtCs8sCtDi7t2F4_4core6option6OptionNtB1C_8AnyValueEE14find_or_append
FNDA:1,_RNCNvMNtNtNtCs2Zzx8WPYKXd_15otel_arrow_rust4otlp10attributes5storeINtB4_14AttributeStoremE15attribute_by_id0Ba_
FNDA:0,_RNCNvMNtNtNtCs2Zzx8WPYKXd_15otel_arrow_rust4otlp10attributes5storeINtB4_14AttributeStoremE21attribute_by_delta_id0Ba_
FNDA:3,_RNCNvMNtNtNtCs2Zzx8WPYKXd_15otel_arrow_rust4otlp10attributes5storeINtB4_14AttributeStoretE15attribute_by_id0Ba_
FNDA:0,_RNCNvMNtNtNtCs2Zzx8WPYKXd_15otel_arrow_rust4otlp10attributes5storeINtB4_14AttributeStoretE21attribute_by_delta_id0Ba_
FNDA:3,_RNCNvXs0_NtNtNtCs2Zzx8WPYKXd_15otel_arrow_rust4otlp10attributes5storeINtNtCshFLakfGc1jx_5alloc3vec3VecNtNtNtNtNtBd_5proto13opentelemetry6common2v18KeyValueEINtB7_17FindOrAppendValueINtNtCs8sCtDi7t2F4_4core6option6OptionNtB1E_8AnyValueEE14find_or_append0Bd_
FNDA:1,_RNvMNtNtNtCs2Zzx8WPYKXd_15otel_arrow_rust4otlp10attributes5storeINtB2_14AttributeStoremE15attribute_by_idB8_
FNDA:0,_RNvMNtNtNtCs2Zzx8WPYKXd_15otel_arrow_rust4otlp10attributes5storeINtB2_14AttributeStoremE21attribute_by_delta_idB8_
FNDA:3,_RNvMNtNtNtCs2Zzx8WPYKXd_15otel_arrow_rust4otlp10attributes5storeINtB2_14AttributeStoretE15attribute_by_idB8_
FNDA:6,_RNvMNtNtNtCs2Zzx8WPYKXd_15otel_arrow_rust4otlp10attributes5storeINtB2_14AttributeStoretE21attribute_by_delta_idB8_
FNDA:1,_RNvXs_NtNtNtCs2Zzx8WPYKXd_15otel_arrow_rust4otlp10attributes5storeINtB4_14AttributeStoremEINtNtCs8sCtDi7t2F4_4core7convert7TryFromRNtNtCs5YmLTPZiaZu_11arrow_array12record_batch11RecordBatchE8try_fromBa_
FNDA:2,_RNvXs_NtNtNtCs2Zzx8WPYKXd_15otel_arrow_rust4otlp10attributes5storeINtB4_14AttributeStoretEINtNtCs8sCtDi7t2F4_4core7convert7TryFromRNtNtCs5YmLTPZiaZu_11arrow_array12record_batch11RecordBatchE8try_fromBa_
FNDA:9,_RNvXs8_NtNtNtCs2Zzx8WPYKXd_15otel_arrow_rust4otlp10attributes5storeNtB5_18AttributeValueTypeINtNtCs8sCtDi7t2F4_4core7convert7TryFromhE8try_fromBb_
FNDA:6,_RNvXs0_NtNtNtCs2Zzx8WPYKXd_15otel_arrow_rust4otlp10attributes5storeINtNtCshFLakfGc1jx_5alloc3vec3VecNtNtNtNtNtBb_5proto13opentelemetry6common2v18KeyValueEINtB5_17FindOrAppendValueINtNtCs8sCtDi7t2F4_4core6option6OptionNtB1C_8AnyValueEE14find_or_append
FNF:8
FNH:7
DA:29,9
DA:55,6
DA:56,6
DA:57,6
DA:58,6
DA:59,6
DA:60,6
DA:62,4
DA:63,4
DA:64,4
DA:75,3
DA:76,3
DA:78,3
DA:79,3
DA:80,3
DA:81,3
DA:82,3
DA:84,3
DA:85,3
DA:86,3
DA:87,3
DA:88,3
DA:89,3
DA:90,3
DA:91,3
DA:92,3
DA:93,3
DA:94,3
DA:95,3
DA:96,3
DA:97,3
DA:98,3
DA:100,6
DA:101,6
DA:102,6
DA:103,6
DA:104,6
DA:106,4
DA:108,0
DA:110,0
DA:113,0
DA:116,0
DA:119,2
DA:120,2
DA:121,0
DA:122,2
DA:124,2
DA:125,2
DA:126,2
DA:127,0
DA:132,0
DA:137,6
DA:138,6
DA:139,6
DA:140,6
DA:141,6
DA:142,6
DA:143,6
DA:144,6
DA:145,6
DA:146,6
DA:147,6
DA:148,6
DA:149,6
DA:150,6
DA:151,6
DA:152,6
DA:153,6
DA:154,6
DA:155,6
DA:158,3
DA:159,3
DA:169,6
DA:171,6
DA:172,0
DA:173,6
DA:174,6
DA:175,6
DA:176,6
DA:177,6
DA:178,6
DA:179,6
DA:180,6
BRF:0
BRH:0
LF:86
LH:77
end_of_record
SF:/Users/d.dahl/code/otel-arrow/rust/otel-arrow-rust/src/otlp/common.rs
FN:71,_RNCNvNtNtCs2Zzx8WPYKXd_15otel_arrow_rust4otlp6common21SCOPE_ARRAY_DATA_TYPE0B7_
FN:21,_RNCNvNtNtCs2Zzx8WPYKXd_15otel_arrow_rust4otlp6common24RESOURCE_ARRAY_DATA_TYPE0B7_
FN:107,_RNCNvXs1_NtNtCs2Zzx8WPYKXd_15otel_arrow_rust4otlp6commonNtB7_11ScopeArraysINtNtCs8sCtDi7t2F4_4core7convert7TryFromRNtNtCs5YmLTPZiaZu_11arrow_array12record_batch11RecordBatchE8try_from0Bb_
FN:47,_RNCNvXs_NtNtCs2Zzx8WPYKXd_15otel_arrow_rust4otlp6commonNtB6_14ResourceArraysINtNtCs8sCtDi7t2F4_4core7convert7TryFromRNtNtCs5YmLTPZiaZu_11arrow_array12record_batch11RecordBatchE8try_from0Ba_
FN:34,_RNvMNtNtCs2Zzx8WPYKXd_15otel_arrow_rust4otlp6commonNtB2_14ResourceArrays9data_type
FN:89,_RNvMs0_NtNtCs2Zzx8WPYKXd_15otel_arrow_rust4otlp6commonNtB5_11ScopeArrays28create_instrumentation_scope
FN:85,_RNvMs0_NtNtCs2Zzx8WPYKXd_15otel_arrow_rust4otlp6commonNtB5_11ScopeArrays9data_type
FN:102,_RNvXs1_NtNtCs2Zzx8WPYKXd_15otel_arrow_rust4otlp6commonNtB5_11ScopeArraysINtNtCs8sCtDi7t2F4_4core7convert7TryFromRNtNtCs5YmLTPZiaZu_11arrow_array12record_batch11RecordBatchE8try_from
FN:42,_RNvXs_NtNtCs2Zzx8WPYKXd_15otel_arrow_rust4otlp6commonNtB4_14ResourceArraysINtNtCs8sCtDi7t2F4_4core7convert7TryFromRNtNtCs5YmLTPZiaZu_11arrow_array12record_batch11RecordBatchE8try_from
FNDA:0,_RNCNvNtNtCs2Zzx8WPYKXd_15otel_arrow_rust4otlp6common21SCOPE_ARRAY_DATA_TYPE0B7_
FNDA:0,_RNCNvNtNtCs2Zzx8WPYKXd_15otel_arrow_rust4otlp6common24RESOURCE_ARRAY_DATA_TYPE0B7_
FNDA:0,_RNCNvXs1_NtNtCs2Zzx8WPYKXd_15otel_arrow_rust4otlp6commonNtB7_11ScopeArraysINtNtCs8sCtDi7t2F4_4core7convert7TryFromRNtNtCs5YmLTPZiaZu_11arrow_array12record_batch11RecordBatchE8try_from0Bb_
FNDA:0,_RNCNvXs_NtNtCs2Zzx8WPYKXd_15otel_arrow_rust4otlp6commonNtB6_14ResourceArraysINtNtCs8sCtDi7t2F4_4core7convert7TryFromRNtNtCs5YmLTPZiaZu_11arrow_array12record_batch11RecordBatchE8try_from0Ba_
FNDA:0,_RNvMNtNtCs2Zzx8WPYKXd_15otel_arrow_rust4otlp6commonNtB2_14ResourceArrays9data_type
FNDA:3,_RNvMs0_NtNtCs2Zzx8WPYKXd_15otel_arrow_rust4otlp6commonNtB5_11ScopeArrays28create_instrumentation_scope
FNDA:0,_RNvMs0_NtNtCs2Zzx8WPYKXd_15otel_arrow_rust4otlp6commonNtB5_11ScopeArrays9data_type
FNDA:3,_RNvXs1_NtNtCs2Zzx8WPYKXd_15otel_arrow_rust4otlp6commonNtB5_11ScopeArraysINtNtCs8sCtDi7t2F4_4core7convert7TryFromRNtNtCs5YmLTPZiaZu_11arrow_array12record_batch11RecordBatchE8try_from
FNDA:3,_RNvXs_NtNtCs2Zzx8WPYKXd_15otel_arrow_rust4otlp6commonNtB4_14ResourceArraysINtNtCs8sCtDi7t2F4_4core7convert7TryFromRNtNtCs5YmLTPZiaZu_11arrow_array12record_batch11RecordBatchE8try_from
FNF:9
FNH:3
DA:21,0
DA:22,0
DA:23,0
DA:24,0
DA:25,0
DA:26,0
DA:27,0
DA:28,0
DA:29,0
DA:30,0
DA:31,0
DA:34,0
DA:35,0
DA:36,0
DA:42,3
DA:43,3
DA:44,3
DA:45,3
DA:46,3
DA:47,3
DA:48,0
DA:49,0
DA:50,0
DA:51,3
DA:53,3
DA:54,3
DA:55,3
DA:56,3
DA:57,3
DA:58,3
DA:59,3
DA:61,3
DA:71,0
DA:72,0
DA:73,0
DA:74,0
DA:75,0
DA:76,0
DA:77,0
DA:78,0
DA:79,0
DA:80,0
DA:81,0
DA:82,0
DA:85,0
DA:86,0
DA:87,0
DA:89,3
DA:90,3
DA:91,3
DA:92,3
DA:93,3
DA:94,3
DA:95,3
DA:96,3
DA:102,3
DA:103,3
DA:104,3
DA:105,3
DA:106,3
DA:107,3
DA:108,0
DA:109,0
DA:110,0
DA:111,3
DA:112,3
DA:113,3
DA:114,3
DA:115,3
DA:116,3
DA:117,3
DA:118,3
DA:119,3
DA:121,3
BRF:0
BRH:0
LF:78
LH:39
end_of_record
SF:/Users/d.dahl/code/otel-arrow/rust/otel-arrow-rust/src/otlp/logs.rs
FN:176,_RNvNtNtCs2Zzx8WPYKXd_15otel_arrow_rust4otlp4logs9logs_from
FN:45,_RNvXNtNtCs2Zzx8WPYKXd_15otel_arrow_rust4otlp4logsNtB2_10LogsArraysINtNtCs8sCtDi7t2F4_4core7convert7TryFromRNtNtCs5YmLTPZiaZu_11arrow_array12record_batch11RecordBatchE8try_from
FN:161,_RNvXs0_NtNtCs2Zzx8WPYKXd_15otel_arrow_rust4otlp4logsNtB5_13LogBodyArraysINtNtCs8sCtDi7t2F4_4core7convert7TryFromRNtNtNtCs5YmLTPZiaZu_11arrow_array5array12struct_array11StructArrayE8try_from
FN:122,_RNvXs_NtNtCs2Zzx8WPYKXd_15otel_arrow_rust4otlp4logsNtB4_13LogBodyArraysNtNtB8_6arrays21NullableArrayAccessor8value_at
FN:77,_RNCNvXNtNtCs2Zzx8WPYKXd_15otel_arrow_rust4otlp4logsNtB4_10LogsArraysINtNtCs8sCtDi7t2F4_4core7convert7TryFromRNtNtCs5YmLTPZiaZu_11arrow_array12record_batch11RecordBatchE8try_from0B8_
FN:139,_RNCNvXs_NtNtCs2Zzx8WPYKXd_15otel_arrow_rust4otlp4logsNtB6_13LogBodyArraysNtNtBa_6arrays21NullableArrayAccessor8value_at0Ba_
FNDA:2,_RNvNtNtCs2Zzx8WPYKXd_15otel_arrow_rust4otlp4logs9logs_from
FNDA:2,_RNvXNtNtCs2Zzx8WPYKXd_15otel_arrow_rust4otlp4logsNtB2_10LogsArraysINtNtCs8sCtDi7t2F4_4core7convert7TryFromRNtNtCs5YmLTPZiaZu_11arrow_array12record_batch11RecordBatchE8try_from
FNDA:2,_RNvXs0_NtNtCs2Zzx8WPYKXd_15otel_arrow_rust4otlp4logsNtB5_13LogBodyArraysINtNtCs8sCtDi7t2F4_4core7convert7TryFromRNtNtNtCs5YmLTPZiaZu_11arrow_array5array12struct_array11StructArrayE8try_from
FNDA:3,_RNvXs_NtNtCs2Zzx8WPYKXd_15otel_arrow_rust4otlp4logsNtB4_13LogBodyArraysNtNtB8_6arrays21NullableArrayAccessor8value_at
FNDA:2,_RNCNvXNtNtCs2Zzx8WPYKXd_15otel_arrow_rust4otlp4logsNtB4_10LogsArraysINtNtCs8sCtDi7t2F4_4core7convert7TryFromRNtNtCs5YmLTPZiaZu_11arrow_array12record_batch11RecordBatchE8try_from0B8_
FNDA:2,_RNCNvXs_NtNtCs2Zzx8WPYKXd_15otel_arrow_rust4otlp4logsNtB6_13LogBodyArraysNtNtBa_6arrays21NullableArrayAccessor8value_at0Ba_
FNF:6
FNH:6
DA:45,2
DA:46,2
DA:47,2
DA:48,2
DA:49,2
DA:50,2
DA:52,2
DA:53,2
DA:54,2
DA:55,2
DA:56,2
DA:57,2
DA:58,2
DA:59,2
DA:60,2
DA:61,2
DA:62,2
DA:63,2
DA:64,2
DA:65,2
DA:66,2
DA:67,2
DA:68,2
DA:69,2
DA:70,2
DA:72,2
DA:73,2
DA:75,2
DA:76,2
DA:77,2
DA:78,2
DA:79,2
DA:80,2
DA:81,2
DA:82,2
DA:83,2
DA:84,2
DA:86,2
DA:87,2
DA:88,2
DA:90,2
DA:91,2
DA:92,2
DA:93,2
DA:94,2
DA:95,2
DA:96,2
DA:97,2
DA:98,2
DA:99,2
DA:100,2
DA:101,2
DA:102,2
DA:103,2
DA:122,3
DA:123,3
DA:124,0
DA:125,3
DA:126,3
DA:127,3
DA:128,3
DA:129,3
DA:130,3
DA:131,0
DA:132,0
DA:136,3
DA:137,2
DA:138,2
DA:139,2
DA:140,1
DA:142,1
DA:143,1
DA:144,0
DA:145,0
DA:146,0
DA:147,0
DA:150,0
DA:154,1
DA:155,3
DA:161,2
DA:162,2
DA:163,2
DA:164,2
DA:165,2
DA:166,2
DA:167,2
DA:168,2
DA:169,2
DA:170,2
DA:171,2
DA:173,2
DA:176,2
DA:177,2
DA:178,2
DA:179,2
DA:180,2
DA:181,2
DA:182,2
DA:183,2
DA:184,2
DA:185,2
DA:187,2
DA:188,2
DA:189,2
DA:191,3
DA:192,3
DA:193,3
DA:194,3
DA:195,3
DA:197,2
DA:198,2
DA:199,2
DA:200,2
DA:201,2
DA:202,2
DA:203,0
DA:204,2
DA:205,0
DA:206,0
DA:207,2
DA:209,2
DA:210,2
DA:211,2
DA:212,2
DA:213,0
DA:214,0
DA:215,2
DA:216,0
DA:218,2
DA:219,1
DA:221,3
DA:222,3
DA:223,3
DA:224,3
DA:225,2
DA:226,2
DA:227,2
DA:228,2
DA:229,2
DA:230,2
DA:231,0
DA:232,0
DA:233,2
DA:234,0
DA:237,2
DA:238,2
DA:239,2
DA:240,2
DA:241,2
DA:242,2
DA:243,2
DA:244,2
DA:245,1
DA:248,3
DA:249,3
DA:250,3
DA:251,3
DA:252,3
DA:253,3
DA:254,3
DA:255,3
DA:256,3
DA:257,3
DA:258,3
DA:259,3
DA:260,3
DA:261,3
DA:262,3
DA:263,3
DA:265,3
DA:266,3
DA:267,0
DA:268,0
DA:269,0
DA:270,0
DA:271,0
DA:272,3
DA:273,0
DA:275,3
DA:276,3
DA:277,0
DA:278,0
DA:279,0
DA:280,0
DA:281,0
DA:282,3
DA:283,0
DA:285,3
DA:286,3
DA:287,3
DA:288,3
DA:289,3
DA:290,3
DA:292,3
DA:293,3
DA:294,0
DA:296,3
DA:297,3
DA:298,3
DA:299,3
DA:300,3
DA:301,3
DA:304,2
DA:305,2
BRF:0
BRH:0
LF:207
LH:177
end_of_record
SF:/Users/d.dahl/code/otel-arrow/rust/otel-arrow-rust/src/otlp/logs/related_data.rs
FN:26,_RNvMNtNtNtCs2Zzx8WPYKXd_15otel_arrow_rust4otlp4logs12related_dataNtB2_11RelatedData20from_record_messages
FN:19,_RNvMNtNtNtCs2Zzx8WPYKXd_15otel_arrow_rust4otlp4logs12related_dataNtB2_11RelatedData24log_record_id_from_delta
FNDA:2,_RNvMNtNtNtCs2Zzx8WPYKXd_15otel_arrow_rust4otlp4logs12related_dataNtB2_11RelatedData20from_record_messages
FNDA:3,_RNvMNtNtNtCs2Zzx8WPYKXd_15otel_arrow_rust4otlp4logs12related_dataNtB2_11RelatedData24log_record_id_from_delta
FNF:2
FNH:2
DA:19,3
DA:20,3
DA:21,3
DA:22,3
DA:26,2
DA:27,2
DA:28,2
DA:30,4
DA:31,4
DA:32,2
DA:34,0
DA:37,0
DA:40,2
DA:41,2
DA:44,0
DA:45,0
DA:46,0
DA:47,0
DA:52,2
DA:53,2
BRF:0
BRH:0
LF:20
LH:14
end_of_record
SF:/Users/d.dahl/code/otel-arrow/rust/otel-arrow-rust/src/otlp/metrics.rs
FN:260,_RNvXs_NtNtCs2Zzx8WPYKXd_15otel_arrow_rust4otlp7metricsINtNtCshFLakfGc1jx_5alloc3vec3VecNtNtNtNtNtB8_5proto13opentelemetry4logs2v112ResourceLogsEINtB4_12AppendAndGetB1n_E14append_and_getB8_
FN:260,_RNvXs_NtNtCs2Zzx8WPYKXd_15otel_arrow_rust4otlp7metricsINtNtCshFLakfGc1jx_5alloc3vec3VecNtNtNtNtNtB8_5proto13opentelemetry4logs2v19LogRecordEINtB4_12AppendAndGetB1n_E14append_and_getB8_
FN:260,_RNvXs_NtNtCs2Zzx8WPYKXd_15otel_arrow_rust4otlp7metricsINtNtCshFLakfGc1jx_5alloc3vec3VecNtNtNtNtNtB8_5proto13opentelemetry4logs2v19ScopeLogsEINtB4_12AppendAndGetB1n_E14append_and_getB8_
FN:260,_RNvXs_NtNtCs2Zzx8WPYKXd_15otel_arrow_rust4otlp7metricsINtNtCshFLakfGc1jx_5alloc3vec3VecNtNtNtNtNtB8_5proto13opentelemetry7metrics2v112ScopeMetricsEINtB4_12AppendAndGetB1n_E14append_and_getB8_
FN:260,_RNvXs_NtNtCs2Zzx8WPYKXd_15otel_arrow_rust4otlp7metricsINtNtCshFLakfGc1jx_5alloc3vec3VecNtNtNtNtNtB8_5proto13opentelemetry7metrics2v115ResourceMetricsEINtB4_12AppendAndGetB1n_E14append_and_getB8_
FN:260,_RNvXs_NtNtCs2Zzx8WPYKXd_15otel_arrow_rust4otlp7metricsINtNtCshFLakfGc1jx_5alloc3vec3VecNtNtNtNtNtB8_5proto13opentelemetry7metrics2v116SummaryDataPointEINtB4_12AppendAndGetB1n_E14append_and_getB8_
FN:260,_RNvXs_NtNtCs2Zzx8WPYKXd_15otel_arrow_rust4otlp7metricsINtNtCshFLakfGc1jx_5alloc3vec3VecNtNtNtNtNtB8_5proto13opentelemetry7metrics2v118HistogramDataPointEINtB4_12AppendAndGetB1n_E14append_and_getB8_
FN:260,_RNvXs_NtNtCs2Zzx8WPYKXd_15otel_arrow_rust4otlp7metricsINtNtCshFLakfGc1jx_5alloc3vec3VecNtNtNtNtNtB8_5proto13opentelemetry7metrics2v129ExponentialHistogramDataPointEINtB4_12AppendAndGetB1n_E14append_and_getB8_
FN:260,_RNvXs_NtNtCs2Zzx8WPYKXd_15otel_arrow_rust4otlp7metricsINtNtCshFLakfGc1jx_5alloc3vec3VecNtNtNtNtNtB8_5proto13opentelemetry7metrics2v16MetricEINtB4_12AppendAndGetB1n_E14append_and_getB8_
FN:260,_RNvXs_NtNtCs2Zzx8WPYKXd_15otel_arrow_rust4otlp7metricsINtNtCshFLakfGc1jx_5alloc3vec3VecNtNtNtNtNtB8_5proto13opentelemetry7metrics2v18ExemplarEINtB4_12AppendAndGetB1n_E14append_and_getB8_
FN:96,_RNvNtNtCs2Zzx8WPYKXd_15otel_arrow_rust4otlp7metrics12metrics_from
FN:56,_RNvXNtNtCs2Zzx8WPYKXd_15otel_arrow_rust4otlp7metricsNtB2_13MetricsArraysINtNtCs8sCtDi7t2F4_4core7convert7TryFromRNtNtCs5YmLTPZiaZu_11arrow_array12record_batch11RecordBatchE8try_from
FN:31,_RNvXs7_NtNtCs2Zzx8WPYKXd_15otel_arrow_rust4otlp7metricsNtB5_10MetricTypeINtNtCs8sCtDi7t2F4_4core7convert7TryFromhE8try_fromB9_
FNDA:2,_RNvXs_NtNtCs2Zzx8WPYKXd_15otel_arrow_rust4otlp7metricsINtNtCshFLakfGc1jx_5alloc3vec3VecNtNtNtNtNtB8_5proto13opentelemetry4logs2v112ResourceLogsEINtB4_12AppendAndGetB1n_E14append_and_getB8_
FNDA:3,_RNvXs_NtNtCs2Zzx8WPYKXd_15otel_arrow_rust4otlp7metricsINtNtCshFLakfGc1jx_5alloc3vec3VecNtNtNtNtNtB8_5proto13opentelemetry4logs2v19LogRecordEINtB4_12AppendAndGetB1n_E14append_and_getB8_
FNDA:2,_RNvXs_NtNtCs2Zzx8WPYKXd_15otel_arrow_rust4otlp7metricsINtNtCshFLakfGc1jx_5alloc3vec3VecNtNtNtNtNtB8_5proto13opentelemetry4logs2v19ScopeLogsEINtB4_12AppendAndGetB1n_E14append_and_getB8_
FNDA:1,_RNvXs_NtNtCs2Zzx8WPYKXd_15otel_arrow_rust4otlp7metricsINtNtCshFLakfGc1jx_5alloc3vec3VecNtNtNtNtNtB8_5proto13opentelemetry7metrics2v112ScopeMetricsEINtB4_12AppendAndGetB1n_E14append_and_getB8_
FNDA:1,_RNvXs_NtNtCs2Zzx8WPYKXd_15otel_arrow_rust4otlp7metricsINtNtCshFLakfGc1jx_5alloc3vec3VecNtNtNtNtNtB8_5proto13opentelemetry7metrics2v115ResourceMetricsEINtB4_12AppendAndGetB1n_E14append_and_getB8_
FNDA:0,_RNvXs_NtNtCs2Zzx8WPYKXd_15otel_arrow_rust4otlp7metricsINtNtCshFLakfGc1jx_5alloc3vec3VecNtNtNtNtNtB8_5proto13opentelemetry7metrics2v116SummaryDataPointEINtB4_12AppendAndGetB1n_E14append_and_getB8_
FNDA:0,_RNvXs_NtNtCs2Zzx8WPYKXd_15otel_arrow_rust4otlp7metricsINtNtCshFLakfGc1jx_5alloc3vec3VecNtNtNtNtNtB8_5proto13opentelemetry7metrics2v118HistogramDataPointEINtB4_12AppendAndGetB1n_E14append_and_getB8_
FNDA:0,_RNvXs_NtNtCs2Zzx8WPYKXd_15otel_arrow_rust4otlp7metricsINtNtCshFLakfGc1jx_5alloc3vec3VecNtNtNtNtNtB8_5proto13opentelemetry7metrics2v129ExponentialHistogramDataPointEINtB4_12AppendAndGetB1n_E14append_and_getB8_
FNDA:1,_RNvXs_NtNtCs2Zzx8WPYKXd_15otel_arrow_rust4otlp7metricsINtNtCshFLakfGc1jx_5alloc3vec3VecNtNtNtNtNtB8_5proto13opentelemetry7metrics2v16MetricEINtB4_12AppendAndGetB1n_E14append_and_getB8_
FNDA:0,_RNvXs_NtNtCs2Zzx8WPYKXd_15otel_arrow_rust4otlp7metricsINtNtCshFLakfGc1jx_5alloc3vec3VecNtNtNtNtNtB8_5proto13opentelemetry7metrics2v18ExemplarEINtB4_12AppendAndGetB1n_E14append_and_getB8_
FNDA:1,_RNvNtNtCs2Zzx8WPYKXd_15otel_arrow_rust4otlp7metrics12metrics_from
FNDA:1,_RNvXNtNtCs2Zzx8WPYKXd_15otel_arrow_rust4otlp7metricsNtB2_13MetricsArraysINtNtCs8sCtDi7t2F4_4core7convert7TryFromRNtNtCs5YmLTPZiaZu_11arrow_array12record_batch11RecordBatchE8try_from
FNDA:1,_RNvXs7_NtNtCs2Zzx8WPYKXd_15otel_arrow_rust4otlp7metricsNtB5_10MetricTypeINtNtCs8sCtDi7t2F4_4core7convert7TryFromhE8try_fromB9_
FNF:4
FNH:4
DA:31,1
DA:56,1
DA:57,1
DA:58,1
DA:59,1
DA:60,1
DA:61,1
DA:62,0
DA:64,1
DA:65,1
DA:66,1
DA:67,1
DA:68,1
DA:69,1
DA:70,1
DA:71,1
DA:73,1
DA:74,1
DA:75,1
DA:76,1
DA:77,1
DA:78,1
DA:79,1
DA:80,1
DA:81,1
DA:82,1
DA:83,1
DA:84,1
DA:85,1
DA:86,1
DA:87,1
DA:88,1
DA:89,1
DA:90,1
DA:91,1
DA:92,1
DA:96,1
DA:97,1
DA:98,1
DA:99,1
DA:100,1
DA:101,1
DA:102,1
DA:103,1
DA:104,1
DA:105,1
DA:106,1
DA:108,1
DA:109,1
DA:110,1
DA:112,1
DA:113,1
DA:114,1
DA:115,1
DA:116,1
DA:118,1
DA:119,1
DA:120,1
DA:121,1
DA:122,1
DA:123,1
DA:124,0
DA:125,1
DA:126,0
DA:127,0
DA:128,1
DA:130,1
DA:131,1
DA:132,1
DA:133,1
DA:134,0
DA:135,0
DA:136,1
DA:137,0
DA:139,1
DA:140,0
DA:142,1
DA:143,1
DA:144,1
DA:145,1
DA:146,1
DA:147,1
DA:148,1
DA:149,1
DA:150,1
DA:151,1
DA:152,1
DA:153,1
DA:154,1
DA:155,1
DA:156,1
DA:157,1
DA:158,1
DA:159,0
DA:160,0
DA:161,1
DA:162,0
DA:163,1
DA:164,1
DA:165,1
DA:166,0
DA:170,1
DA:171,1
DA:172,1
DA:173,1
DA:174,1
DA:175,1
DA:176,1
DA:177,1
DA:178,1
DA:179,1
DA:180,1
DA:181,1
DA:182,1
DA:183,1
DA:184,1
DA:186,1
DA:187,1
DA:188,1
DA:189,1
DA:190,1
DA:191,1
DA:192,1
DA:193,1
DA:194,1
DA:195,1
DA:196,1
DA:197,1
DA:198,1
DA:199,1
DA:200,1
DA:201,1
DA:202,1
DA:203,1
DA:204,1
DA:205,0
DA:206,0
DA:207,0
DA:208,0
DA:209,0
DA:210,0
DA:211,0
DA:212,0
DA:213,0
DA:214,0
DA:215,0
DA:216,0
DA:217,0
DA:218,0
DA:219,0
DA:220,0
DA:221,0
DA:222,0
DA:223,0
DA:224,0
DA:225,0
DA:226,0
DA:227,0
DA:228,0
DA:229,0
DA:230,0
DA:231,0
DA:232,0
DA:233,0
DA:234,0
DA:235,0
DA:236,0
DA:237,0
DA:238,0
DA:239,0
DA:240,0
DA:241,0
DA:242,0
DA:243,0
DA:244,0
DA:245,0
DA:249,1
DA:250,1
DA:260,10
DA:261,10
DA:262,10
DA:263,10
BRF:0
BRH:0
LF:182
LH:129
end_of_record
SF:/Users/d.dahl/code/otel-arrow/rust/otel-arrow-rust/src/otlp/metrics/data_points/data_point_store.rs
FN:30,_RNvMNtNtNtNtCs2Zzx8WPYKXd_15otel_arrow_rust4otlp7metrics11data_points16data_point_storeINtB2_14DataPointStoreNtNtNtNtNtBa_5proto13opentelemetry7metrics2v115NumberDataPointE14get_or_defaultBa_
FN:30,_RNvMNtNtNtNtCs2Zzx8WPYKXd_15otel_arrow_rust4otlp7metrics11data_points16data_point_storeINtB2_14DataPointStoreNtNtNtNtNtBa_5proto13opentelemetry7metrics2v116SummaryDataPointE14get_or_defaultBa_
FN:30,_RNvMNtNtNtNtCs2Zzx8WPYKXd_15otel_arrow_rust4otlp7metrics11data_points16data_point_storeINtB2_14DataPointStoreNtNtNtNtNtBa_5proto13opentelemetry7metrics2v118HistogramDataPointE14get_or_defaultBa_
FN:30,_RNvMNtNtNtNtCs2Zzx8WPYKXd_15otel_arrow_rust4otlp7metrics11data_points16data_point_storeINtB2_14DataPointStoreNtNtNtNtNtBa_5proto13opentelemetry7metrics2v129ExponentialHistogramDataPointE14get_or_defaultBa_
FNDA:2,_RNvMNtNtNtNtCs2Zzx8WPYKXd_15otel_arrow_rust4otlp7metrics11data_points16data_point_storeINtB2_14DataPointStoreNtNtNtNtNtBa_5proto13opentelemetry7metrics2v115NumberDataPointE14get_or_defaultBa_
FNDA:0,_RNvMNtNtNtNtCs2Zzx8WPYKXd_15otel_arrow_rust4otlp7metrics11data_points16data_point_storeINtB2_14DataPointStoreNtNtNtNtNtBa_5proto13opentelemetry7metrics2v116SummaryDataPointE14get_or_defaultBa_
FNDA:0,_RNvMNtNtNtNtCs2Zzx8WPYKXd_15otel_arrow_rust4otlp7metrics11data_points16data_point_storeINtB2_14DataPointStoreNtNtNtNtNtBa_5proto13opentelemetry7metrics2v118HistogramDataPointE14get_or_defaultBa_
FNDA:0,_RNvMNtNtNtNtCs2Zzx8WPYKXd_15otel_arrow_rust4otlp7metrics11data_points16data_point_storeINtB2_14DataPointStoreNtNtNtNtNtBa_5proto13opentelemetry7metrics2v129ExponentialHistogramDataPointE14get_or_defaultBa_
FNF:1
FNH:1
DA:30,2
DA:31,2
DA:32,2
BRF:0
BRH:0
LF:3
LH:3
end_of_record
SF:/Users/d.dahl/code/otel-arrow/rust/otel-arrow-rust/src/otlp/metrics/data_points/exp_histogram.rs
FN:104,_RNvMs_NtNtNtNtCs2Zzx8WPYKXd_15otel_arrow_rust4otlp7metrics11data_points13exp_histogramNtB4_27PositiveNegativeArrayAccess23bucket_counts_data_type
FN:121,_RNvMs_NtNtNtNtCs2Zzx8WPYKXd_15otel_arrow_rust4otlp7metrics11data_points13exp_histogramNtB4_27PositiveNegativeArrayAccess7try_new
FN:170,_RNvMs_NtNtNtNtCs2Zzx8WPYKXd_15otel_arrow_rust4otlp7metrics11data_points13exp_histogramNtB4_27PositiveNegativeArrayAccess8value_at
FN:110,_RNvMs_NtNtNtNtCs2Zzx8WPYKXd_15otel_arrow_rust4otlp7metrics11data_points13exp_histogramNtB4_27PositiveNegativeArrayAccess9data_type
FN:128,_RNCNvMs_NtNtNtNtCs2Zzx8WPYKXd_15otel_arrow_rust4otlp7metrics11data_points13exp_histogramNtB6_27PositiveNegativeArrayAccess7try_new0Be_
FN:157,_RNCNvMs_NtNtNtNtCs2Zzx8WPYKXd_15otel_arrow_rust4otlp7metrics11data_points13exp_histogramNtB6_27PositiveNegativeArrayAccess7try_news_0Be_
FN:30,_RNvMNtNtNtNtCs2Zzx8WPYKXd_15otel_arrow_rust4otlp7metrics11data_points13exp_histogramINtNtB4_16data_point_store14DataPointStoreNtNtNtNtNtBa_5proto13opentelemetry7metrics2v129ExponentialHistogramDataPointE17from_record_batch
FNDA:0,_RNvMs_NtNtNtNtCs2Zzx8WPYKXd_15otel_arrow_rust4otlp7metrics11data_points13exp_histogramNtB4_27PositiveNegativeArrayAccess23bucket_counts_data_type
FNDA:0,_RNvMs_NtNtNtNtCs2Zzx8WPYKXd_15otel_arrow_rust4otlp7metrics11data_points13exp_histogramNtB4_27PositiveNegativeArrayAccess7try_new
FNDA:0,_RNvMs_NtNtNtNtCs2Zzx8WPYKXd_15otel_arrow_rust4otlp7metrics11data_points13exp_histogramNtB4_27PositiveNegativeArrayAccess8value_at
FNDA:0,_RNvMs_NtNtNtNtCs2Zzx8WPYKXd_15otel_arrow_rust4otlp7metrics11data_points13exp_histogramNtB4_27PositiveNegativeArrayAccess9data_type
FNDA:0,_RNCNvMs_NtNtNtNtCs2Zzx8WPYKXd_15otel_arrow_rust4otlp7metrics11data_points13exp_histogramNtB6_27PositiveNegativeArrayAccess7try_new0Be_
FNDA:0,_RNCNvMs_NtNtNtNtCs2Zzx8WPYKXd_15otel_arrow_rust4otlp7metrics11data_points13exp_histogramNtB6_27PositiveNegativeArrayAccess7try_news_0Be_
FNDA:0,_RNvMNtNtNtNtCs2Zzx8WPYKXd_15otel_arrow_rust4otlp7metrics11data_points13exp_histogramINtNtB4_16data_point_store14DataPointStoreNtNtNtNtNtBa_5proto13opentelemetry7metrics2v129ExponentialHistogramDataPointE17from_record_batch
FNF:7
FNH:0
DA:30,0
DA:31,0
DA:32,0
DA:33,0
DA:34,0
DA:35,0
DA:37,0
DA:38,0
DA:39,0
DA:40,0
DA:41,0
DA:42,0
DA:43,0
DA:44,0
DA:45,0
DA:46,0
DA:47,0
DA:48,0
DA:49,0
DA:50,0
DA:51,0
DA:52,0
DA:54,0
DA:55,0
DA:57,0
DA:58,0
DA:59,0
DA:60,0
DA:61,0
DA:62,0
DA:63,0
DA:64,0
DA:65,0
DA:66,0
DA:67,0
DA:68,0
DA:69,0
DA:70,0
DA:71,0
DA:72,0
DA:73,0
DA:74,0
DA:75,0
DA:76,0
DA:77,0
DA:78,0
DA:79,0
DA:80,0
DA:81,0
DA:82,0
DA:84,0
DA:85,0
DA:86,0
DA:87,0
DA:88,0
DA:89,0
DA:90,0
DA:91,0
DA:94,0
DA:95,0
DA:104,0
DA:105,0
DA:106,0
DA:107,0
DA:108,0
DA:110,0
DA:111,0
DA:112,0
DA:113,0
DA:114,0
DA:115,0
DA:116,0
DA:117,0
DA:118,0
DA:119,0
DA:121,0
DA:122,0
DA:123,0
DA:124,0
DA:125,0
DA:126,0
DA:127,0
DA:128,0
DA:129,0
DA:130,0
DA:131,0
DA:132,0
DA:134,0
DA:135,0
DA:136,0
DA:137,0
DA:138,0
DA:140,0
DA:141,0
DA:142,0
DA:143,0
DA:144,0
DA:145,0
DA:146,0
DA:148,0
DA:149,0
DA:150,0
DA:151,0
DA:152,0
DA:154,0
DA:155,0
DA:156,0
DA:157,0
DA:158,0
DA:159,0
DA:160,0
DA:161,0
DA:163,0
DA:164,0
DA:165,0
DA:166,0
DA:167,0
DA:168,0
DA:170,0
DA:171,0
DA:172,0
DA:173,0
DA:174,0
BRF:0
BRH:0
LF:127
LH:0
end_of_record
SF:/Users/d.dahl/code/otel-arrow/rust/otel-arrow-rust/src/otlp/metrics/data_points/histogram.rs
FN:148,_RNCNvMs_NtNtNtNtCs2Zzx8WPYKXd_15otel_arrow_rust4otlp7metrics11data_points9histogramINtB6_17ListValueAccessorNtNtCs5YmLTPZiaZu_11arrow_array5types10UInt64TypeE12value_at_opt0Be_
FN:133,_RNCNvMs_NtNtNtNtCs2Zzx8WPYKXd_15otel_arrow_rust4otlp7metrics11data_points9histogramINtB6_17ListValueAccessorNtNtCs5YmLTPZiaZu_11arrow_array5types10UInt64TypeE17try_new_from_list0Be_
FN:114,_RNCNvMs_NtNtNtNtCs2Zzx8WPYKXd_15otel_arrow_rust4otlp7metrics11data_points9histogramINtB6_17ListValueAccessorNtNtCs5YmLTPZiaZu_11arrow_array5types10UInt64TypeE7try_new0Be_
FN:148,_RNCNvMs_NtNtNtNtCs2Zzx8WPYKXd_15otel_arrow_rust4otlp7metrics11data_points9histogramINtB6_17ListValueAccessorNtNtCs5YmLTPZiaZu_11arrow_array5types11Float64TypeE12value_at_opt0Be_
FN:133,_RNCNvMs_NtNtNtNtCs2Zzx8WPYKXd_15otel_arrow_rust4otlp7metrics11data_points9histogramINtB6_17ListValueAccessorNtNtCs5YmLTPZiaZu_11arrow_array5types11Float64TypeE17try_new_from_list0Be_
FN:114,_RNCNvMs_NtNtNtNtCs2Zzx8WPYKXd_15otel_arrow_rust4otlp7metrics11data_points9histogramINtB6_17ListValueAccessorNtNtCs5YmLTPZiaZu_11arrow_array5types11Float64TypeE7try_new0Be_
FN:141,_RNvMs_NtNtNtNtCs2Zzx8WPYKXd_15otel_arrow_rust4otlp7metrics11data_points9histogramINtB4_17ListValueAccessorNtNtCs5YmLTPZiaZu_11arrow_array5types10UInt64TypeE12value_at_optBc_
FN:128,_RNvMs_NtNtNtNtCs2Zzx8WPYKXd_15otel_arrow_rust4otlp7metrics11data_points9histogramINtB4_17ListValueAccessorNtNtCs5YmLTPZiaZu_11arrow_array5types10UInt64TypeE17try_new_from_listBc_
FN:113,_RNvMs_NtNtNtNtCs2Zzx8WPYKXd_15otel_arrow_rust4otlp7metrics11data_points9histogramINtB4_17ListValueAccessorNtNtCs5YmLTPZiaZu_11arrow_array5types10UInt64TypeE7try_newBc_
FN:141,_RNvMs_NtNtNtNtCs2Zzx8WPYKXd_15otel_arrow_rust4otlp7metrics11data_points9histogramINtB4_17ListValueAccessorNtNtCs5YmLTPZiaZu_11arrow_array5types11Float64TypeE12value_at_optBc_
FN:128,_RNvMs_NtNtNtNtCs2Zzx8WPYKXd_15otel_arrow_rust4otlp7metrics11data_points9histogramINtB4_17ListValueAccessorNtNtCs5YmLTPZiaZu_11arrow_array5types11Float64TypeE17try_new_from_listBc_
FN:113,_RNvMs_NtNtNtNtCs2Zzx8WPYKXd_15otel_arrow_rust4otlp7metrics11data_points9histogramINtB4_17ListValueAccessorNtNtCs5YmLTPZiaZu_11arrow_array5types11Float64TypeE7try_newBc_
FN:32,_RNvMNtNtNtNtCs2Zzx8WPYKXd_15otel_arrow_rust4otlp7metrics11data_points9histogramINtNtB4_16data_point_store14DataPointStoreNtNtNtNtNtBa_5proto13opentelemetry7metrics2v118HistogramDataPointE17from_record_batch
FNDA:0,_RNCNvMs_NtNtNtNtCs2Zzx8WPYKXd_15otel_arrow_rust4otlp7metrics11data_points9histogramINtB6_17ListValueAccessorNtNtCs5YmLTPZiaZu_11arrow_array5types10UInt64TypeE12value_at_opt0Be_
FNDA:0,_RNCNvMs_NtNtNtNtCs2Zzx8WPYKXd_15otel_arrow_rust4otlp7metrics11data_points9histogramINtB6_17ListValueAccessorNtNtCs5YmLTPZiaZu_11arrow_array5types10UInt64TypeE17try_new_from_list0Be_
FNDA:0,_RNCNvMs_NtNtNtNtCs2Zzx8WPYKXd_15otel_arrow_rust4otlp7metrics11data_points9histogramINtB6_17ListValueAccessorNtNtCs5YmLTPZiaZu_11arrow_array5types10UInt64TypeE7try_new0Be_
FNDA:0,_RNCNvMs_NtNtNtNtCs2Zzx8WPYKXd_15otel_arrow_rust4otlp7metrics11data_points9histogramINtB6_17ListValueAccessorNtNtCs5YmLTPZiaZu_11arrow_array5types11Float64TypeE12value_at_opt0Be_
FNDA:0,_RNCNvMs_NtNtNtNtCs2Zzx8WPYKXd_15otel_arrow_rust4otlp7metrics11data_points9histogramINtB6_17ListValueAccessorNtNtCs5YmLTPZiaZu_11arrow_array5types11Float64TypeE17try_new_from_list0Be_
FNDA:0,_RNCNvMs_NtNtNtNtCs2Zzx8WPYKXd_15otel_arrow_rust4otlp7metrics11data_points9histogramINtB6_17ListValueAccessorNtNtCs5YmLTPZiaZu_11arrow_array5types11Float64TypeE7try_new0Be_
FNDA:0,_RNvMs_NtNtNtNtCs2Zzx8WPYKXd_15otel_arrow_rust4otlp7metrics11data_points9histogramINtB4_17ListValueAccessorNtNtCs5YmLTPZiaZu_11arrow_array5types10UInt64TypeE12value_at_optBc_
FNDA:0,_RNvMs_NtNtNtNtCs2Zzx8WPYKXd_15otel_arrow_rust4otlp7metrics11data_points9histogramINtB4_17ListValueAccessorNtNtCs5YmLTPZiaZu_11arrow_array5types10UInt64TypeE17try_new_from_listBc_
FNDA:0,_RNvMs_NtNtNtNtCs2Zzx8WPYKXd_15otel_arrow_rust4otlp7metrics11data_points9histogramINtB4_17ListValueAccessorNtNtCs5YmLTPZiaZu_11arrow_array5types10UInt64TypeE7try_newBc_
FNDA:0,_RNvMs_NtNtNtNtCs2Zzx8WPYKXd_15otel_arrow_rust4otlp7metrics11data_points9histogramINtB4_17ListValueAccessorNtNtCs5YmLTPZiaZu_11arrow_array5types11Float64TypeE12value_at_optBc_
FNDA:0,_RNvMs_NtNtNtNtCs2Zzx8WPYKXd_15otel_arrow_rust4otlp7metrics11data_points9histogramINtB4_17ListValueAccessorNtNtCs5YmLTPZiaZu_11arrow_array5types11Float64TypeE17try_new_from_listBc_
FNDA:0,_RNvMs_NtNtNtNtCs2Zzx8WPYKXd_15otel_arrow_rust4otlp7metrics11data_points9histogramINtB4_17ListValueAccessorNtNtCs5YmLTPZiaZu_11arrow_array5types11Float64TypeE7try_newBc_
FNDA:0,_RNvMNtNtNtNtCs2Zzx8WPYKXd_15otel_arrow_rust4otlp7metrics11data_points9histogramINtNtB4_16data_point_store14DataPointStoreNtNtNtNtNtBa_5proto13opentelemetry7metrics2v118HistogramDataPointE17from_record_batch
FNF:7
FNH:0
DA:32,0
DA:33,0
DA:34,0
DA:35,0
DA:36,0
DA:37,0
DA:39,0
DA:40,0
DA:41,0
DA:42,0
DA:43,0
DA:44,0
DA:45,0
DA:46,0
DA:47,0
DA:48,0
DA:49,0
DA:50,0
DA:51,0
DA:52,0
DA:53,0
DA:54,0
DA:55,0
DA:56,0
DA:57,0
DA:58,0
DA:59,0
DA:60,0
DA:61,0
DA:63,0
DA:64,0
DA:66,0
DA:67,0
DA:68,0
DA:69,0
DA:70,0
DA:71,0
DA:72,0
DA:73,0
DA:74,0
DA:75,0
DA:76,0
DA:77,0
DA:78,0
DA:79,0
DA:80,0
DA:81,0
DA:82,0
DA:83,0
DA:85,0
DA:86,0
DA:87,0
DA:89,0
DA:90,0
DA:91,0
DA:92,0
DA:93,0
DA:94,0
DA:95,0
DA:96,0
DA:99,0
DA:100,0
DA:113,0
DA:114,0
DA:115,0
DA:116,0
DA:117,0
DA:118,0
DA:119,0
DA:120,0
DA:121,0
DA:122,0
DA:123,0
DA:124,0
DA:125,0
DA:126,0
DA:128,0
DA:129,0
DA:130,0
DA:131,0
DA:132,0
DA:133,0
DA:134,0
DA:135,0
DA:136,0
DA:138,0
DA:139,0
DA:141,0
DA:142,0
DA:143,0
DA:144,0
DA:145,0
DA:146,0
DA:147,0
DA:148,0
DA:149,0
DA:150,0
DA:151,0
BRF:0
BRH:0
LF:103
LH:0
end_of_record
SF:/Users/d.dahl/code/otel-arrow/rust/otel-arrow-rust/src/otlp/metrics/data_points/number.rs
FN:28,_RNvMNtNtNtNtCs2Zzx8WPYKXd_15otel_arrow_rust4otlp7metrics11data_points6numberINtNtB4_16data_point_store14DataPointStoreNtNtNtNtNtBa_5proto13opentelemetry7metrics2v115NumberDataPointE17from_record_batch
FNDA:1,_RNvMNtNtNtNtCs2Zzx8WPYKXd_15otel_arrow_rust4otlp7metrics11data_points6numberINtNtB4_16data_point_store14DataPointStoreNtNtNtNtNtBa_5proto13opentelemetry7metrics2v115NumberDataPointE17from_record_batch
FNF:1
FNH:1
DA:28,1
DA:29,1
DA:30,1
DA:31,1
DA:32,1
DA:33,1
DA:35,1
DA:36,1
DA:37,1
DA:38,1
DA:39,1
DA:43,1
DA:44,1
DA:45,1
DA:47,1
DA:48,1
DA:50,1
DA:51,1
DA:52,1
DA:53,1
DA:54,1
DA:55,1
DA:56,1
DA:57,1
DA:58,1
DA:59,1
DA:60,1
DA:61,1
DA:62,1
DA:63,1
DA:64,1
DA:65,1
DA:66,1
DA:67,1
DA:68,0
DA:69,0
DA:70,0
DA:71,1
DA:72,1
DA:73,1
DA:75,0
DA:77,0
DA:78,0
DA:79,0
DA:82,1
DA:83,1
DA:84,1
DA:85,1
DA:87,1
DA:88,1
DA:89,1
DA:90,0
DA:91,1
DA:94,1
DA:95,1
BRF:0
BRH:0
LF:55
LH:47
end_of_record
SF:/Users/d.dahl/code/otel-arrow/rust/otel-arrow-rust/src/otlp/metrics/data_points/summary.rs
FN:108,_RNCNCNvMs_NtNtNtNtCs2Zzx8WPYKXd_15otel_arrow_rust4otlp7metrics11data_points7summaryNtB8_14QuantileArrays7try_news0_00Bg_
FN:133,_RNCNvMs0_NtNtNtNtCs2Zzx8WPYKXd_15otel_arrow_rust4otlp7metrics11data_points7summaryNtB7_14QuantileArrays8value_at0Bf_
FN:88,_RNCNvMs_NtNtNtNtCs2Zzx8WPYKXd_15otel_arrow_rust4otlp7metrics11data_points7summaryNtB6_14QuantileArrays7try_new0Be_
FN:100,_RNCNvMs_NtNtNtNtCs2Zzx8WPYKXd_15otel_arrow_rust4otlp7metrics11data_points7summaryNtB6_14QuantileArrays7try_news0_0Be_
FN:96,_RNCNvMs_NtNtNtNtCs2Zzx8WPYKXd_15otel_arrow_rust4otlp7metrics11data_points7summaryNtB6_14QuantileArrays7try_news_0Be_
FN:125,_RNvMs0_NtNtNtNtCs2Zzx8WPYKXd_15otel_arrow_rust4otlp7metrics11data_points7summaryNtB5_14QuantileArrays8value_at
FN:84,_RNvMs_NtNtNtNtCs2Zzx8WPYKXd_15otel_arrow_rust4otlp7metrics11data_points7summaryNtB4_14QuantileArrays7try_new
FN:29,_RNvMNtNtNtNtCs2Zzx8WPYKXd_15otel_arrow_rust4otlp7metrics11data_points7summaryINtNtB4_16data_point_store14DataPointStoreNtNtNtNtNtBa_5proto13opentelemetry7metrics2v116SummaryDataPointE17from_record_batch
FNDA:0,_RNCNCNvMs_NtNtNtNtCs2Zzx8WPYKXd_15otel_arrow_rust4otlp7metrics11data_points7summaryNtB8_14QuantileArrays7try_news0_00Bg_
FNDA:0,_RNCNvMs0_NtNtNtNtCs2Zzx8WPYKXd_15otel_arrow_rust4otlp7metrics11data_points7summaryNtB7_14QuantileArrays8value_at0Bf_
FNDA:0,_RNCNvMs_NtNtNtNtCs2Zzx8WPYKXd_15otel_arrow_rust4otlp7metrics11data_points7summaryNtB6_14QuantileArrays7try_new0Be_
FNDA:0,_RNCNvMs_NtNtNtNtCs2Zzx8WPYKXd_15otel_arrow_rust4otlp7metrics11data_points7summaryNtB6_14QuantileArrays7try_news0_0Be_
FNDA:0,_RNCNvMs_NtNtNtNtCs2Zzx8WPYKXd_15otel_arrow_rust4otlp7metrics11data_points7summaryNtB6_14QuantileArrays7try_news_0Be_
FNDA:0,_RNvMs0_NtNtNtNtCs2Zzx8WPYKXd_15otel_arrow_rust4otlp7metrics11data_points7summaryNtB5_14QuantileArrays8value_at
FNDA:0,_RNvMs_NtNtNtNtCs2Zzx8WPYKXd_15otel_arrow_rust4otlp7metrics11data_points7summaryNtB4_14QuantileArrays7try_new
FNDA:0,_RNvMNtNtNtNtCs2Zzx8WPYKXd_15otel_arrow_rust4otlp7metrics11data_points7summaryINtNtB4_16data_point_store14DataPointStoreNtNtNtNtNtBa_5proto13opentelemetry7metrics2v116SummaryDataPointE17from_record_batch
FNF:8
FNH:0
DA:29,0
DA:30,0
DA:31,0
DA:32,0
DA:33,0
DA:34,0
DA:36,0
DA:37,0
DA:38,0
DA:39,0
DA:40,0
DA:41,0
DA:42,0
DA:43,0
DA:44,0
DA:45,0
DA:46,0
DA:47,0
DA:48,0
DA:49,0
DA:51,0
DA:52,0
DA:53,0
DA:54,0
DA:55,0
DA:56,0
DA:57,0
DA:58,0
DA:59,0
DA:60,0
DA:61,0
DA:62,0
DA:63,0
DA:64,0
DA:65,0
DA:66,0
DA:67,0
DA:68,0
DA:69,0
DA:70,0
DA:73,0
DA:74,0
DA:84,0
DA:85,0
DA:86,0
DA:87,0
DA:88,0
DA:89,0
DA:90,0
DA:92,0
DA:93,0
DA:94,0
DA:95,0
DA:96,0
DA:97,0
DA:98,0
DA:99,0
DA:100,0
DA:101,0
DA:102,0
DA:103,0
DA:105,0
DA:106,0
DA:107,0
DA:108,0
DA:109,0
DA:110,0
DA:111,0
DA:113,0
DA:114,0
DA:115,0
DA:116,0
DA:117,0
DA:118,0
DA:119,0
DA:120,0
DA:121,0
DA:125,0
DA:126,0
DA:127,0
DA:128,0
DA:129,0
DA:130,0
DA:131,0
DA:132,0
DA:133,0
DA:134,0
DA:135,0
DA:136,0
DA:137,0
DA:138,0
DA:139,0
DA:140,0
DA:141,0
DA:142,0
BRF:0
BRH:0
LF:103
LH:0
end_of_record
SF:/Users/d.dahl/code/otel-arrow/rust/otel-arrow-rust/src/otlp/metrics/exemplar.rs
FN:117,_RNvXs7_NtNtNtCs2Zzx8WPYKXd_15otel_arrow_rust4otlp7metrics8exemplarNtB5_16ParentIdEncodingINtNtCs8sCtDi7t2F4_4core7convert7TryFromhE8try_fromBb_
FN:38,_RNvMNtNtNtCs2Zzx8WPYKXd_15otel_arrow_rust4otlp7metrics8exemplarNtB2_14ExemplarsStore28get_or_create_exemplar_by_id
FN:147,_RNvMs0_NtNtNtCs2Zzx8WPYKXd_15otel_arrow_rust4otlp7metrics8exemplarNtB5_23ExemplarParentIdDecoder3new
FN:157,_RNvMs0_NtNtNtCs2Zzx8WPYKXd_15otel_arrow_rust4otlp7metrics8exemplarNtB5_23ExemplarParentIdDecoder6decode
FN:44,_RNvMs_NtNtNtCs2Zzx8WPYKXd_15otel_arrow_rust4otlp7metrics8exemplarNtB4_14ExemplarsStore8try_from
FNDA:0,_RNvXs7_NtNtNtCs2Zzx8WPYKXd_15otel_arrow_rust4otlp7metrics8exemplarNtB5_16ParentIdEncodingINtNtCs8sCtDi7t2F4_4core7convert7TryFromhE8try_fromBb_
FNDA:1,_RNvMNtNtNtCs2Zzx8WPYKXd_15otel_arrow_rust4otlp7metrics8exemplarNtB2_14ExemplarsStore28get_or_create_exemplar_by_id
FNDA:0,_RNvMs0_NtNtNtCs2Zzx8WPYKXd_15otel_arrow_rust4otlp7metrics8exemplarNtB5_23ExemplarParentIdDecoder3new
FNDA:0,_RNvMs0_NtNtNtCs2Zzx8WPYKXd_15otel_arrow_rust4otlp7metrics8exemplarNtB5_23ExemplarParentIdDecoder6decode
FNDA:0,_RNvMs_NtNtNtCs2Zzx8WPYKXd_15otel_arrow_rust4otlp7metrics8exemplarNtB4_14ExemplarsStore8try_from
FNF:5
FNH:1
DA:38,1
DA:39,1
DA:40,1
DA:44,0
DA:45,0
DA:46,0
DA:47,0
DA:49,0
DA:50,0
DA:51,0
DA:52,0
DA:53,0
DA:54,0
DA:55,0
DA:57,0
DA:58,0
DA:59,0
DA:60,0
DA:61,0
DA:62,0
DA:63,0
DA:64,0
DA:65,0
DA:66,0
DA:67,0
DA:68,0
DA:69,0
DA:70,0
DA:71,0
DA:72,0
DA:73,0
DA:74,0
DA:75,0
DA:76,0
DA:77,0
DA:78,0
DA:79,0
DA:80,0
DA:81,0
DA:82,0
DA:83,0
DA:84,0
DA:85,0
DA:86,0
DA:87,0
DA:88,0
DA:89,0
DA:90,0
DA:91,0
DA:93,0
DA:94,0
DA:97,0
DA:98,0
DA:99,0
DA:100,0
DA:104,0
DA:105,0
DA:106,0
DA:107,0
DA:108,0
DA:111,0
DA:112,0
DA:117,0
DA:147,0
DA:148,0
DA:149,0
DA:150,0
DA:151,0
DA:152,0
DA:153,0
DA:154,0
DA:155,0
DA:157,0
DA:158,0
DA:159,0
DA:160,0
DA:161,0
DA:162,0
DA:163,0
DA:164,0
DA:166,0
DA:167,0
DA:170,0
DA:171,0
DA:172,0
DA:174,0
DA:175,0
DA:177,0
DA:178,0
DA:179,0
DA:180,0
DA:181,0
DA:183,0
DA:184,0
DA:185,0
DA:186,0
DA:188,0
DA:189,0
DA:191,0
DA:192,0
DA:193,0
DA:194,0
DA:195,0
DA:197,0
DA:198,0
DA:199,0
DA:200,0
DA:203,0
BRF:0
BRH:0
LF:108
LH:3
end_of_record
SF:/Users/d.dahl/code/otel-arrow/rust/otel-arrow-rust/src/otlp/metrics/related_data.rs
FN:58,_RNvMNtNtNtCs2Zzx8WPYKXd_15otel_arrow_rust4otlp7metrics12related_dataNtB2_11RelatedData20from_record_messages
FN:53,_RNvMNtNtNtCs2Zzx8WPYKXd_15otel_arrow_rust4otlp7metrics12related_dataNtB2_11RelatedData20metric_id_from_delta
FNDA:1,_RNvMNtNtNtCs2Zzx8WPYKXd_15otel_arrow_rust4otlp7metrics12related_dataNtB2_11RelatedData20from_record_messages
FNDA:1,_RNvMNtNtNtCs2Zzx8WPYKXd_15otel_arrow_rust4otlp7metrics12related_dataNtB2_11RelatedData20metric_id_from_delta
FNF:2
FNH:2
DA:53,1
DA:54,1
DA:55,1
DA:56,1
DA:58,1
DA:59,1
DA:60,1
DA:61,1
DA:62,1
DA:63,1
DA:64,1
DA:65,1
DA:66,1
DA:67,1
DA:68,1
DA:69,1
DA:70,1
DA:71,1
DA:72,1
DA:74,3
DA:75,3
DA:77,0
DA:80,0
DA:82,1
DA:83,1
DA:84,1
DA:85,1
DA:86,1
DA:87,1
DA:88,1
DA:89,0
DA:90,0
DA:91,0
DA:92,0
DA:93,0
DA:94,0
DA:95,0
DA:96,0
DA:97,0
DA:99,1
DA:102,0
DA:105,0
DA:108,0
DA:109,0
DA:111,0
DA:112,0
DA:113,0
DA:114,0
DA:115,0
DA:116,0
DA:117,0
DA:118,0
DA:119,0
DA:121,0
DA:122,0
DA:125,0
DA:126,0
DA:129,0
DA:130,0
DA:134,0
DA:135,0
DA:136,0
DA:137,0
DA:143,1
DA:144,0
DA:145,0
DA:146,0
DA:147,0
DA:148,0
DA:149,1
DA:151,1
DA:152,0
DA:153,0
DA:154,0
DA:155,1
DA:157,1
DA:158,0
DA:159,0
DA:160,0
DA:161,0
DA:162,0
DA:163,1
DA:166,1
DA:167,1
DA:168,1
DA:169,1
DA:170,1
DA:171,1
DA:172,1
DA:173,0
DA:174,1
DA:175,0
DA:176,0
DA:177,0
DA:178,0
DA:179,0
DA:180,1
DA:181,1
DA:182,0
DA:183,0
DA:184,0
DA:185,0
DA:186,0
DA:187,0
DA:188,1
DA:190,1
DA:191,0
DA:192,0
DA:193,0
DA:194,0
DA:195,0
DA:196,0
DA:197,0
DA:198,1
DA:200,1
DA:201,1
BRF:0
BRH:0
LF:116
LH:50
end_of_record
SF:/Users/d.dahl/code/otel-arrow/rust/otel-arrow-rust/src/pdata/mod.rs
FN:35,_RNvMNtCs2Zzx8WPYKXd_15otel_arrow_rust5pdataNtB2_7TraceID3new
FN:59,_RNvMs1_NtCs2Zzx8WPYKXd_15otel_arrow_rust5pdataNtB5_6SpanID3new
FN:71,_RNvXs3_NtCs2Zzx8WPYKXd_15otel_arrow_rust5pdataNtB5_6SpanIDINtNtCs8sCtDi7t2F4_4core7convert4FromAhj8_E4from
FN:41,_RNvXs_NtCs2Zzx8WPYKXd_15otel_arrow_rust5pdataNtB4_7TraceIDINtNtCs8sCtDi7t2F4_4core7convert4FromAhj10_E4from
FN:47,_RNvXs0_NtCs2Zzx8WPYKXd_15otel_arrow_rust5pdataINtNtCshFLakfGc1jx_5alloc3vec3VechEINtNtCs8sCtDi7t2F4_4core7convert4FromNtB5_7TraceIDE4from
FN:65,_RNvXs2_NtCs2Zzx8WPYKXd_15otel_arrow_rust5pdataINtNtCshFLakfGc1jx_5alloc3vec3VechEINtNtCs8sCtDi7t2F4_4core7convert4FromNtB5_6SpanIDE4from
FNDA:1,_RNvMNtCs2Zzx8WPYKXd_15otel_arrow_rust5pdataNtB2_7TraceID3new
FNDA:1,_RNvMs1_NtCs2Zzx8WPYKXd_15otel_arrow_rust5pdataNtB5_6SpanID3new
FNDA:2,_RNvXs3_NtCs2Zzx8WPYKXd_15otel_arrow_rust5pdataNtB5_6SpanIDINtNtCs8sCtDi7t2F4_4core7convert4FromAhj8_E4from
FNDA:1,_RNvXs_NtCs2Zzx8WPYKXd_15otel_arrow_rust5pdataNtB4_7TraceIDINtNtCs8sCtDi7t2F4_4core7convert4FromAhj10_E4from
FNDA:5,_RNvXs0_NtCs2Zzx8WPYKXd_15otel_arrow_rust5pdataINtNtCshFLakfGc1jx_5alloc3vec3VechEINtNtCs8sCtDi7t2F4_4core7convert4FromNtB5_7TraceIDE4from
FNDA:6,_RNvXs2_NtCs2Zzx8WPYKXd_15otel_arrow_rust5pdataINtNtCshFLakfGc1jx_5alloc3vec3VechEINtNtCs8sCtDi7t2F4_4core7convert4FromNtB5_6SpanIDE4from
FNF:6
FNH:6
DA:35,1
DA:36,1
DA:37,1
DA:41,1
DA:42,1
DA:43,1
DA:47,5
DA:48,5
DA:49,5
DA:59,1
DA:60,1
DA:61,1
DA:65,6
DA:66,6
DA:67,6
DA:71,2
DA:72,2
DA:73,2
BRF:0
BRH:0
LF:18
LH:18
end_of_record
SF:/Users/d.dahl/code/otel-arrow/rust/otel-arrow-rust/src/pdata/otlp/tests.rs
FN:250,_RNvNtNtNtCs2Zzx8WPYKXd_15otel_arrow_rust5pdata4otlp5testss_11test_entity
FN:452,_RNvNtNtNtCs2Zzx8WPYKXd_15otel_arrow_rust5pdata4otlp5testss_13test_exemplar
FN:267,_RNvNtNtNtCs2Zzx8WPYKXd_15otel_arrow_rust5pdata4otlp5testss_13test_resource
FN:58,_RNvNtNtNtCs2Zzx8WPYKXd_15otel_arrow_rust5pdata4otlp5testss_14test_any_value
FN:123,_RNvNtNtNtCs2Zzx8WPYKXd_15otel_arrow_rust5pdata4otlp5testss_14test_key_value
FN:370,_RNvNtNtNtCs2Zzx8WPYKXd_15otel_arrow_rust5pdata4otlp5testss_15test_metric_sum
FN:219,_RNvNtNtNtCs2Zzx8WPYKXd_15otel_arrow_rust5pdata4otlp5testss_15test_scope_logs
FN:412,_RNvNtNtNtCs2Zzx8WPYKXd_15otel_arrow_rust5pdata4otlp5testss_17test_metric_gauge
FN:286,_RNvNtNtNtCs2Zzx8WPYKXd_15otel_arrow_rust5pdata4otlp5testss_18test_resource_logs
FN:546,_RNvNtNtNtCs2Zzx8WPYKXd_15otel_arrow_rust5pdata4otlp5testss_19test_metric_summary
FN:319,_RNvNtNtNtCs2Zzx8WPYKXd_15otel_arrow_rust5pdata4otlp5testss_19test_resource_spans
FN:472,_RNvNtNtNtCs2Zzx8WPYKXd_15otel_arrow_rust5pdata4otlp5testss_21test_metric_histogram
FN:146,_RNvNtNtNtCs2Zzx8WPYKXd_15otel_arrow_rust5pdata4otlp5testss_24test_log_record_required
FN:162,_RNvNtNtNtCs2Zzx8WPYKXd_15otel_arrow_rust5pdata4otlp5testss_28test_log_record_required_all
FN:630,_RNvNtNtNtCs2Zzx8WPYKXd_15otel_arrow_rust5pdata4otlp5testss_33test_metric_exponential_histogram
FN:189,_RNvNtNtNtCs2Zzx8WPYKXd_15otel_arrow_rust5pdata4otlp5testss_34test_instrumentation_scope_default
FN:199,_RNvNtNtNtCs2Zzx8WPYKXd_15otel_arrow_rust5pdata4otlp5testss_34test_instrumentation_scope_options
FNDA:1,_RNvNtNtNtCs2Zzx8WPYKXd_15otel_arrow_rust5pdata4otlp5testss_11test_entity
FNDA:1,_RNvNtNtNtCs2Zzx8WPYKXd_15otel_arrow_rust5pdata4otlp5testss_13test_exemplar
FNDA:1,_RNvNtNtNtCs2Zzx8WPYKXd_15otel_arrow_rust5pdata4otlp5testss_13test_resource
FNDA:1,_RNvNtNtNtCs2Zzx8WPYKXd_15otel_arrow_rust5pdata4otlp5testss_14test_any_value
FNDA:1,_RNvNtNtNtCs2Zzx8WPYKXd_15otel_arrow_rust5pdata4otlp5testss_14test_key_value
FNDA:1,_RNvNtNtNtCs2Zzx8WPYKXd_15otel_arrow_rust5pdata4otlp5testss_15test_metric_sum
FNDA:1,_RNvNtNtNtCs2Zzx8WPYKXd_15otel_arrow_rust5pdata4otlp5testss_15test_scope_logs
FNDA:1,_RNvNtNtNtCs2Zzx8WPYKXd_15otel_arrow_rust5pdata4otlp5testss_17test_metric_gauge
FNDA:1,_RNvNtNtNtCs2Zzx8WPYKXd_15otel_arrow_rust5pdata4otlp5testss_18test_resource_logs
FNDA:1,_RNvNtNtNtCs2Zzx8WPYKXd_15otel_arrow_rust5pdata4otlp5testss_19test_metric_summary
FNDA:1,_RNvNtNtNtCs2Zzx8WPYKXd_15otel_arrow_rust5pdata4otlp5testss_19test_resource_spans
FNDA:1,_RNvNtNtNtCs2Zzx8WPYKXd_15otel_arrow_rust5pdata4otlp5testss_21test_metric_histogram
FNDA:1,_RNvNtNtNtCs2Zzx8WPYKXd_15otel_arrow_rust5pdata4otlp5testss_24test_log_record_required
FNDA:1,_RNvNtNtNtCs2Zzx8WPYKXd_15otel_arrow_rust5pdata4otlp5testss_28test_log_record_required_all
FNDA:1,_RNvNtNtNtCs2Zzx8WPYKXd_15otel_arrow_rust5pdata4otlp5testss_33test_metric_exponential_histogram
FNDA:1,_RNvNtNtNtCs2Zzx8WPYKXd_15otel_arrow_rust5pdata4otlp5testss_34test_instrumentation_scope_default
FNDA:1,_RNvNtNtNtCs2Zzx8WPYKXd_15otel_arrow_rust5pdata4otlp5testss_34test_instrumentation_scope_options
FNF:17
FNH:17
DA:58,1
DA:59,1
DA:60,1
DA:61,1
DA:62,1
DA:63,1
DA:64,1
DA:65,1
DA:66,1
DA:67,1
DA:68,1
DA:71,1
DA:72,1
DA:73,1
DA:74,1
DA:75,1
DA:76,1
DA:77,1
DA:80,1
DA:81,1
DA:82,1
DA:83,1
DA:84,1
DA:85,1
DA:88,1
DA:89,1
DA:90,1
DA:91,1
DA:92,1
DA:93,1
DA:94,1
DA:95,1
DA:96,1
DA:97,1
DA:98,1
DA:99,1
DA:100,1
DA:101,1
DA:102,1
DA:103,1
DA:104,1
DA:105,1
DA:108,1
DA:109,1
DA:110,1
DA:111,1
DA:112,1
DA:113,1
DA:114,1
DA:115,1
DA:116,1
DA:117,1
DA:118,1
DA:119,1
DA:120,1
DA:123,1
DA:124,1
DA:125,1
DA:126,1
DA:127,1
DA:128,1
DA:129,1
DA:130,1
DA:131,1
DA:132,1
DA:133,1
DA:134,1
DA:135,1
DA:136,1
DA:137,1
DA:138,1
DA:139,1
DA:141,1
DA:142,1
DA:143,1
DA:146,1
DA:147,1
DA:148,1
DA:149,1
DA:150,1
DA:151,1
DA:152,1
DA:153,1
DA:154,1
DA:155,1
DA:156,1
DA:157,1
DA:158,1
DA:159,1
DA:162,1
DA:163,1
DA:164,1
DA:165,1
DA:166,1
DA:167,1
DA:168,1
DA:169,1
DA:170,1
DA:171,1
DA:172,1
DA:173,1
DA:174,1
DA:175,1
DA:176,1
DA:177,1
DA:178,1
DA:179,1
DA:180,1
DA:181,1
DA:182,1
DA:183,1
DA:184,1
DA:185,1
DA:186,1
DA:189,1
DA:190,1
DA:191,1
DA:192,1
DA:193,1
DA:194,1
DA:195,1
DA:196,1
DA:199,1
DA:200,1
DA:201,1
DA:202,1
DA:203,1
DA:204,1
DA:205,1
DA:206,1
DA:207,1
DA:208,1
DA:209,1
DA:210,1
DA:211,1
DA:212,1
DA:213,1
DA:214,1
DA:215,1
DA:216,1
DA:219,1
DA:220,1
DA:221,1
DA:222,1
DA:223,1
DA:224,1
DA:225,1
DA:226,1
DA:227,1
DA:228,1
DA:229,1
DA:230,1
DA:231,1
DA:232,1
DA:233,1
DA:234,1
DA:235,1
DA:236,1
DA:237,1
DA:238,1
DA:239,1
DA:240,1
DA:241,1
DA:242,1
DA:243,1
DA:244,1
DA:245,1
DA:246,1
DA:247,1
DA:250,1
DA:251,1
DA:252,1
DA:253,1
DA:254,1
DA:255,1
DA:256,1
DA:257,1
DA:258,1
DA:259,1
DA:260,1
DA:261,1
DA:262,1
DA:263,1
DA:264,1
DA:267,1
DA:268,1
DA:269,1
DA:270,1
DA:271,1
DA:272,1
DA:273,1
DA:274,1
DA:275,1
DA:276,1
DA:277,1
DA:278,1
DA:279,1
DA:280,1
DA:281,1
DA:282,1
DA:283,1
DA:286,1
DA:287,1
DA:288,1
DA:289,1
DA:290,1
DA:291,1
DA:292,1
DA:293,1
DA:294,1
DA:295,1
DA:296,1
DA:297,1
DA:298,1
DA:299,1
DA:300,1
DA:301,1
DA:302,1
DA:303,1
DA:304,1
DA:305,1
DA:306,1
DA:307,1
DA:308,1
DA:309,1
DA:310,1
DA:311,1
DA:312,1
DA:313,1
DA:314,1
DA:315,1
DA:316,1
DA:319,1
DA:320,1
DA:321,1
DA:322,1
DA:323,1
DA:324,1
DA:325,1
DA:326,1
DA:327,1
DA:328,1
DA:329,1
DA:330,1
DA:331,1
DA:332,1
DA:333,1
DA:334,1
DA:335,1
DA:336,1
DA:337,1
DA:338,1
DA:339,1
DA:340,1
DA:341,1
DA:342,1
DA:343,1
DA:344,1
DA:345,1
DA:346,1
DA:347,1
DA:348,1
DA:349,1
DA:350,1
DA:351,1
DA:352,1
DA:353,1
DA:354,1
DA:355,1
DA:356,1
DA:357,1
DA:358,1
DA:359,1
DA:360,1
DA:361,1
DA:362,1
DA:363,1
DA:364,1
DA:365,1
DA:366,1
DA:367,1
DA:370,1
DA:371,1
DA:372,1
DA:373,1
DA:374,1
DA:375,1
DA:376,1
DA:377,1
DA:378,1
DA:379,1
DA:380,1
DA:381,1
DA:382,1
DA:383,1
DA:384,1
DA:385,1
DA:386,1
DA:387,1
DA:388,1
DA:389,1
DA:390,1
DA:391,1
DA:392,1
DA:393,1
DA:394,1
DA:395,1
DA:396,1
DA:397,1
DA:398,1
DA:399,1
DA:400,1
DA:401,1
DA:402,1
DA:403,1
DA:404,1
DA:405,1
DA:406,1
DA:407,1
DA:408,1
DA:409,1
DA:412,1
DA:413,1
DA:414,1
DA:415,1
DA:416,1
DA:417,1
DA:418,1
DA:419,1
DA:420,1
DA:421,1
DA:422,1
DA:423,1
DA:424,1
DA:425,1
DA:426,1
DA:427,1
DA:428,1
DA:429,1
DA:430,1
DA:431,1
DA:432,1
DA:433,1
DA:434,1
DA:435,1
DA:436,1
DA:437,1
DA:438,1
DA:439,1
DA:440,1
DA:441,1
DA:442,1
DA:443,1
DA:444,1
DA:445,1
DA:446,1
DA:447,1
DA:448,1
DA:449,1
DA:452,1
DA:453,1
DA:454,1
DA:455,1
DA:456,1
DA:457,1
DA:458,1
DA:459,1
DA:460,1
DA:461,1
DA:462,1
DA:463,1
DA:464,1
DA:465,1
DA:466,1
DA:467,1
DA:468,1
DA:469,1
DA:472,1
DA:473,1
DA:474,1
DA:475,1
DA:476,1
DA:477,1
DA:478,1
DA:479,1
DA:480,1
DA:481,1
DA:482,1
DA:483,1
DA:484,1
DA:485,1
DA:486,1
DA:487,1
DA:488,1
DA:489,1
DA:490,1
DA:491,1
DA:492,1
DA:493,1
DA:494,1
DA:495,1
DA:496,1
DA:497,1
DA:498,1
DA:499,1
DA:500,1
DA:501,1
DA:502,1
DA:503,1
DA:504,1
DA:505,1
DA:506,1
DA:507,1
DA:508,1
DA:509,1
DA:510,1
DA:511,1
DA:512,1
DA:513,1
DA:514,1
DA:515,1
DA:516,1
DA:517,1
DA:518,1
DA:519,1
DA:520,1
DA:521,1
DA:522,1
DA:523,1
DA:524,1
DA:525,1
DA:526,1
DA:527,1
DA:528,1
DA:529,1
DA:530,1
DA:531,1
DA:532,1
DA:533,1
DA:534,1
DA:535,1
DA:536,1
DA:537,1
DA:538,1
DA:539,1
DA:540,1
DA:541,1
DA:542,1
DA:543,1
DA:546,1
DA:547,1
DA:548,1
DA:549,1
DA:550,1
DA:551,1
DA:552,1
DA:553,1
DA:554,1
DA:555,1
DA:556,1
DA:557,1
DA:558,1
DA:559,1
DA:560,1
DA:561,1
DA:562,1
DA:563,1
DA:564,1
DA:565,1
DA:566,1
DA:567,1
DA:568,1
DA:569,1
DA:570,1
DA:571,1
DA:572,1
DA:573,1
DA:574,1
DA:575,1
DA:576,1
DA:577,1
DA:578,1
DA:579,1
DA:580,1
DA:581,1
DA:582,1
DA:583,1
DA:584,1
DA:585,1
DA:586,1
DA:587,1
DA:588,1
DA:589,1
DA:590,1
DA:591,1
DA:592,1
DA:593,1
DA:594,1
DA:595,1
DA:596,1
DA:597,1
DA:598,1
DA:599,1
DA:600,1
DA:601,1
DA:602,1
DA:603,1
DA:604,1
DA:605,1
DA:606,1
DA:607,1
DA:608,1
DA:609,1
DA:610,1
DA:611,1
DA:612,1
DA:613,1
DA:614,1
DA:615,1
DA:616,1
DA:617,1
DA:618,1
DA:619,1
DA:620,1
DA:621,1
DA:622,1
DA:623,1
DA:624,1
DA:625,1
DA:626,1
DA:627,1
DA:630,1
DA:631,1
DA:632,1
DA:633,1
DA:634,1
DA:635,1
DA:636,1
DA:637,1
DA:638,1
DA:639,1
DA:640,1
DA:641,1
DA:642,1
DA:643,1
DA:644,1
DA:645,1
DA:646,1
DA:647,1
DA:648,1
DA:649,1
DA:650,1
DA:651,1
DA:652,1
DA:653,1
DA:654,1
DA:655,1
DA:656,1
DA:657,1
DA:658,1
DA:659,1
DA:660,1
DA:661,1
DA:662,1
DA:663,1
DA:664,1
DA:665,1
DA:666,1
DA:667,1
DA:668,1
DA:669,1
DA:670,1
DA:671,1
DA:672,1
DA:673,1
DA:674,1
DA:675,1
DA:676,1
DA:677,1
DA:678,1
DA:679,1
DA:680,1
BRF:0
BRH:0
LF:582
LH:582
end_of_record
SF:/Users/d.dahl/code/otel-arrow/rust/otel-arrow-rust/src/proto/opentelemetry.proto.collector.logs.v1.rs
FN:197,_RINvMNtNtNtNtNtNtCs2Zzx8WPYKXd_15otel_arrow_rust5proto13opentelemetry9collector4logs2v119logs_service_serverINtB3_17LogsServiceServerpE16with_interceptorpEBf_
FN:9,_RINvMs5_NtNtNtNtNtCs2Zzx8WPYKXd_15otel_arrow_rust5proto13opentelemetry9collector4logs2v1NtB6_25ExportLogsServiceResponse3newpEBg_
FN:70,_RINvMs_NtNtNtNtNtNtCs2Zzx8WPYKXd_15otel_arrow_rust5proto13opentelemetry9collector4logs2v119logs_service_clientINtB5_17LogsServiceClientpE16with_interceptorpEBh_
FN:16,_RINvMsc_NtNtNtNtNtCs2Zzx8WPYKXd_15otel_arrow_rust5proto13opentelemetry9collector4logs2v1NtB6_24ExportLogsPartialSuccess3newpEBg_
FN:16,_RINvMsc_NtNtNtNtNtCs2Zzx8WPYKXd_15otel_arrow_rust5proto13opentelemetry9collector4logs2v1NtB6_24ExportLogsPartialSuccess5buildpEBg_
FN:16,_RINvMsd_NtNtNtNtNtCs2Zzx8WPYKXd_15otel_arrow_rust5proto13opentelemetry9collector4logs2v1NtB6_31ExportLogsPartialSuccessBuilder13error_messagepEBg_
FN:16,_RINvMsd_NtNtNtNtNtCs2Zzx8WPYKXd_15otel_arrow_rust5proto13opentelemetry9collector4logs2v1NtB6_31ExportLogsPartialSuccessBuilder20rejected_log_recordspEBg_
FN:16,_RINvNvXsk_NtNtNtNtNtCs2Zzx8WPYKXd_15otel_arrow_rust5proto13opentelemetry9collector4logs2v1NtB8_24ExportLogsPartialSuccessNtNtCs8sCtDi7t2F4_4core3fmt5Debug3fmt13ScalarWrapperpEBi_
FN:16,_RINvNvXsk_NtNtNtNtNtCs2Zzx8WPYKXd_15otel_arrow_rust5proto13opentelemetry9collector4logs2v1NtB8_24ExportLogsPartialSuccessNtNtCs8sCtDi7t2F4_4core3fmt5Debug3fmts_13ScalarWrapperpEBi_
FN:214,_RNvMNtNtNtNtNtNtCs2Zzx8WPYKXd_15otel_arrow_rust5proto13opentelemetry9collector4logs2v119logs_service_serverINtB2_17LogsServiceServerpE15send_compressedBe_
FN:208,_RNvMNtNtNtNtNtNtCs2Zzx8WPYKXd_15otel_arrow_rust5proto13opentelemetry9collector4logs2v119logs_service_serverINtB2_17LogsServiceServerpE17accept_compressedBe_
FN:222,_RNvMNtNtNtNtNtNtCs2Zzx8WPYKXd_15otel_arrow_rust5proto13opentelemetry9collector4logs2v119logs_service_serverINtB2_17LogsServiceServerpE25max_decoding_message_sizeBe_
FN:230,_RNvMNtNtNtNtNtNtCs2Zzx8WPYKXd_15otel_arrow_rust5proto13opentelemetry9collector4logs2v119logs_service_serverINtB2_17LogsServiceServerpE25max_encoding_message_sizeBe_
FN:66,_RNvMs_NtNtNtNtNtNtCs2Zzx8WPYKXd_15otel_arrow_rust5proto13opentelemetry9collector4logs2v119logs_service_clientINtB4_17LogsServiceClientpE11with_originBg_
FN:94,_RNvMs_NtNtNtNtNtNtCs2Zzx8WPYKXd_15otel_arrow_rust5proto13opentelemetry9collector4logs2v119logs_service_clientINtB4_17LogsServiceClientpE15send_compressedBg_
FN:100,_RNvMs_NtNtNtNtNtNtCs2Zzx8WPYKXd_15otel_arrow_rust5proto13opentelemetry9collector4logs2v119logs_service_clientINtB4_17LogsServiceClientpE17accept_compressedBg_
FN:108,_RNvMs_NtNtNtNtNtNtCs2Zzx8WPYKXd_15otel_arrow_rust5proto13opentelemetry9collector4logs2v119logs_service_clientINtB4_17LogsServiceClientpE25max_decoding_message_sizeBg_
FN:116,_RNvMs_NtNtNtNtNtNtCs2Zzx8WPYKXd_15otel_arrow_rust5proto13opentelemetry9collector4logs2v119logs_service_clientINtB4_17LogsServiceClientpE25max_encoding_message_sizeBg_
FN:16,_RNvMsd_NtNtNtNtNtCs2Zzx8WPYKXd_15otel_arrow_rust5proto13opentelemetry9collector4logs2v1NtB5_31ExportLogsPartialSuccessBuilder6finish
FN:2,_RNvXs2_NtNtNtNtNtCs2Zzx8WPYKXd_15otel_arrow_rust5proto13opentelemetry9collector4logs2v1NtB5_24ExportLogsServiceRequestNtNtCs9ugllKyEvyV_5prost7message7Message5clear
FN:9,_RNvXs9_NtNtNtNtNtCs2Zzx8WPYKXd_15otel_arrow_rust5proto13opentelemetry9collector4logs2v1NtB5_25ExportLogsServiceResponseNtNtCs9ugllKyEvyV_5prost7message7Message5clear
FN:9,_RNvXsb_NtNtNtNtNtCs2Zzx8WPYKXd_15otel_arrow_rust5proto13opentelemetry9collector4logs2v1NtB5_25ExportLogsServiceResponseNtNtCs8sCtDi7t2F4_4core3fmt5Debug3fmt
FN:16,_RNvXse_NtNtNtNtNtCs2Zzx8WPYKXd_15otel_arrow_rust5proto13opentelemetry9collector4logs2v1NtB5_24ExportLogsPartialSuccessINtNtCs8sCtDi7t2F4_4core7convert4FromNtB5_31ExportLogsPartialSuccessBuilderE4from
FN:16,_RNvXsi_NtNtNtNtNtCs2Zzx8WPYKXd_15otel_arrow_rust5proto13opentelemetry9collector4logs2v1NtB5_24ExportLogsPartialSuccessNtNtCs9ugllKyEvyV_5prost7message7Message5clear
FN:2,_RNvXs2_NtNtNtNtNtCs2Zzx8WPYKXd_15otel_arrow_rust5proto13opentelemetry9collector4logs2v1NtB5_24ExportLogsServiceRequestNtNtCs9ugllKyEvyV_5prost7message7Message11encoded_lenBf_
FN:2,_RNvXs3_NtNtNtNtNtCs2Zzx8WPYKXd_15otel_arrow_rust5proto13opentelemetry9collector4logs2v1NtB5_24ExportLogsServiceRequestNtNtCs8sCtDi7t2F4_4core7default7Default7default
FN:2,_RNvXs4_NtNtNtNtNtCs2Zzx8WPYKXd_15otel_arrow_rust5proto13opentelemetry9collector4logs2v1NtB5_24ExportLogsServiceRequestNtNtCs8sCtDi7t2F4_4core3fmt5Debug3fmt
FN:9,_RNvXsa_NtNtNtNtNtCs2Zzx8WPYKXd_15otel_arrow_rust5proto13opentelemetry9collector4logs2v1NtB5_25ExportLogsServiceResponseNtNtCs8sCtDi7t2F4_4core7default7Default7default
FN:16,_RNvXsj_NtNtNtNtNtCs2Zzx8WPYKXd_15otel_arrow_rust5proto13opentelemetry9collector4logs2v1NtB5_24ExportLogsPartialSuccessNtNtCs8sCtDi7t2F4_4core7default7Default7default
FN:269,_RNCNvXNvXs_NtNtNtNtNtNtCs2Zzx8WPYKXd_15otel_arrow_rust5proto13opentelemetry9collector4logs2v119logs_service_serverINtB9_17LogsServiceServerpEINtCsl3eF1jQi4se_13tower_service7ServiceINtNtCsfWkY8aoTePL_4http7request7RequestpEE4callINtB4_9ExportSvcINtNtNtBl_10validation12service_type12TestReceiverNtBb_24ExportLogsServiceRequestEEINtNtNtCs87Lp0jQnWEh_5tonic6server7service12UnaryServiceB4J_E4call0Bl_
FN:280,_RNCNvXs_NtNtNtNtNtNtCs2Zzx8WPYKXd_15otel_arrow_rust5proto13opentelemetry9collector4logs2v119logs_service_serverINtB6_17LogsServiceServerINtNtNtBi_10validation12service_type12TestReceiverNtB8_24ExportLogsServiceRequestEEINtCsl3eF1jQi4se_13tower_service7ServiceINtNtCsfWkY8aoTePL_4http7request7RequestNtNtCs87Lp0jQnWEh_5tonic4body4BodyEE4call0Bi_
FN:298,_RNCNvXs_NtNtNtNtNtNtCs2Zzx8WPYKXd_15otel_arrow_rust5proto13opentelemetry9collector4logs2v119logs_service_serverINtB6_17LogsServiceServerINtNtNtBi_10validation12service_type12TestReceiverNtB8_24ExportLogsServiceRequestEEINtCsl3eF1jQi4se_13tower_service7ServiceINtNtCsfWkY8aoTePL_4http7request7RequestNtNtCs87Lp0jQnWEh_5tonic4body4BodyEE4calls_0Bi_
FN:185,_RNvMNtNtNtNtNtNtCs2Zzx8WPYKXd_15otel_arrow_rust5proto13opentelemetry9collector4logs2v119logs_service_serverINtB2_17LogsServiceServerINtNtNtBe_10validation12service_type12TestReceiverNtB4_24ExportLogsServiceRequestEE3newBe_
FN:188,_RNvMNtNtNtNtNtNtCs2Zzx8WPYKXd_15otel_arrow_rust5proto13opentelemetry9collector4logs2v119logs_service_serverINtB2_17LogsServiceServerINtNtNtBe_10validation12service_type12TestReceiverNtB4_24ExportLogsServiceRequestEE8from_arcBe_
FN:264,_RNvXNvXs_NtNtNtNtNtNtCs2Zzx8WPYKXd_15otel_arrow_rust5proto13opentelemetry9collector4logs2v119logs_service_serverINtB7_17LogsServiceServerpEINtCsl3eF1jQi4se_13tower_service7ServiceINtNtCsfWkY8aoTePL_4http7request7RequestpEE4callINtB2_9ExportSvcINtNtNtBj_10validation12service_type12TestReceiverNtB9_24ExportLogsServiceRequestEEINtNtNtCs87Lp0jQnWEh_5tonic6server7service12UnaryServiceB4H_E4callBj_
FN:320,_RNvXs0_NtNtNtNtNtNtCs2Zzx8WPYKXd_15otel_arrow_rust5proto13opentelemetry9collector4logs2v119logs_service_serverINtB5_17LogsServiceServerINtNtNtBh_10validation12service_type12TestReceiverNtB7_24ExportLogsServiceRequestEENtNtCs8sCtDi7t2F4_4core5clone5Clone5cloneBh_
FN:244,_RNvXs_NtNtNtNtNtNtCs2Zzx8WPYKXd_15otel_arrow_rust5proto13opentelemetry9collector4logs2v119logs_service_serverINtB4_17LogsServiceServerINtNtNtBg_10validation12service_type12TestReceiverNtB6_24ExportLogsServiceRequestEEINtCsl3eF1jQi4se_13tower_service7ServiceINtNtCsfWkY8aoTePL_4http7request7RequestNtNtCs87Lp0jQnWEh_5tonic4body4BodyEE10poll_readyBg_
FN:250,_RNvXs_NtNtNtNtNtNtCs2Zzx8WPYKXd_15otel_arrow_rust5proto13opentelemetry9collector4logs2v119logs_service_serverINtB4_17LogsServiceServerINtNtNtBg_10validation12service_type12TestReceiverNtB6_24ExportLogsServiceRequestEEINtCsl3eF1jQi4se_13tower_service7ServiceINtNtCsfWkY8aoTePL_4http7request7RequestNtNtCs87Lp0jQnWEh_5tonic4body4BodyEE4callBg_
FN:2,_RINvMNtNtNtNtNtCs2Zzx8WPYKXd_15otel_arrow_rust5proto13opentelemetry9collector4logs2v1NtB3_24ExportLogsServiceRequest3newINtNtCshFLakfGc1jx_5alloc3vec3VecNtNtNtB9_4logs2v112ResourceLogsEEBd_
FN:2,_RNCINvXs2_NtNtNtNtNtCs2Zzx8WPYKXd_15otel_arrow_rust5proto13opentelemetry9collector4logs2v1NtB8_24ExportLogsServiceRequestNtNtCs9ugllKyEvyV_5prost7message7Message11merge_fieldQQNtNtNtCs87Lp0jQnWEh_5tonic5codec6buffer9DecodeBufE0Bi_
FN:9,_RNCINvXs9_NtNtNtNtNtCs2Zzx8WPYKXd_15otel_arrow_rust5proto13opentelemetry9collector4logs2v1NtB8_25ExportLogsServiceResponseNtNtCs9ugllKyEvyV_5prost7message7Message11merge_fieldQQNtNtNtCs87Lp0jQnWEh_5tonic5codec6buffer9DecodeBufE0Bi_
FN:16,_RNCINvXsi_NtNtNtNtNtCs2Zzx8WPYKXd_15otel_arrow_rust5proto13opentelemetry9collector4logs2v1NtB8_24ExportLogsPartialSuccessNtNtCs9ugllKyEvyV_5prost7message7Message11merge_fieldQQNtNtNtCs87Lp0jQnWEh_5tonic5codec6buffer9DecodeBufE0Bi_
FN:16,_RNCINvXsi_NtNtNtNtNtCs2Zzx8WPYKXd_15otel_arrow_rust5proto13opentelemetry9collector4logs2v1NtB8_24ExportLogsPartialSuccessNtNtCs9ugllKyEvyV_5prost7message7Message11merge_fieldQQNtNtNtCs87Lp0jQnWEh_5tonic5codec6buffer9DecodeBufEs_0Bi_
FN:9,_RNCNvXs9_NtNtNtNtNtCs2Zzx8WPYKXd_15otel_arrow_rust5proto13opentelemetry9collector4logs2v1NtB7_25ExportLogsServiceResponseNtNtCs9ugllKyEvyV_5prost7message7Message11encoded_len0Bh_
FN:46,_RINvMNtNtNtNtNtNtCs2Zzx8WPYKXd_15otel_arrow_rust5proto13opentelemetry9collector4logs2v119logs_service_clientINtB3_17LogsServiceClientNtNtNtCs87Lp0jQnWEh_5tonic9transport7channel7ChannelE7connectNtNtCshFLakfGc1jx_5alloc6string6StringEBf_
FN:120,_RINvMs_NtNtNtNtNtNtCs2Zzx8WPYKXd_15otel_arrow_rust5proto13opentelemetry9collector4logs2v119logs_service_clientINtB5_17LogsServiceClientNtNtNtCs87Lp0jQnWEh_5tonic9transport7channel7ChannelE6exportINtNtB2f_7request7RequestNtB7_24ExportLogsServiceRequestEEBh_
FN:50,_RNCINvMNtNtNtNtNtNtCs2Zzx8WPYKXd_15otel_arrow_rust5proto13opentelemetry9collector4logs2v119logs_service_clientINtB5_17LogsServiceClientNtNtNtCs87Lp0jQnWEh_5tonic9transport7channel7ChannelE7connectNtNtCshFLakfGc1jx_5alloc6string6StringE0Bh_
FN:126,_RNCINvMs_NtNtNtNtNtNtCs2Zzx8WPYKXd_15otel_arrow_rust5proto13opentelemetry9collector4logs2v119logs_service_clientINtB7_17LogsServiceClientNtNtNtCs87Lp0jQnWEh_5tonic9transport7channel7ChannelE6exportINtNtB2h_7request7RequestNtB9_24ExportLogsServiceRequestEE0Bj_
FN:130,_RNCNCINvMs_NtNtNtNtNtNtCs2Zzx8WPYKXd_15otel_arrow_rust5proto13opentelemetry9collector4logs2v119logs_service_clientINtB9_17LogsServiceClientNtNtNtCs87Lp0jQnWEh_5tonic9transport7channel7ChannelE6exportINtNtB2j_7request7RequestNtBb_24ExportLogsServiceRequestEE00Bl_
FN:62,_RNvMs_NtNtNtNtNtNtCs2Zzx8WPYKXd_15otel_arrow_rust5proto13opentelemetry9collector4logs2v119logs_service_clientINtB4_17LogsServiceClientNtNtNtCs87Lp0jQnWEh_5tonic9transport7channel7ChannelE3newBg_
FNDA:0,_RINvMNtNtNtNtNtNtCs2Zzx8WPYKXd_15otel_arrow_rust5proto13opentelemetry9collector4logs2v119logs_service_serverINtB3_17LogsServiceServerpE16with_interceptorpEBf_
FNDA:0,_RINvMs5_NtNtNtNtNtCs2Zzx8WPYKXd_15otel_arrow_rust5proto13opentelemetry9collector4logs2v1NtB6_25ExportLogsServiceResponse3newpEBg_
FNDA:0,_RINvMs_NtNtNtNtNtNtCs2Zzx8WPYKXd_15otel_arrow_rust5proto13opentelemetry9collector4logs2v119logs_service_clientINtB5_17LogsServiceClientpE16with_interceptorpEBh_
FNDA:0,_RINvMsc_NtNtNtNtNtCs2Zzx8WPYKXd_15otel_arrow_rust5proto13opentelemetry9collector4logs2v1NtB6_24ExportLogsPartialSuccess3newpEBg_
FNDA:0,_RINvMsc_NtNtNtNtNtCs2Zzx8WPYKXd_15otel_arrow_rust5proto13opentelemetry9collector4logs2v1NtB6_24ExportLogsPartialSuccess5buildpEBg_
FNDA:0,_RINvMsd_NtNtNtNtNtCs2Zzx8WPYKXd_15otel_arrow_rust5proto13opentelemetry9collector4logs2v1NtB6_31ExportLogsPartialSuccessBuilder13error_messagepEBg_
FNDA:0,_RINvMsd_NtNtNtNtNtCs2Zzx8WPYKXd_15otel_arrow_rust5proto13opentelemetry9collector4logs2v1NtB6_31ExportLogsPartialSuccessBuilder20rejected_log_recordspEBg_
FNDA:0,_RINvNvXsk_NtNtNtNtNtCs2Zzx8WPYKXd_15otel_arrow_rust5proto13opentelemetry9collector4logs2v1NtB8_24ExportLogsPartialSuccessNtNtCs8sCtDi7t2F4_4core3fmt5Debug3fmt13ScalarWrapperpEBi_
FNDA:0,_RINvNvXsk_NtNtNtNtNtCs2Zzx8WPYKXd_15otel_arrow_rust5proto13opentelemetry9collector4logs2v1NtB8_24ExportLogsPartialSuccessNtNtCs8sCtDi7t2F4_4core3fmt5Debug3fmts_13ScalarWrapperpEBi_
FNDA:0,_RNvMNtNtNtNtNtNtCs2Zzx8WPYKXd_15otel_arrow_rust5proto13opentelemetry9collector4logs2v119logs_service_serverINtB2_17LogsServiceServerpE15send_compressedBe_
FNDA:0,_RNvMNtNtNtNtNtNtCs2Zzx8WPYKXd_15otel_arrow_rust5proto13opentelemetry9collector4logs2v119logs_service_serverINtB2_17LogsServiceServerpE17accept_compressedBe_
FNDA:0,_RNvMNtNtNtNtNtNtCs2Zzx8WPYKXd_15otel_arrow_rust5proto13opentelemetry9collector4logs2v119logs_service_serverINtB2_17LogsServiceServerpE25max_decoding_message_sizeBe_
FNDA:0,_RNvMNtNtNtNtNtNtCs2Zzx8WPYKXd_15otel_arrow_rust5proto13opentelemetry9collector4logs2v119logs_service_serverINtB2_17LogsServiceServerpE25max_encoding_message_sizeBe_
FNDA:0,_RNvMs_NtNtNtNtNtNtCs2Zzx8WPYKXd_15otel_arrow_rust5proto13opentelemetry9collector4logs2v119logs_service_clientINtB4_17LogsServiceClientpE11with_originBg_
FNDA:0,_RNvMs_NtNtNtNtNtNtCs2Zzx8WPYKXd_15otel_arrow_rust5proto13opentelemetry9collector4logs2v119logs_service_clientINtB4_17LogsServiceClientpE15send_compressedBg_
FNDA:0,_RNvMs_NtNtNtNtNtNtCs2Zzx8WPYKXd_15otel_arrow_rust5proto13opentelemetry9collector4logs2v119logs_service_clientINtB4_17LogsServiceClientpE17accept_compressedBg_
FNDA:0,_RNvMs_NtNtNtNtNtNtCs2Zzx8WPYKXd_15otel_arrow_rust5proto13opentelemetry9collector4logs2v119logs_service_clientINtB4_17LogsServiceClientpE25max_decoding_message_sizeBg_
FNDA:0,_RNvMs_NtNtNtNtNtNtCs2Zzx8WPYKXd_15otel_arrow_rust5proto13opentelemetry9collector4logs2v119logs_service_clientINtB4_17LogsServiceClientpE25max_encoding_message_sizeBg_
FNDA:0,_RNvMsd_NtNtNtNtNtCs2Zzx8WPYKXd_15otel_arrow_rust5proto13opentelemetry9collector4logs2v1NtB5_31ExportLogsPartialSuccessBuilder6finish
FNDA:0,_RNvXs2_NtNtNtNtNtCs2Zzx8WPYKXd_15otel_arrow_rust5proto13opentelemetry9collector4logs2v1NtB5_24ExportLogsServiceRequestNtNtCs9ugllKyEvyV_5prost7message7Message5clear
FNDA:0,_RNvXs9_NtNtNtNtNtCs2Zzx8WPYKXd_15otel_arrow_rust5proto13opentelemetry9collector4logs2v1NtB5_25ExportLogsServiceResponseNtNtCs9ugllKyEvyV_5prost7message7Message5clear
FNDA:0,_RNvXsb_NtNtNtNtNtCs2Zzx8WPYKXd_15otel_arrow_rust5proto13opentelemetry9collector4logs2v1NtB5_25ExportLogsServiceResponseNtNtCs8sCtDi7t2F4_4core3fmt5Debug3fmt
FNDA:0,_RNvXse_NtNtNtNtNtCs2Zzx8WPYKXd_15otel_arrow_rust5proto13opentelemetry9collector4logs2v1NtB5_24ExportLogsPartialSuccessINtNtCs8sCtDi7t2F4_4core7convert4FromNtB5_31ExportLogsPartialSuccessBuilderE4from
FNDA:0,_RNvXsi_NtNtNtNtNtCs2Zzx8WPYKXd_15otel_arrow_rust5proto13opentelemetry9collector4logs2v1NtB5_24ExportLogsPartialSuccessNtNtCs9ugllKyEvyV_5prost7message7Message5clear
FNDA:3,_RNvXs2_NtNtNtNtNtCs2Zzx8WPYKXd_15otel_arrow_rust5proto13opentelemetry9collector4logs2v1NtB5_24ExportLogsServiceRequestNtNtCs9ugllKyEvyV_5prost7message7Message11encoded_lenBf_
FNDA:5,_RNvXs3_NtNtNtNtNtCs2Zzx8WPYKXd_15otel_arrow_rust5proto13opentelemetry9collector4logs2v1NtB5_24ExportLogsServiceRequestNtNtCs8sCtDi7t2F4_4core7default7Default7default
FNDA:0,_RNvXs4_NtNtNtNtNtCs2Zzx8WPYKXd_15otel_arrow_rust5proto13opentelemetry9collector4logs2v1NtB5_24ExportLogsServiceRequestNtNtCs8sCtDi7t2F4_4core3fmt5Debug3fmt
FNDA:4,_RNvXsa_NtNtNtNtNtCs2Zzx8WPYKXd_15otel_arrow_rust5proto13opentelemetry9collector4logs2v1NtB5_25ExportLogsServiceResponseNtNtCs8sCtDi7t2F4_4core7default7Default7default
FNDA:3,_RNvXsj_NtNtNtNtNtCs2Zzx8WPYKXd_15otel_arrow_rust5proto13opentelemetry9collector4logs2v1NtB5_24ExportLogsPartialSuccessNtNtCs8sCtDi7t2F4_4core7default7Default7default
FNDA:1,_RNCNvXNvXs_NtNtNtNtNtNtCs2Zzx8WPYKXd_15otel_arrow_rust5proto13opentelemetry9collector4logs2v119logs_service_serverINtB9_17LogsServiceServerpEINtCsl3eF1jQi4se_13tower_service7ServiceINtNtCsfWkY8aoTePL_4http7request7RequestpEE4callINtB4_9ExportSvcINtNtNtBl_10validation12service_type12TestReceiverNtBb_24ExportLogsServiceRequestEEINtNtNtCs87Lp0jQnWEh_5tonic6server7service12UnaryServiceB4J_E4call0Bl_
FNDA:1,_RNCNvXs_NtNtNtNtNtNtCs2Zzx8WPYKXd_15otel_arrow_rust5proto13opentelemetry9collector4logs2v119logs_service_serverINtB6_17LogsServiceServerINtNtNtBi_10validation12service_type12TestReceiverNtB8_24ExportLogsServiceRequestEEINtCsl3eF1jQi4se_13tower_service7ServiceINtNtCsfWkY8aoTePL_4http7request7RequestNtNtCs87Lp0jQnWEh_5tonic4body4BodyEE4call0Bi_
FNDA:0,_RNCNvXs_NtNtNtNtNtNtCs2Zzx8WPYKXd_15otel_arrow_rust5proto13opentelemetry9collector4logs2v119logs_service_serverINtB6_17LogsServiceServerINtNtNtBi_10validation12service_type12TestReceiverNtB8_24ExportLogsServiceRequestEEINtCsl3eF1jQi4se_13tower_service7ServiceINtNtCsfWkY8aoTePL_4http7request7RequestNtNtCs87Lp0jQnWEh_5tonic4body4BodyEE4calls_0Bi_
FNDA:1,_RNvMNtNtNtNtNtNtCs2Zzx8WPYKXd_15otel_arrow_rust5proto13opentelemetry9collector4logs2v119logs_service_serverINtB2_17LogsServiceServerINtNtNtBe_10validation12service_type12TestReceiverNtB4_24ExportLogsServiceRequestEE3newBe_
FNDA:1,_RNvMNtNtNtNtNtNtCs2Zzx8WPYKXd_15otel_arrow_rust5proto13opentelemetry9collector4logs2v119logs_service_serverINtB2_17LogsServiceServerINtNtNtBe_10validation12service_type12TestReceiverNtB4_24ExportLogsServiceRequestEE8from_arcBe_
FNDA:1,_RNvXNvXs_NtNtNtNtNtNtCs2Zzx8WPYKXd_15otel_arrow_rust5proto13opentelemetry9collector4logs2v119logs_service_serverINtB7_17LogsServiceServerpEINtCsl3eF1jQi4se_13tower_service7ServiceINtNtCsfWkY8aoTePL_4http7request7RequestpEE4callINtB2_9ExportSvcINtNtNtBj_10validation12service_type12TestReceiverNtB9_24ExportLogsServiceRequestEEINtNtNtCs87Lp0jQnWEh_5tonic6server7service12UnaryServiceB4H_E4callBj_
FNDA:1,_RNvXs0_NtNtNtNtNtNtCs2Zzx8WPYKXd_15otel_arrow_rust5proto13opentelemetry9collector4logs2v119logs_service_serverINtB5_17LogsServiceServerINtNtNtBh_10validation12service_type12TestReceiverNtB7_24ExportLogsServiceRequestEENtNtCs8sCtDi7t2F4_4core5clone5Clone5cloneBh_
FNDA:1,_RNvXs_NtNtNtNtNtNtCs2Zzx8WPYKXd_15otel_arrow_rust5proto13opentelemetry9collector4logs2v119logs_service_serverINtB4_17LogsServiceServerINtNtNtBg_10validation12service_type12TestReceiverNtB6_24ExportLogsServiceRequestEEINtCsl3eF1jQi4se_13tower_service7ServiceINtNtCsfWkY8aoTePL_4http7request7RequestNtNtCs87Lp0jQnWEh_5tonic4body4BodyEE10poll_readyBg_
FNDA:1,_RNvXs_NtNtNtNtNtNtCs2Zzx8WPYKXd_15otel_arrow_rust5proto13opentelemetry9collector4logs2v119logs_service_serverINtB4_17LogsServiceServerINtNtNtBg_10validation12service_type12TestReceiverNtB6_24ExportLogsServiceRequestEEINtCsl3eF1jQi4se_13tower_service7ServiceINtNtCsfWkY8aoTePL_4http7request7RequestNtNtCs87Lp0jQnWEh_5tonic4body4BodyEE4callBg_
FNDA:3,_RINvMNtNtNtNtNtCs2Zzx8WPYKXd_15otel_arrow_rust5proto13opentelemetry9collector4logs2v1NtB3_24ExportLogsServiceRequest3newINtNtCshFLakfGc1jx_5alloc3vec3VecNtNtNtB9_4logs2v112ResourceLogsEEBd_
FNDA:0,_RNCINvXs2_NtNtNtNtNtCs2Zzx8WPYKXd_15otel_arrow_rust5proto13opentelemetry9collector4logs2v1NtB8_24ExportLogsServiceRequestNtNtCs9ugllKyEvyV_5prost7message7Message11merge_fieldQQNtNtNtCs87Lp0jQnWEh_5tonic5codec6buffer9DecodeBufE0Bi_
FNDA:0,_RNCINvXs9_NtNtNtNtNtCs2Zzx8WPYKXd_15otel_arrow_rust5proto13opentelemetry9collector4logs2v1NtB8_25ExportLogsServiceResponseNtNtCs9ugllKyEvyV_5prost7message7Message11merge_fieldQQNtNtNtCs87Lp0jQnWEh_5tonic5codec6buffer9DecodeBufE0Bi_
FNDA:0,_RNCINvXsi_NtNtNtNtNtCs2Zzx8WPYKXd_15otel_arrow_rust5proto13opentelemetry9collector4logs2v1NtB8_24ExportLogsPartialSuccessNtNtCs9ugllKyEvyV_5prost7message7Message11merge_fieldQQNtNtNtCs87Lp0jQnWEh_5tonic5codec6buffer9DecodeBufE0Bi_
FNDA:0,_RNCINvXsi_NtNtNtNtNtCs2Zzx8WPYKXd_15otel_arrow_rust5proto13opentelemetry9collector4logs2v1NtB8_24ExportLogsPartialSuccessNtNtCs9ugllKyEvyV_5prost7message7Message11merge_fieldQQNtNtNtCs87Lp0jQnWEh_5tonic5codec6buffer9DecodeBufEs_0Bi_
FNDA:0,_RNCNvXs9_NtNtNtNtNtCs2Zzx8WPYKXd_15otel_arrow_rust5proto13opentelemetry9collector4logs2v1NtB7_25ExportLogsServiceResponseNtNtCs9ugllKyEvyV_5prost7message7Message11encoded_len0Bh_
FNDA:3,_RINvMNtNtNtNtNtNtCs2Zzx8WPYKXd_15otel_arrow_rust5proto13opentelemetry9collector4logs2v119logs_service_clientINtB3_17LogsServiceClientNtNtNtCs87Lp0jQnWEh_5tonic9transport7channel7ChannelE7connectNtNtCshFLakfGc1jx_5alloc6string6StringEBf_
FNDA:3,_RINvMs_NtNtNtNtNtNtCs2Zzx8WPYKXd_15otel_arrow_rust5proto13opentelemetry9collector4logs2v119logs_service_clientINtB5_17LogsServiceClientNtNtNtCs87Lp0jQnWEh_5tonic9transport7channel7ChannelE6exportINtNtB2f_7request7RequestNtB7_24ExportLogsServiceRequestEEBh_
FNDA:3,_RNCINvMNtNtNtNtNtNtCs2Zzx8WPYKXd_15otel_arrow_rust5proto13opentelemetry9collector4logs2v119logs_service_clientINtB5_17LogsServiceClientNtNtNtCs87Lp0jQnWEh_5tonic9transport7channel7ChannelE7connectNtNtCshFLakfGc1jx_5alloc6string6StringE0Bh_
FNDA:3,_RNCINvMs_NtNtNtNtNtNtCs2Zzx8WPYKXd_15otel_arrow_rust5proto13opentelemetry9collector4logs2v119logs_service_clientINtB7_17LogsServiceClientNtNtNtCs87Lp0jQnWEh_5tonic9transport7channel7ChannelE6exportINtNtB2h_7request7RequestNtB9_24ExportLogsServiceRequestEE0Bj_
FNDA:0,_RNCNCINvMs_NtNtNtNtNtNtCs2Zzx8WPYKXd_15otel_arrow_rust5proto13opentelemetry9collector4logs2v119logs_service_clientINtB9_17LogsServiceClientNtNtNtCs87Lp0jQnWEh_5tonic9transport7channel7ChannelE6exportINtNtB2j_7request7RequestNtBb_24ExportLogsServiceRequestEE00Bl_
FNDA:3,_RNvMs_NtNtNtNtNtNtCs2Zzx8WPYKXd_15otel_arrow_rust5proto13opentelemetry9collector4logs2v119logs_service_clientINtB4_17LogsServiceClientNtNtNtCs87Lp0jQnWEh_5tonic9transport7channel7ChannelE3newBg_
FNF:29
FNH:16
DA:2,11
DA:9,4
DA:16,3
DA:46,3
DA:47,3
DA:48,3
DA:49,3
DA:50,3
DA:51,3
DA:52,3
DA:53,3
DA:62,3
DA:63,3
DA:64,3
DA:65,3
DA:66,0
DA:67,0
DA:68,0
DA:69,0
DA:70,0
DA:71,0
DA:72,0
DA:73,0
DA:74,0
DA:75,0
DA:76,0
DA:77,0
DA:78,0
DA:79,0
DA:80,0
DA:81,0
DA:82,0
DA:83,0
DA:84,0
DA:85,0
DA:86,0
DA:87,0
DA:88,0
DA:94,0
DA:95,0
DA:96,0
DA:97,0
DA:100,0
DA:101,0
DA:102,0
DA:103,0
DA:108,0
DA:109,0
DA:110,0
DA:111,0
DA:116,0
DA:117,0
DA:118,0
DA:119,0
DA:120,3
DA:121,3
DA:122,3
DA:123,3
DA:124,3
DA:125,3
DA:126,3
DA:127,3
DA:128,3
DA:129,3
DA:130,3
DA:131,0
DA:132,0
DA:133,0
DA:134,3
DA:135,3
DA:136,3
DA:137,3
DA:138,3
DA:139,3
DA:140,3
DA:141,3
DA:142,3
DA:143,3
DA:144,3
DA:145,3
DA:146,3
DA:147,3
DA:148,3
DA:185,1
DA:186,1
DA:187,1
DA:188,1
DA:189,1
DA:190,1
DA:191,1
DA:192,1
DA:193,1
DA:194,1
DA:195,1
DA:196,1
DA:197,0
DA:198,0
DA:199,0
DA:200,0
DA:201,0
DA:202,0
DA:203,0
DA:204,0
DA:205,0
DA:208,0
DA:209,0
DA:210,0
DA:211,0
DA:214,0
DA:215,0
DA:216,0
DA:217,0
DA:222,0
DA:223,0
DA:224,0
DA:225,0
DA:230,0
DA:231,0
DA:232,0
DA:233,0
DA:244,1
DA:245,1
DA:246,1
DA:247,1
DA:248,1
DA:249,1
DA:250,1
DA:251,1
DA:252,1
DA:254,1
DA:255,1
DA:264,1
DA:265,1
DA:266,1
DA:267,1
DA:268,1
DA:269,1
DA:270,1
DA:271,1
DA:272,1
DA:273,1
DA:275,1
DA:276,1
DA:277,1
DA:278,1
DA:279,1
DA:280,1
DA:281,1
DA:282,1
DA:283,1
DA:284,1
DA:285,1
DA:286,1
DA:287,1
DA:288,1
DA:289,1
DA:290,1
DA:291,1
DA:292,1
DA:293,1
DA:294,1
DA:295,1
DA:298,0
DA:299,0
DA:300,0
DA:301,0
DA:302,0
DA:303,0
DA:304,0
DA:305,0
DA:306,0
DA:307,0
DA:308,0
DA:309,0
DA:310,0
DA:311,0
DA:312,0
DA:313,0
DA:314,0
DA:317,1
DA:320,1
DA:321,1
DA:322,1
DA:323,1
DA:324,1
DA:325,1
DA:326,1
DA:327,1
DA:328,1
DA:329,1
BRF:0
BRH:0
LF:198
LH:110
end_of_record
SF:/Users/d.dahl/code/otel-arrow/rust/otel-arrow-rust/src/proto/opentelemetry.proto.collector.metrics.v1.rs
FN:197,_RINvMNtNtNtNtNtNtCs2Zzx8WPYKXd_15otel_arrow_rust5proto13opentelemetry9collector7metrics2v122metrics_service_serverINtB3_20MetricsServiceServerpE16with_interceptorpEBf_
FN:9,_RINvMs5_NtNtNtNtNtCs2Zzx8WPYKXd_15otel_arrow_rust5proto13opentelemetry9collector7metrics2v1NtB6_28ExportMetricsServiceResponse3newpEBg_
FN:70,_RINvMs_NtNtNtNtNtNtCs2Zzx8WPYKXd_15otel_arrow_rust5proto13opentelemetry9collector7metrics2v122metrics_service_clientINtB5_20MetricsServiceClientpE16with_interceptorpEBh_
FN:16,_RINvMsc_NtNtNtNtNtCs2Zzx8WPYKXd_15otel_arrow_rust5proto13opentelemetry9collector7metrics2v1NtB6_27ExportMetricsPartialSuccess3newpEBg_
FN:16,_RINvMsc_NtNtNtNtNtCs2Zzx8WPYKXd_15otel_arrow_rust5proto13opentelemetry9collector7metrics2v1NtB6_27ExportMetricsPartialSuccess5buildpEBg_
FN:16,_RINvMsd_NtNtNtNtNtCs2Zzx8WPYKXd_15otel_arrow_rust5proto13opentelemetry9collector7metrics2v1NtB6_34ExportMetricsPartialSuccessBuilder13error_messagepEBg_
FN:16,_RINvMsd_NtNtNtNtNtCs2Zzx8WPYKXd_15otel_arrow_rust5proto13opentelemetry9collector7metrics2v1NtB6_34ExportMetricsPartialSuccessBuilder20rejected_data_pointspEBg_
FN:16,_RINvNvXsk_NtNtNtNtNtCs2Zzx8WPYKXd_15otel_arrow_rust5proto13opentelemetry9collector7metrics2v1NtB8_27ExportMetricsPartialSuccessNtNtCs8sCtDi7t2F4_4core3fmt5Debug3fmt13ScalarWrapperpEBi_
FN:16,_RINvNvXsk_NtNtNtNtNtCs2Zzx8WPYKXd_15otel_arrow_rust5proto13opentelemetry9collector7metrics2v1NtB8_27ExportMetricsPartialSuccessNtNtCs8sCtDi7t2F4_4core3fmt5Debug3fmts_13ScalarWrapperpEBi_
FN:214,_RNvMNtNtNtNtNtNtCs2Zzx8WPYKXd_15otel_arrow_rust5proto13opentelemetry9collector7metrics2v122metrics_service_serverINtB2_20MetricsServiceServerpE15send_compressedBe_
FN:208,_RNvMNtNtNtNtNtNtCs2Zzx8WPYKXd_15otel_arrow_rust5proto13opentelemetry9collector7metrics2v122metrics_service_serverINtB2_20MetricsServiceServerpE17accept_compressedBe_
FN:222,_RNvMNtNtNtNtNtNtCs2Zzx8WPYKXd_15otel_arrow_rust5proto13opentelemetry9collector7metrics2v122metrics_service_serverINtB2_20MetricsServiceServerpE25max_decoding_message_sizeBe_
FN:230,_RNvMNtNtNtNtNtNtCs2Zzx8WPYKXd_15otel_arrow_rust5proto13opentelemetry9collector7metrics2v122metrics_service_serverINtB2_20MetricsServiceServerpE25max_encoding_message_sizeBe_
FN:66,_RNvMs_NtNtNtNtNtNtCs2Zzx8WPYKXd_15otel_arrow_rust5proto13opentelemetry9collector7metrics2v122metrics_service_clientINtB4_20MetricsServiceClientpE11with_originBg_
FN:94,_RNvMs_NtNtNtNtNtNtCs2Zzx8WPYKXd_15otel_arrow_rust5proto13opentelemetry9collector7metrics2v122metrics_service_clientINtB4_20MetricsServiceClientpE15send_compressedBg_
FN:100,_RNvMs_NtNtNtNtNtNtCs2Zzx8WPYKXd_15otel_arrow_rust5proto13opentelemetry9collector7metrics2v122metrics_service_clientINtB4_20MetricsServiceClientpE17accept_compressedBg_
FN:108,_RNvMs_NtNtNtNtNtNtCs2Zzx8WPYKXd_15otel_arrow_rust5proto13opentelemetry9collector7metrics2v122metrics_service_clientINtB4_20MetricsServiceClientpE25max_decoding_message_sizeBg_
FN:116,_RNvMs_NtNtNtNtNtNtCs2Zzx8WPYKXd_15otel_arrow_rust5proto13opentelemetry9collector7metrics2v122metrics_service_clientINtB4_20MetricsServiceClientpE25max_encoding_message_sizeBg_
FN:16,_RNvMsd_NtNtNtNtNtCs2Zzx8WPYKXd_15otel_arrow_rust5proto13opentelemetry9collector7metrics2v1NtB5_34ExportMetricsPartialSuccessBuilder6finish
FN:2,_RNvXs2_NtNtNtNtNtCs2Zzx8WPYKXd_15otel_arrow_rust5proto13opentelemetry9collector7metrics2v1NtB5_27ExportMetricsServiceRequestNtNtCs9ugllKyEvyV_5prost7message7Message5clear
FN:9,_RNvXs9_NtNtNtNtNtCs2Zzx8WPYKXd_15otel_arrow_rust5proto13opentelemetry9collector7metrics2v1NtB5_28ExportMetricsServiceResponseNtNtCs9ugllKyEvyV_5prost7message7Message5clear
FN:9,_RNvXsb_NtNtNtNtNtCs2Zzx8WPYKXd_15otel_arrow_rust5proto13opentelemetry9collector7metrics2v1NtB5_28ExportMetricsServiceResponseNtNtCs8sCtDi7t2F4_4core3fmt5Debug3fmt
FN:16,_RNvXse_NtNtNtNtNtCs2Zzx8WPYKXd_15otel_arrow_rust5proto13opentelemetry9collector7metrics2v1NtB5_27ExportMetricsPartialSuccessINtNtCs8sCtDi7t2F4_4core7convert4FromNtB5_34ExportMetricsPartialSuccessBuilderE4from
FN:16,_RNvXsi_NtNtNtNtNtCs2Zzx8WPYKXd_15otel_arrow_rust5proto13opentelemetry9collector7metrics2v1NtB5_27ExportMetricsPartialSuccessNtNtCs9ugllKyEvyV_5prost7message7Message5clear
FN:2,_RNvXs2_NtNtNtNtNtCs2Zzx8WPYKXd_15otel_arrow_rust5proto13opentelemetry9collector7metrics2v1NtB5_27ExportMetricsServiceRequestNtNtCs9ugllKyEvyV_5prost7message7Message11encoded_lenBf_
FN:2,_RNvXs3_NtNtNtNtNtCs2Zzx8WPYKXd_15otel_arrow_rust5proto13opentelemetry9collector7metrics2v1NtB5_27ExportMetricsServiceRequestNtNtCs8sCtDi7t2F4_4core7default7Default7default
FN:2,_RNvXs4_NtNtNtNtNtCs2Zzx8WPYKXd_15otel_arrow_rust5proto13opentelemetry9collector7metrics2v1NtB5_27ExportMetricsServiceRequestNtNtCs8sCtDi7t2F4_4core3fmt5Debug3fmt
FN:9,_RNvXsa_NtNtNtNtNtCs2Zzx8WPYKXd_15otel_arrow_rust5proto13opentelemetry9collector7metrics2v1NtB5_28ExportMetricsServiceResponseNtNtCs8sCtDi7t2F4_4core7default7Default7default
FN:16,_RNvXsj_NtNtNtNtNtCs2Zzx8WPYKXd_15otel_arrow_rust5proto13opentelemetry9collector7metrics2v1NtB5_27ExportMetricsPartialSuccessNtNtCs8sCtDi7t2F4_4core7default7Default7default
FN:2,_RINvMNtNtNtNtNtCs2Zzx8WPYKXd_15otel_arrow_rust5proto13opentelemetry9collector7metrics2v1NtB3_27ExportMetricsServiceRequest3newINtNtCshFLakfGc1jx_5alloc3vec3VecNtNtNtB9_7metrics2v115ResourceMetricsEEBd_
FN:2,_RNCINvXs2_NtNtNtNtNtCs2Zzx8WPYKXd_15otel_arrow_rust5proto13opentelemetry9collector7metrics2v1NtB8_27ExportMetricsServiceRequestNtNtCs9ugllKyEvyV_5prost7message7Message11merge_fieldQQNtNtNtCs87Lp0jQnWEh_5tonic5codec6buffer9DecodeBufE0Bi_
FN:9,_RNCINvXs9_NtNtNtNtNtCs2Zzx8WPYKXd_15otel_arrow_rust5proto13opentelemetry9collector7metrics2v1NtB8_28ExportMetricsServiceResponseNtNtCs9ugllKyEvyV_5prost7message7Message11merge_fieldQQNtNtNtCs87Lp0jQnWEh_5tonic5codec6buffer9DecodeBufE0Bi_
FN:16,_RNCINvXsi_NtNtNtNtNtCs2Zzx8WPYKXd_15otel_arrow_rust5proto13opentelemetry9collector7metrics2v1NtB8_27ExportMetricsPartialSuccessNtNtCs9ugllKyEvyV_5prost7message7Message11merge_fieldQQNtNtNtCs87Lp0jQnWEh_5tonic5codec6buffer9DecodeBufE0Bi_
FN:16,_RNCINvXsi_NtNtNtNtNtCs2Zzx8WPYKXd_15otel_arrow_rust5proto13opentelemetry9collector7metrics2v1NtB8_27ExportMetricsPartialSuccessNtNtCs9ugllKyEvyV_5prost7message7Message11merge_fieldQQNtNtNtCs87Lp0jQnWEh_5tonic5codec6buffer9DecodeBufEs_0Bi_
FN:9,_RNCNvXs9_NtNtNtNtNtCs2Zzx8WPYKXd_15otel_arrow_rust5proto13opentelemetry9collector7metrics2v1NtB7_28ExportMetricsServiceResponseNtNtCs9ugllKyEvyV_5prost7message7Message11encoded_len0Bh_
FN:269,_RNCNvXNvXs_NtNtNtNtNtNtCs2Zzx8WPYKXd_15otel_arrow_rust5proto13opentelemetry9collector7metrics2v122metrics_service_serverINtB9_20MetricsServiceServerpEINtCsl3eF1jQi4se_13tower_service7ServiceINtNtCsfWkY8aoTePL_4http7request7RequestpEE4callINtB4_9ExportSvcINtNtNtBl_10validation12service_type12TestReceiverNtBb_27ExportMetricsServiceRequestEEINtNtNtCs87Lp0jQnWEh_5tonic6server7service12UnaryServiceB4S_E4call0Bl_
FN:280,_RNCNvXs_NtNtNtNtNtNtCs2Zzx8WPYKXd_15otel_arrow_rust5proto13opentelemetry9collector7metrics2v122metrics_service_serverINtB6_20MetricsServiceServerINtNtNtBi_10validation12service_type12TestReceiverNtB8_27ExportMetricsServiceRequestEEINtCsl3eF1jQi4se_13tower_service7ServiceINtNtCsfWkY8aoTePL_4http7request7RequestNtNtCs87Lp0jQnWEh_5tonic4body4BodyEE4call0Bi_
FN:298,_RNCNvXs_NtNtNtNtNtNtCs2Zzx8WPYKXd_15otel_arrow_rust5proto13opentelemetry9collector7metrics2v122metrics_service_serverINtB6_20MetricsServiceServerINtNtNtBi_10validation12service_type12TestReceiverNtB8_27ExportMetricsServiceRequestEEINtCsl3eF1jQi4se_13tower_service7ServiceINtNtCsfWkY8aoTePL_4http7request7RequestNtNtCs87Lp0jQnWEh_5tonic4body4BodyEE4calls_0Bi_
FN:185,_RNvMNtNtNtNtNtNtCs2Zzx8WPYKXd_15otel_arrow_rust5proto13opentelemetry9collector7metrics2v122metrics_service_serverINtB2_20MetricsServiceServerINtNtNtBe_10validation12service_type12TestReceiverNtB4_27ExportMetricsServiceRequestEE3newBe_
FN:188,_RNvMNtNtNtNtNtNtCs2Zzx8WPYKXd_15otel_arrow_rust5proto13opentelemetry9collector7metrics2v122metrics_service_serverINtB2_20MetricsServiceServerINtNtNtBe_10validation12service_type12TestReceiverNtB4_27ExportMetricsServiceRequestEE8from_arcBe_
FN:264,_RNvXNvXs_NtNtNtNtNtNtCs2Zzx8WPYKXd_15otel_arrow_rust5proto13opentelemetry9collector7metrics2v122metrics_service_serverINtB7_20MetricsServiceServerpEINtCsl3eF1jQi4se_13tower_service7ServiceINtNtCsfWkY8aoTePL_4http7request7RequestpEE4callINtB2_9ExportSvcINtNtNtBj_10validation12service_type12TestReceiverNtB9_27ExportMetricsServiceRequestEEINtNtNtCs87Lp0jQnWEh_5tonic6server7service12UnaryServiceB4Q_E4callBj_
FN:320,_RNvXs0_NtNtNtNtNtNtCs2Zzx8WPYKXd_15otel_arrow_rust5proto13opentelemetry9collector7metrics2v122metrics_service_serverINtB5_20MetricsServiceServerINtNtNtBh_10validation12service_type12TestReceiverNtB7_27ExportMetricsServiceRequestEENtNtCs8sCtDi7t2F4_4core5clone5Clone5cloneBh_
FN:244,_RNvXs_NtNtNtNtNtNtCs2Zzx8WPYKXd_15otel_arrow_rust5proto13opentelemetry9collector7metrics2v122metrics_service_serverINtB4_20MetricsServiceServerINtNtNtBg_10validation12service_type12TestReceiverNtB6_27ExportMetricsServiceRequestEEINtCsl3eF1jQi4se_13tower_service7ServiceINtNtCsfWkY8aoTePL_4http7request7RequestNtNtCs87Lp0jQnWEh_5tonic4body4BodyEE10poll_readyBg_
FN:250,_RNvXs_NtNtNtNtNtNtCs2Zzx8WPYKXd_15otel_arrow_rust5proto13opentelemetry9collector7metrics2v122metrics_service_serverINtB4_20MetricsServiceServerINtNtNtBg_10validation12service_type12TestReceiverNtB6_27ExportMetricsServiceRequestEEINtCsl3eF1jQi4se_13tower_service7ServiceINtNtCsfWkY8aoTePL_4http7request7RequestNtNtCs87Lp0jQnWEh_5tonic4body4BodyEE4callBg_
FN:46,_RINvMNtNtNtNtNtNtCs2Zzx8WPYKXd_15otel_arrow_rust5proto13opentelemetry9collector7metrics2v122metrics_service_clientINtB3_20MetricsServiceClientNtNtNtCs87Lp0jQnWEh_5tonic9transport7channel7ChannelE7connectNtNtCshFLakfGc1jx_5alloc6string6StringEBf_
FN:120,_RINvMs_NtNtNtNtNtNtCs2Zzx8WPYKXd_15otel_arrow_rust5proto13opentelemetry9collector7metrics2v122metrics_service_clientINtB5_20MetricsServiceClientNtNtNtCs87Lp0jQnWEh_5tonic9transport7channel7ChannelE6exportINtNtB2o_7request7RequestNtB7_27ExportMetricsServiceRequestEEBh_
FN:50,_RNCINvMNtNtNtNtNtNtCs2Zzx8WPYKXd_15otel_arrow_rust5proto13opentelemetry9collector7metrics2v122metrics_service_clientINtB5_20MetricsServiceClientNtNtNtCs87Lp0jQnWEh_5tonic9transport7channel7ChannelE7connectNtNtCshFLakfGc1jx_5alloc6string6StringE0Bh_
FN:126,_RNCINvMs_NtNtNtNtNtNtCs2Zzx8WPYKXd_15otel_arrow_rust5proto13opentelemetry9collector7metrics2v122metrics_service_clientINtB7_20MetricsServiceClientNtNtNtCs87Lp0jQnWEh_5tonic9transport7channel7ChannelE6exportINtNtB2q_7request7RequestNtB9_27ExportMetricsServiceRequestEE0Bj_
FN:130,_RNCNCINvMs_NtNtNtNtNtNtCs2Zzx8WPYKXd_15otel_arrow_rust5proto13opentelemetry9collector7metrics2v122metrics_service_clientINtB9_20MetricsServiceClientNtNtNtCs87Lp0jQnWEh_5tonic9transport7channel7ChannelE6exportINtNtB2s_7request7RequestNtBb_27ExportMetricsServiceRequestEE00Bl_
FN:62,_RNvMs_NtNtNtNtNtNtCs2Zzx8WPYKXd_15otel_arrow_rust5proto13opentelemetry9collector7metrics2v122metrics_service_clientINtB4_20MetricsServiceClientNtNtNtCs87Lp0jQnWEh_5tonic9transport7channel7ChannelE3newBg_
FNDA:0,_RINvMNtNtNtNtNtNtCs2Zzx8WPYKXd_15otel_arrow_rust5proto13opentelemetry9collector7metrics2v122metrics_service_serverINtB3_20MetricsServiceServerpE16with_interceptorpEBf_
FNDA:0,_RINvMs5_NtNtNtNtNtCs2Zzx8WPYKXd_15otel_arrow_rust5proto13opentelemetry9collector7metrics2v1NtB6_28ExportMetricsServiceResponse3newpEBg_
FNDA:0,_RINvMs_NtNtNtNtNtNtCs2Zzx8WPYKXd_15otel_arrow_rust5proto13opentelemetry9collector7metrics2v122metrics_service_clientINtB5_20MetricsServiceClientpE16with_interceptorpEBh_
FNDA:0,_RINvMsc_NtNtNtNtNtCs2Zzx8WPYKXd_15otel_arrow_rust5proto13opentelemetry9collector7metrics2v1NtB6_27ExportMetricsPartialSuccess3newpEBg_
FNDA:0,_RINvMsc_NtNtNtNtNtCs2Zzx8WPYKXd_15otel_arrow_rust5proto13opentelemetry9collector7metrics2v1NtB6_27ExportMetricsPartialSuccess5buildpEBg_
FNDA:0,_RINvMsd_NtNtNtNtNtCs2Zzx8WPYKXd_15otel_arrow_rust5proto13opentelemetry9collector7metrics2v1NtB6_34ExportMetricsPartialSuccessBuilder13error_messagepEBg_
FNDA:0,_RINvMsd_NtNtNtNtNtCs2Zzx8WPYKXd_15otel_arrow_rust5proto13opentelemetry9collector7metrics2v1NtB6_34ExportMetricsPartialSuccessBuilder20rejected_data_pointspEBg_
FNDA:0,_RINvNvXsk_NtNtNtNtNtCs2Zzx8WPYKXd_15otel_arrow_rust5proto13opentelemetry9collector7metrics2v1NtB8_27ExportMetricsPartialSuccessNtNtCs8sCtDi7t2F4_4core3fmt5Debug3fmt13ScalarWrapperpEBi_
FNDA:0,_RINvNvXsk_NtNtNtNtNtCs2Zzx8WPYKXd_15otel_arrow_rust5proto13opentelemetry9collector7metrics2v1NtB8_27ExportMetricsPartialSuccessNtNtCs8sCtDi7t2F4_4core3fmt5Debug3fmts_13ScalarWrapperpEBi_
FNDA:0,_RNvMNtNtNtNtNtNtCs2Zzx8WPYKXd_15otel_arrow_rust5proto13opentelemetry9collector7metrics2v122metrics_service_serverINtB2_20MetricsServiceServerpE15send_compressedBe_
FNDA:0,_RNvMNtNtNtNtNtNtCs2Zzx8WPYKXd_15otel_arrow_rust5proto13opentelemetry9collector7metrics2v122metrics_service_serverINtB2_20MetricsServiceServerpE17accept_compressedBe_
FNDA:0,_RNvMNtNtNtNtNtNtCs2Zzx8WPYKXd_15otel_arrow_rust5proto13opentelemetry9collector7metrics2v122metrics_service_serverINtB2_20MetricsServiceServerpE25max_decoding_message_sizeBe_
FNDA:0,_RNvMNtNtNtNtNtNtCs2Zzx8WPYKXd_15otel_arrow_rust5proto13opentelemetry9collector7metrics2v122metrics_service_serverINtB2_20MetricsServiceServerpE25max_encoding_message_sizeBe_
FNDA:0,_RNvMs_NtNtNtNtNtNtCs2Zzx8WPYKXd_15otel_arrow_rust5proto13opentelemetry9collector7metrics2v122metrics_service_clientINtB4_20MetricsServiceClientpE11with_originBg_
FNDA:0,_RNvMs_NtNtNtNtNtNtCs2Zzx8WPYKXd_15otel_arrow_rust5proto13opentelemetry9collector7metrics2v122metrics_service_clientINtB4_20MetricsServiceClientpE15send_compressedBg_
FNDA:0,_RNvMs_NtNtNtNtNtNtCs2Zzx8WPYKXd_15otel_arrow_rust5proto13opentelemetry9collector7metrics2v122metrics_service_clientINtB4_20MetricsServiceClientpE17accept_compressedBg_
FNDA:0,_RNvMs_NtNtNtNtNtNtCs2Zzx8WPYKXd_15otel_arrow_rust5proto13opentelemetry9collector7metrics2v122metrics_service_clientINtB4_20MetricsServiceClientpE25max_decoding_message_sizeBg_
FNDA:0,_RNvMs_NtNtNtNtNtNtCs2Zzx8WPYKXd_15otel_arrow_rust5proto13opentelemetry9collector7metrics2v122metrics_service_clientINtB4_20MetricsServiceClientpE25max_encoding_message_sizeBg_
FNDA:0,_RNvMsd_NtNtNtNtNtCs2Zzx8WPYKXd_15otel_arrow_rust5proto13opentelemetry9collector7metrics2v1NtB5_34ExportMetricsPartialSuccessBuilder6finish
FNDA:0,_RNvXs2_NtNtNtNtNtCs2Zzx8WPYKXd_15otel_arrow_rust5proto13opentelemetry9collector7metrics2v1NtB5_27ExportMetricsServiceRequestNtNtCs9ugllKyEvyV_5prost7message7Message5clear
FNDA:0,_RNvXs9_NtNtNtNtNtCs2Zzx8WPYKXd_15otel_arrow_rust5proto13opentelemetry9collector7metrics2v1NtB5_28ExportMetricsServiceResponseNtNtCs9ugllKyEvyV_5prost7message7Message5clear
FNDA:0,_RNvXsb_NtNtNtNtNtCs2Zzx8WPYKXd_15otel_arrow_rust5proto13opentelemetry9collector7metrics2v1NtB5_28ExportMetricsServiceResponseNtNtCs8sCtDi7t2F4_4core3fmt5Debug3fmt
FNDA:0,_RNvXse_NtNtNtNtNtCs2Zzx8WPYKXd_15otel_arrow_rust5proto13opentelemetry9collector7metrics2v1NtB5_27ExportMetricsPartialSuccessINtNtCs8sCtDi7t2F4_4core7convert4FromNtB5_34ExportMetricsPartialSuccessBuilderE4from
FNDA:0,_RNvXsi_NtNtNtNtNtCs2Zzx8WPYKXd_15otel_arrow_rust5proto13opentelemetry9collector7metrics2v1NtB5_27ExportMetricsPartialSuccessNtNtCs9ugllKyEvyV_5prost7message7Message5clear
FNDA:2,_RNvXs2_NtNtNtNtNtCs2Zzx8WPYKXd_15otel_arrow_rust5proto13opentelemetry9collector7metrics2v1NtB5_27ExportMetricsServiceRequestNtNtCs9ugllKyEvyV_5prost7message7Message11encoded_lenBf_
FNDA:3,_RNvXs3_NtNtNtNtNtCs2Zzx8WPYKXd_15otel_arrow_rust5proto13opentelemetry9collector7metrics2v1NtB5_27ExportMetricsServiceRequestNtNtCs8sCtDi7t2F4_4core7default7Default7default
FNDA:0,_RNvXs4_NtNtNtNtNtCs2Zzx8WPYKXd_15otel_arrow_rust5proto13opentelemetry9collector7metrics2v1NtB5_27ExportMetricsServiceRequestNtNtCs8sCtDi7t2F4_4core3fmt5Debug3fmt
FNDA:3,_RNvXsa_NtNtNtNtNtCs2Zzx8WPYKXd_15otel_arrow_rust5proto13opentelemetry9collector7metrics2v1NtB5_28ExportMetricsServiceResponseNtNtCs8sCtDi7t2F4_4core7default7Default7default
FNDA:2,_RNvXsj_NtNtNtNtNtCs2Zzx8WPYKXd_15otel_arrow_rust5proto13opentelemetry9collector7metrics2v1NtB5_27ExportMetricsPartialSuccessNtNtCs8sCtDi7t2F4_4core7default7Default7default
FNDA:2,_RINvMNtNtNtNtNtCs2Zzx8WPYKXd_15otel_arrow_rust5proto13opentelemetry9collector7metrics2v1NtB3_27ExportMetricsServiceRequest3newINtNtCshFLakfGc1jx_5alloc3vec3VecNtNtNtB9_7metrics2v115ResourceMetricsEEBd_
FNDA:0,_RNCINvXs2_NtNtNtNtNtCs2Zzx8WPYKXd_15otel_arrow_rust5proto13opentelemetry9collector7metrics2v1NtB8_27ExportMetricsServiceRequestNtNtCs9ugllKyEvyV_5prost7message7Message11merge_fieldQQNtNtNtCs87Lp0jQnWEh_5tonic5codec6buffer9DecodeBufE0Bi_
FNDA:0,_RNCINvXs9_NtNtNtNtNtCs2Zzx8WPYKXd_15otel_arrow_rust5proto13opentelemetry9collector7metrics2v1NtB8_28ExportMetricsServiceResponseNtNtCs9ugllKyEvyV_5prost7message7Message11merge_fieldQQNtNtNtCs87Lp0jQnWEh_5tonic5codec6buffer9DecodeBufE0Bi_
FNDA:0,_RNCINvXsi_NtNtNtNtNtCs2Zzx8WPYKXd_15otel_arrow_rust5proto13opentelemetry9collector7metrics2v1NtB8_27ExportMetricsPartialSuccessNtNtCs9ugllKyEvyV_5prost7message7Message11merge_fieldQQNtNtNtCs87Lp0jQnWEh_5tonic5codec6buffer9DecodeBufE0Bi_
FNDA:0,_RNCINvXsi_NtNtNtNtNtCs2Zzx8WPYKXd_15otel_arrow_rust5proto13opentelemetry9collector7metrics2v1NtB8_27ExportMetricsPartialSuccessNtNtCs9ugllKyEvyV_5prost7message7Message11merge_fieldQQNtNtNtCs87Lp0jQnWEh_5tonic5codec6buffer9DecodeBufEs_0Bi_
FNDA:0,_RNCNvXs9_NtNtNtNtNtCs2Zzx8WPYKXd_15otel_arrow_rust5proto13opentelemetry9collector7metrics2v1NtB7_28ExportMetricsServiceResponseNtNtCs9ugllKyEvyV_5prost7message7Message11encoded_len0Bh_
FNDA:1,_RNCNvXNvXs_NtNtNtNtNtNtCs2Zzx8WPYKXd_15otel_arrow_rust5proto13opentelemetry9collector7metrics2v122metrics_service_serverINtB9_20MetricsServiceServerpEINtCsl3eF1jQi4se_13tower_service7ServiceINtNtCsfWkY8aoTePL_4http7request7RequestpEE4callINtB4_9ExportSvcINtNtNtBl_10validation12service_type12TestReceiverNtBb_27ExportMetricsServiceRequestEEINtNtNtCs87Lp0jQnWEh_5tonic6server7service12UnaryServiceB4S_E4call0Bl_
FNDA:1,_RNCNvXs_NtNtNtNtNtNtCs2Zzx8WPYKXd_15otel_arrow_rust5proto13opentelemetry9collector7metrics2v122metrics_service_serverINtB6_20MetricsServiceServerINtNtNtBi_10validation12service_type12TestReceiverNtB8_27ExportMetricsServiceRequestEEINtCsl3eF1jQi4se_13tower_service7ServiceINtNtCsfWkY8aoTePL_4http7request7RequestNtNtCs87Lp0jQnWEh_5tonic4body4BodyEE4call0Bi_
FNDA:0,_RNCNvXs_NtNtNtNtNtNtCs2Zzx8WPYKXd_15otel_arrow_rust5proto13opentelemetry9collector7metrics2v122metrics_service_serverINtB6_20MetricsServiceServerINtNtNtBi_10validation12service_type12TestReceiverNtB8_27ExportMetricsServiceRequestEEINtCsl3eF1jQi4se_13tower_service7ServiceINtNtCsfWkY8aoTePL_4http7request7RequestNtNtCs87Lp0jQnWEh_5tonic4body4BodyEE4calls_0Bi_
FNDA:1,_RNvMNtNtNtNtNtNtCs2Zzx8WPYKXd_15otel_arrow_rust5proto13opentelemetry9collector7metrics2v122metrics_service_serverINtB2_20MetricsServiceServerINtNtNtBe_10validation12service_type12TestReceiverNtB4_27ExportMetricsServiceRequestEE3newBe_
FNDA:1,_RNvMNtNtNtNtNtNtCs2Zzx8WPYKXd_15otel_arrow_rust5proto13opentelemetry9collector7metrics2v122metrics_service_serverINtB2_20MetricsServiceServerINtNtNtBe_10validation12service_type12TestReceiverNtB4_27ExportMetricsServiceRequestEE8from_arcBe_
FNDA:1,_RNvXNvXs_NtNtNtNtNtNtCs2Zzx8WPYKXd_15otel_arrow_rust5proto13opentelemetry9collector7metrics2v122metrics_service_serverINtB7_20MetricsServiceServerpEINtCsl3eF1jQi4se_13tower_service7ServiceINtNtCsfWkY8aoTePL_4http7request7RequestpEE4callINtB2_9ExportSvcINtNtNtBj_10validation12service_type12TestReceiverNtB9_27ExportMetricsServiceRequestEEINtNtNtCs87Lp0jQnWEh_5tonic6server7service12UnaryServiceB4Q_E4callBj_
FNDA:1,_RNvXs0_NtNtNtNtNtNtCs2Zzx8WPYKXd_15otel_arrow_rust5proto13opentelemetry9collector7metrics2v122metrics_service_serverINtB5_20MetricsServiceServerINtNtNtBh_10validation12service_type12TestReceiverNtB7_27ExportMetricsServiceRequestEENtNtCs8sCtDi7t2F4_4core5clone5Clone5cloneBh_
FNDA:1,_RNvXs_NtNtNtNtNtNtCs2Zzx8WPYKXd_15otel_arrow_rust5proto13opentelemetry9collector7metrics2v122metrics_service_serverINtB4_20MetricsServiceServerINtNtNtBg_10validation12service_type12TestReceiverNtB6_27ExportMetricsServiceRequestEEINtCsl3eF1jQi4se_13tower_service7ServiceINtNtCsfWkY8aoTePL_4http7request7RequestNtNtCs87Lp0jQnWEh_5tonic4body4BodyEE10poll_readyBg_
FNDA:1,_RNvXs_NtNtNtNtNtNtCs2Zzx8WPYKXd_15otel_arrow_rust5proto13opentelemetry9collector7metrics2v122metrics_service_serverINtB4_20MetricsServiceServerINtNtNtBg_10validation12service_type12TestReceiverNtB6_27ExportMetricsServiceRequestEEINtCsl3eF1jQi4se_13tower_service7ServiceINtNtCsfWkY8aoTePL_4http7request7RequestNtNtCs87Lp0jQnWEh_5tonic4body4BodyEE4callBg_
FNDA:2,_RINvMNtNtNtNtNtNtCs2Zzx8WPYKXd_15otel_arrow_rust5proto13opentelemetry9collector7metrics2v122metrics_service_clientINtB3_20MetricsServiceClientNtNtNtCs87Lp0jQnWEh_5tonic9transport7channel7ChannelE7connectNtNtCshFLakfGc1jx_5alloc6string6StringEBf_
FNDA:2,_RINvMs_NtNtNtNtNtNtCs2Zzx8WPYKXd_15otel_arrow_rust5proto13opentelemetry9collector7metrics2v122metrics_service_clientINtB5_20MetricsServiceClientNtNtNtCs87Lp0jQnWEh_5tonic9transport7channel7ChannelE6exportINtNtB2o_7request7RequestNtB7_27ExportMetricsServiceRequestEEBh_
FNDA:2,_RNCINvMNtNtNtNtNtNtCs2Zzx8WPYKXd_15otel_arrow_rust5proto13opentelemetry9collector7metrics2v122metrics_service_clientINtB5_20MetricsServiceClientNtNtNtCs87Lp0jQnWEh_5tonic9transport7channel7ChannelE7connectNtNtCshFLakfGc1jx_5alloc6string6StringE0Bh_
FNDA:2,_RNCINvMs_NtNtNtNtNtNtCs2Zzx8WPYKXd_15otel_arrow_rust5proto13opentelemetry9collector7metrics2v122metrics_service_clientINtB7_20MetricsServiceClientNtNtNtCs87Lp0jQnWEh_5tonic9transport7channel7ChannelE6exportINtNtB2q_7request7RequestNtB9_27ExportMetricsServiceRequestEE0Bj_
FNDA:0,_RNCNCINvMs_NtNtNtNtNtNtCs2Zzx8WPYKXd_15otel_arrow_rust5proto13opentelemetry9collector7metrics2v122metrics_service_clientINtB9_20MetricsServiceClientNtNtNtCs87Lp0jQnWEh_5tonic9transport7channel7ChannelE6exportINtNtB2s_7request7RequestNtBb_27ExportMetricsServiceRequestEE00Bl_
FNDA:2,_RNvMs_NtNtNtNtNtNtCs2Zzx8WPYKXd_15otel_arrow_rust5proto13opentelemetry9collector7metrics2v122metrics_service_clientINtB4_20MetricsServiceClientNtNtNtCs87Lp0jQnWEh_5tonic9transport7channel7ChannelE3newBg_
FNF:29
FNH:16
DA:2,7
DA:9,3
DA:16,2
DA:46,2
DA:47,2
DA:48,2
DA:49,2
DA:50,2
DA:51,2
DA:52,2
DA:53,2
DA:62,2
DA:63,2
DA:64,2
DA:65,2
DA:66,0
DA:67,0
DA:68,0
DA:69,0
DA:70,0
DA:71,0
DA:72,0
DA:73,0
DA:74,0
DA:75,0
DA:76,0
DA:77,0
DA:78,0
DA:79,0
DA:80,0
DA:81,0
DA:82,0
DA:83,0
DA:84,0
DA:85,0
DA:86,0
DA:87,0
DA:88,0
DA:94,0
DA:95,0
DA:96,0
DA:97,0
DA:100,0
DA:101,0
DA:102,0
DA:103,0
DA:108,0
DA:109,0
DA:110,0
DA:111,0
DA:116,0
DA:117,0
DA:118,0
DA:119,0
DA:120,2
DA:121,2
DA:122,2
DA:123,2
DA:124,2
DA:125,2
DA:126,2
DA:127,2
DA:128,2
DA:129,2
DA:130,2
DA:131,0
DA:132,0
DA:133,0
DA:134,2
DA:135,2
DA:136,2
DA:137,2
DA:138,2
DA:139,2
DA:140,2
DA:141,2
DA:142,2
DA:143,2
DA:144,2
DA:145,2
DA:146,2
DA:147,2
DA:148,2
DA:185,1
DA:186,1
DA:187,1
DA:188,1
DA:189,1
DA:190,1
DA:191,1
DA:192,1
DA:193,1
DA:194,1
DA:195,1
DA:196,1
DA:197,0
DA:198,0
DA:199,0
DA:200,0
DA:201,0
DA:202,0
DA:203,0
DA:204,0
DA:205,0
DA:208,0
DA:209,0
DA:210,0
DA:211,0
DA:214,0
DA:215,0
DA:216,0
DA:217,0
DA:222,0
DA:223,0
DA:224,0
DA:225,0
DA:230,0
DA:231,0
DA:232,0
DA:233,0
DA:244,1
DA:245,1
DA:246,1
DA:247,1
DA:248,1
DA:249,1
DA:250,1
DA:251,1
DA:252,1
DA:254,1
DA:255,1
DA:264,1
DA:265,1
DA:266,1
DA:267,1
DA:268,1
DA:269,1
DA:270,1
DA:271,1
DA:272,1
DA:273,1
DA:275,1
DA:276,1
DA:277,1
DA:278,1
DA:279,1
DA:280,1
DA:281,1
DA:282,1
DA:283,1
DA:284,1
DA:285,1
DA:286,1
DA:287,1
DA:288,1
DA:289,1
DA:290,1
DA:291,1
DA:292,1
DA:293,1
DA:294,1
DA:295,1
DA:298,0
DA:299,0
DA:300,0
DA:301,0
DA:302,0
DA:303,0
DA:304,0
DA:305,0
DA:306,0
DA:307,0
DA:308,0
DA:309,0
DA:310,0
DA:311,0
DA:312,0
DA:313,0
DA:314,0
DA:317,1
DA:320,1
DA:321,1
DA:322,1
DA:323,1
DA:324,1
DA:325,1
DA:326,1
DA:327,1
DA:328,1
DA:329,1
BRF:0
BRH:0
LF:198
LH:110
end_of_record
SF:/Users/d.dahl/code/otel-arrow/rust/otel-arrow-rust/src/proto/opentelemetry.proto.collector.trace.v1.rs
FN:197,_RINvMNtNtNtNtNtNtCs2Zzx8WPYKXd_15otel_arrow_rust5proto13opentelemetry9collector5trace2v120trace_service_serverINtB3_18TraceServiceServerpE16with_interceptorpEBf_
FN:9,_RINvMs5_NtNtNtNtNtCs2Zzx8WPYKXd_15otel_arrow_rust5proto13opentelemetry9collector5trace2v1NtB6_26ExportTraceServiceResponse3newpEBg_
FN:70,_RINvMs_NtNtNtNtNtNtCs2Zzx8WPYKXd_15otel_arrow_rust5proto13opentelemetry9collector5trace2v120trace_service_clientINtB5_18TraceServiceClientpE16with_interceptorpEBh_
FN:16,_RINvMsc_NtNtNtNtNtCs2Zzx8WPYKXd_15otel_arrow_rust5proto13opentelemetry9collector5trace2v1NtB6_25ExportTracePartialSuccess3newpEBg_
FN:16,_RINvMsc_NtNtNtNtNtCs2Zzx8WPYKXd_15otel_arrow_rust5proto13opentelemetry9collector5trace2v1NtB6_25ExportTracePartialSuccess5buildpEBg_
FN:16,_RINvMsd_NtNtNtNtNtCs2Zzx8WPYKXd_15otel_arrow_rust5proto13opentelemetry9collector5trace2v1NtB6_32ExportTracePartialSuccessBuilder13error_messagepEBg_
FN:16,_RINvMsd_NtNtNtNtNtCs2Zzx8WPYKXd_15otel_arrow_rust5proto13opentelemetry9collector5trace2v1NtB6_32ExportTracePartialSuccessBuilder14rejected_spanspEBg_
FN:16,_RINvNvXsk_NtNtNtNtNtCs2Zzx8WPYKXd_15otel_arrow_rust5proto13opentelemetry9collector5trace2v1NtB8_25ExportTracePartialSuccessNtNtCs8sCtDi7t2F4_4core3fmt5Debug3fmt13ScalarWrapperpEBi_
FN:16,_RINvNvXsk_NtNtNtNtNtCs2Zzx8WPYKXd_15otel_arrow_rust5proto13opentelemetry9collector5trace2v1NtB8_25ExportTracePartialSuccessNtNtCs8sCtDi7t2F4_4core3fmt5Debug3fmts_13ScalarWrapperpEBi_
FN:214,_RNvMNtNtNtNtNtNtCs2Zzx8WPYKXd_15otel_arrow_rust5proto13opentelemetry9collector5trace2v120trace_service_serverINtB2_18TraceServiceServerpE15send_compressedBe_
FN:208,_RNvMNtNtNtNtNtNtCs2Zzx8WPYKXd_15otel_arrow_rust5proto13opentelemetry9collector5trace2v120trace_service_serverINtB2_18TraceServiceServerpE17accept_compressedBe_
FN:222,_RNvMNtNtNtNtNtNtCs2Zzx8WPYKXd_15otel_arrow_rust5proto13opentelemetry9collector5trace2v120trace_service_serverINtB2_18TraceServiceServerpE25max_decoding_message_sizeBe_
FN:230,_RNvMNtNtNtNtNtNtCs2Zzx8WPYKXd_15otel_arrow_rust5proto13opentelemetry9collector5trace2v120trace_service_serverINtB2_18TraceServiceServerpE25max_encoding_message_sizeBe_
FN:66,_RNvMs_NtNtNtNtNtNtCs2Zzx8WPYKXd_15otel_arrow_rust5proto13opentelemetry9collector5trace2v120trace_service_clientINtB4_18TraceServiceClientpE11with_originBg_
FN:94,_RNvMs_NtNtNtNtNtNtCs2Zzx8WPYKXd_15otel_arrow_rust5proto13opentelemetry9collector5trace2v120trace_service_clientINtB4_18TraceServiceClientpE15send_compressedBg_
FN:100,_RNvMs_NtNtNtNtNtNtCs2Zzx8WPYKXd_15otel_arrow_rust5proto13opentelemetry9collector5trace2v120trace_service_clientINtB4_18TraceServiceClientpE17accept_compressedBg_
FN:108,_RNvMs_NtNtNtNtNtNtCs2Zzx8WPYKXd_15otel_arrow_rust5proto13opentelemetry9collector5trace2v120trace_service_clientINtB4_18TraceServiceClientpE25max_decoding_message_sizeBg_
FN:116,_RNvMs_NtNtNtNtNtNtCs2Zzx8WPYKXd_15otel_arrow_rust5proto13opentelemetry9collector5trace2v120trace_service_clientINtB4_18TraceServiceClientpE25max_encoding_message_sizeBg_
FN:16,_RNvMsd_NtNtNtNtNtCs2Zzx8WPYKXd_15otel_arrow_rust5proto13opentelemetry9collector5trace2v1NtB5_32ExportTracePartialSuccessBuilder6finish
FN:2,_RNvXs2_NtNtNtNtNtCs2Zzx8WPYKXd_15otel_arrow_rust5proto13opentelemetry9collector5trace2v1NtB5_25ExportTraceServiceRequestNtNtCs9ugllKyEvyV_5prost7message7Message5clear
FN:9,_RNvXs9_NtNtNtNtNtCs2Zzx8WPYKXd_15otel_arrow_rust5proto13opentelemetry9collector5trace2v1NtB5_26ExportTraceServiceResponseNtNtCs9ugllKyEvyV_5prost7message7Message5clear
FN:9,_RNvXsb_NtNtNtNtNtCs2Zzx8WPYKXd_15otel_arrow_rust5proto13opentelemetry9collector5trace2v1NtB5_26ExportTraceServiceResponseNtNtCs8sCtDi7t2F4_4core3fmt5Debug3fmt
FN:16,_RNvXse_NtNtNtNtNtCs2Zzx8WPYKXd_15otel_arrow_rust5proto13opentelemetry9collector5trace2v1NtB5_25ExportTracePartialSuccessINtNtCs8sCtDi7t2F4_4core7convert4FromNtB5_32ExportTracePartialSuccessBuilderE4from
FN:16,_RNvXsi_NtNtNtNtNtCs2Zzx8WPYKXd_15otel_arrow_rust5proto13opentelemetry9collector5trace2v1NtB5_25ExportTracePartialSuccessNtNtCs9ugllKyEvyV_5prost7message7Message5clear
FN:2,_RINvMNtNtNtNtNtCs2Zzx8WPYKXd_15otel_arrow_rust5proto13opentelemetry9collector5trace2v1NtB3_25ExportTraceServiceRequest3newINtNtCshFLakfGc1jx_5alloc3vec3VecNtNtNtB9_5trace2v113ResourceSpansEEBd_
FN:2,_RNCINvXs2_NtNtNtNtNtCs2Zzx8WPYKXd_15otel_arrow_rust5proto13opentelemetry9collector5trace2v1NtB8_25ExportTraceServiceRequestNtNtCs9ugllKyEvyV_5prost7message7Message11merge_fieldQQNtNtNtCs87Lp0jQnWEh_5tonic5codec6buffer9DecodeBufE0Bi_
FN:9,_RNCINvXs9_NtNtNtNtNtCs2Zzx8WPYKXd_15otel_arrow_rust5proto13opentelemetry9collector5trace2v1NtB8_26ExportTraceServiceResponseNtNtCs9ugllKyEvyV_5prost7message7Message11merge_fieldQQNtNtNtCs87Lp0jQnWEh_5tonic5codec6buffer9DecodeBufE0Bi_
FN:16,_RNCINvXsi_NtNtNtNtNtCs2Zzx8WPYKXd_15otel_arrow_rust5proto13opentelemetry9collector5trace2v1NtB8_25ExportTracePartialSuccessNtNtCs9ugllKyEvyV_5prost7message7Message11merge_fieldQQNtNtNtCs87Lp0jQnWEh_5tonic5codec6buffer9DecodeBufE0Bi_
FN:16,_RNCINvXsi_NtNtNtNtNtCs2Zzx8WPYKXd_15otel_arrow_rust5proto13opentelemetry9collector5trace2v1NtB8_25ExportTracePartialSuccessNtNtCs9ugllKyEvyV_5prost7message7Message11merge_fieldQQNtNtNtCs87Lp0jQnWEh_5tonic5codec6buffer9DecodeBufEs_0Bi_
FN:9,_RNCNvXs9_NtNtNtNtNtCs2Zzx8WPYKXd_15otel_arrow_rust5proto13opentelemetry9collector5trace2v1NtB7_26ExportTraceServiceResponseNtNtCs9ugllKyEvyV_5prost7message7Message11encoded_len0Bh_
FN:2,_RNvXs2_NtNtNtNtNtCs2Zzx8WPYKXd_15otel_arrow_rust5proto13opentelemetry9collector5trace2v1NtB5_25ExportTraceServiceRequestNtNtCs9ugllKyEvyV_5prost7message7Message11encoded_lenBf_
FN:2,_RNvXs3_NtNtNtNtNtCs2Zzx8WPYKXd_15otel_arrow_rust5proto13opentelemetry9collector5trace2v1NtB5_25ExportTraceServiceRequestNtNtCs8sCtDi7t2F4_4core7default7Default7default
FN:2,_RNvXs4_NtNtNtNtNtCs2Zzx8WPYKXd_15otel_arrow_rust5proto13opentelemetry9collector5trace2v1NtB5_25ExportTraceServiceRequestNtNtCs8sCtDi7t2F4_4core3fmt5Debug3fmt
FN:9,_RNvXsa_NtNtNtNtNtCs2Zzx8WPYKXd_15otel_arrow_rust5proto13opentelemetry9collector5trace2v1NtB5_26ExportTraceServiceResponseNtNtCs8sCtDi7t2F4_4core7default7Default7default
FN:16,_RNvXsj_NtNtNtNtNtCs2Zzx8WPYKXd_15otel_arrow_rust5proto13opentelemetry9collector5trace2v1NtB5_25ExportTracePartialSuccessNtNtCs8sCtDi7t2F4_4core7default7Default7default
FN:46,_RINvMNtNtNtNtNtNtCs2Zzx8WPYKXd_15otel_arrow_rust5proto13opentelemetry9collector5trace2v120trace_service_clientINtB3_18TraceServiceClientNtNtNtCs87Lp0jQnWEh_5tonic9transport7channel7ChannelE7connectNtNtCshFLakfGc1jx_5alloc6string6StringEBf_
FN:120,_RINvMs_NtNtNtNtNtNtCs2Zzx8WPYKXd_15otel_arrow_rust5proto13opentelemetry9collector5trace2v120trace_service_clientINtB5_18TraceServiceClientNtNtNtCs87Lp0jQnWEh_5tonic9transport7channel7ChannelE6exportINtNtB2i_7request7RequestNtB7_25ExportTraceServiceRequestEEBh_
FN:50,_RNCINvMNtNtNtNtNtNtCs2Zzx8WPYKXd_15otel_arrow_rust5proto13opentelemetry9collector5trace2v120trace_service_clientINtB5_18TraceServiceClientNtNtNtCs87Lp0jQnWEh_5tonic9transport7channel7ChannelE7connectNtNtCshFLakfGc1jx_5alloc6string6StringE0Bh_
FN:126,_RNCINvMs_NtNtNtNtNtNtCs2Zzx8WPYKXd_15otel_arrow_rust5proto13opentelemetry9collector5trace2v120trace_service_clientINtB7_18TraceServiceClientNtNtNtCs87Lp0jQnWEh_5tonic9transport7channel7ChannelE6exportINtNtB2k_7request7RequestNtB9_25ExportTraceServiceRequestEE0Bj_
FN:130,_RNCNCINvMs_NtNtNtNtNtNtCs2Zzx8WPYKXd_15otel_arrow_rust5proto13opentelemetry9collector5trace2v120trace_service_clientINtB9_18TraceServiceClientNtNtNtCs87Lp0jQnWEh_5tonic9transport7channel7ChannelE6exportINtNtB2m_7request7RequestNtBb_25ExportTraceServiceRequestEE00Bl_
FN:62,_RNvMs_NtNtNtNtNtNtCs2Zzx8WPYKXd_15otel_arrow_rust5proto13opentelemetry9collector5trace2v120trace_service_clientINtB4_18TraceServiceClientNtNtNtCs87Lp0jQnWEh_5tonic9transport7channel7ChannelE3newBg_
FN:269,_RNCNvXNvXs_NtNtNtNtNtNtCs2Zzx8WPYKXd_15otel_arrow_rust5proto13opentelemetry9collector5trace2v120trace_service_serverINtB9_18TraceServiceServerpEINtCsl3eF1jQi4se_13tower_service7ServiceINtNtCsfWkY8aoTePL_4http7request7RequestpEE4callINtB4_9ExportSvcINtNtNtBl_10validation12service_type12TestReceiverNtBb_25ExportTraceServiceRequestEEINtNtNtCs87Lp0jQnWEh_5tonic6server7service12UnaryServiceB4M_E4call0Bl_
FN:280,_RNCNvXs_NtNtNtNtNtNtCs2Zzx8WPYKXd_15otel_arrow_rust5proto13opentelemetry9collector5trace2v120trace_service_serverINtB6_18TraceServiceServerINtNtNtBi_10validation12service_type12TestReceiverNtB8_25ExportTraceServiceRequestEEINtCsl3eF1jQi4se_13tower_service7ServiceINtNtCsfWkY8aoTePL_4http7request7RequestNtNtCs87Lp0jQnWEh_5tonic4body4BodyEE4call0Bi_
FN:298,_RNCNvXs_NtNtNtNtNtNtCs2Zzx8WPYKXd_15otel_arrow_rust5proto13opentelemetry9collector5trace2v120trace_service_serverINtB6_18TraceServiceServerINtNtNtBi_10validation12service_type12TestReceiverNtB8_25ExportTraceServiceRequestEEINtCsl3eF1jQi4se_13tower_service7ServiceINtNtCsfWkY8aoTePL_4http7request7RequestNtNtCs87Lp0jQnWEh_5tonic4body4BodyEE4calls_0Bi_
FN:185,_RNvMNtNtNtNtNtNtCs2Zzx8WPYKXd_15otel_arrow_rust5proto13opentelemetry9collector5trace2v120trace_service_serverINtB2_18TraceServiceServerINtNtNtBe_10validation12service_type12TestReceiverNtB4_25ExportTraceServiceRequestEE3newBe_
FN:188,_RNvMNtNtNtNtNtNtCs2Zzx8WPYKXd_15otel_arrow_rust5proto13opentelemetry9collector5trace2v120trace_service_serverINtB2_18TraceServiceServerINtNtNtBe_10validation12service_type12TestReceiverNtB4_25ExportTraceServiceRequestEE8from_arcBe_
FN:264,_RNvXNvXs_NtNtNtNtNtNtCs2Zzx8WPYKXd_15otel_arrow_rust5proto13opentelemetry9collector5trace2v120trace_service_serverINtB7_18TraceServiceServerpEINtCsl3eF1jQi4se_13tower_service7ServiceINtNtCsfWkY8aoTePL_4http7request7RequestpEE4callINtB2_9ExportSvcINtNtNtBj_10validation12service_type12TestReceiverNtB9_25ExportTraceServiceRequestEEINtNtNtCs87Lp0jQnWEh_5tonic6server7service12UnaryServiceB4K_E4callBj_
FN:320,_RNvXs0_NtNtNtNtNtNtCs2Zzx8WPYKXd_15otel_arrow_rust5proto13opentelemetry9collector5trace2v120trace_service_serverINtB5_18TraceServiceServerINtNtNtBh_10validation12service_type12TestReceiverNtB7_25ExportTraceServiceRequestEENtNtCs8sCtDi7t2F4_4core5clone5Clone5cloneBh_
FN:244,_RNvXs_NtNtNtNtNtNtCs2Zzx8WPYKXd_15otel_arrow_rust5proto13opentelemetry9collector5trace2v120trace_service_serverINtB4_18TraceServiceServerINtNtNtBg_10validation12service_type12TestReceiverNtB6_25ExportTraceServiceRequestEEINtCsl3eF1jQi4se_13tower_service7ServiceINtNtCsfWkY8aoTePL_4http7request7RequestNtNtCs87Lp0jQnWEh_5tonic4body4BodyEE10poll_readyBg_
FN:250,_RNvXs_NtNtNtNtNtNtCs2Zzx8WPYKXd_15otel_arrow_rust5proto13opentelemetry9collector5trace2v120trace_service_serverINtB4_18TraceServiceServerINtNtNtBg_10validation12service_type12TestReceiverNtB6_25ExportTraceServiceRequestEEINtCsl3eF1jQi4se_13tower_service7ServiceINtNtCsfWkY8aoTePL_4http7request7RequestNtNtCs87Lp0jQnWEh_5tonic4body4BodyEE4callBg_
FNDA:0,_RINvMNtNtNtNtNtNtCs2Zzx8WPYKXd_15otel_arrow_rust5proto13opentelemetry9collector5trace2v120trace_service_serverINtB3_18TraceServiceServerpE16with_interceptorpEBf_
FNDA:0,_RINvMs5_NtNtNtNtNtCs2Zzx8WPYKXd_15otel_arrow_rust5proto13opentelemetry9collector5trace2v1NtB6_26ExportTraceServiceResponse3newpEBg_
FNDA:0,_RINvMs_NtNtNtNtNtNtCs2Zzx8WPYKXd_15otel_arrow_rust5proto13opentelemetry9collector5trace2v120trace_service_clientINtB5_18TraceServiceClientpE16with_interceptorpEBh_
FNDA:0,_RINvMsc_NtNtNtNtNtCs2Zzx8WPYKXd_15otel_arrow_rust5proto13opentelemetry9collector5trace2v1NtB6_25ExportTracePartialSuccess3newpEBg_
FNDA:0,_RINvMsc_NtNtNtNtNtCs2Zzx8WPYKXd_15otel_arrow_rust5proto13opentelemetry9collector5trace2v1NtB6_25ExportTracePartialSuccess5buildpEBg_
FNDA:0,_RINvMsd_NtNtNtNtNtCs2Zzx8WPYKXd_15otel_arrow_rust5proto13opentelemetry9collector5trace2v1NtB6_32ExportTracePartialSuccessBuilder13error_messagepEBg_
FNDA:0,_RINvMsd_NtNtNtNtNtCs2Zzx8WPYKXd_15otel_arrow_rust5proto13opentelemetry9collector5trace2v1NtB6_32ExportTracePartialSuccessBuilder14rejected_spanspEBg_
FNDA:0,_RINvNvXsk_NtNtNtNtNtCs2Zzx8WPYKXd_15otel_arrow_rust5proto13opentelemetry9collector5trace2v1NtB8_25ExportTracePartialSuccessNtNtCs8sCtDi7t2F4_4core3fmt5Debug3fmt13ScalarWrapperpEBi_
FNDA:0,_RINvNvXsk_NtNtNtNtNtCs2Zzx8WPYKXd_15otel_arrow_rust5proto13opentelemetry9collector5trace2v1NtB8_25ExportTracePartialSuccessNtNtCs8sCtDi7t2F4_4core3fmt5Debug3fmts_13ScalarWrapperpEBi_
FNDA:0,_RNvMNtNtNtNtNtNtCs2Zzx8WPYKXd_15otel_arrow_rust5proto13opentelemetry9collector5trace2v120trace_service_serverINtB2_18TraceServiceServerpE15send_compressedBe_
FNDA:0,_RNvMNtNtNtNtNtNtCs2Zzx8WPYKXd_15otel_arrow_rust5proto13opentelemetry9collector5trace2v120trace_service_serverINtB2_18TraceServiceServerpE17accept_compressedBe_
FNDA:0,_RNvMNtNtNtNtNtNtCs2Zzx8WPYKXd_15otel_arrow_rust5proto13opentelemetry9collector5trace2v120trace_service_serverINtB2_18TraceServiceServerpE25max_decoding_message_sizeBe_
FNDA:0,_RNvMNtNtNtNtNtNtCs2Zzx8WPYKXd_15otel_arrow_rust5proto13opentelemetry9collector5trace2v120trace_service_serverINtB2_18TraceServiceServerpE25max_encoding_message_sizeBe_
FNDA:0,_RNvMs_NtNtNtNtNtNtCs2Zzx8WPYKXd_15otel_arrow_rust5proto13opentelemetry9collector5trace2v120trace_service_clientINtB4_18TraceServiceClientpE11with_originBg_
FNDA:0,_RNvMs_NtNtNtNtNtNtCs2Zzx8WPYKXd_15otel_arrow_rust5proto13opentelemetry9collector5trace2v120trace_service_clientINtB4_18TraceServiceClientpE15send_compressedBg_
FNDA:0,_RNvMs_NtNtNtNtNtNtCs2Zzx8WPYKXd_15otel_arrow_rust5proto13opentelemetry9collector5trace2v120trace_service_clientINtB4_18TraceServiceClientpE17accept_compressedBg_
FNDA:0,_RNvMs_NtNtNtNtNtNtCs2Zzx8WPYKXd_15otel_arrow_rust5proto13opentelemetry9collector5trace2v120trace_service_clientINtB4_18TraceServiceClientpE25max_decoding_message_sizeBg_
FNDA:0,_RNvMs_NtNtNtNtNtNtCs2Zzx8WPYKXd_15otel_arrow_rust5proto13opentelemetry9collector5trace2v120trace_service_clientINtB4_18TraceServiceClientpE25max_encoding_message_sizeBg_
FNDA:0,_RNvMsd_NtNtNtNtNtCs2Zzx8WPYKXd_15otel_arrow_rust5proto13opentelemetry9collector5trace2v1NtB5_32ExportTracePartialSuccessBuilder6finish
FNDA:0,_RNvXs2_NtNtNtNtNtCs2Zzx8WPYKXd_15otel_arrow_rust5proto13opentelemetry9collector5trace2v1NtB5_25ExportTraceServiceRequestNtNtCs9ugllKyEvyV_5prost7message7Message5clear
FNDA:0,_RNvXs9_NtNtNtNtNtCs2Zzx8WPYKXd_15otel_arrow_rust5proto13opentelemetry9collector5trace2v1NtB5_26ExportTraceServiceResponseNtNtCs9ugllKyEvyV_5prost7message7Message5clear
FNDA:0,_RNvXsb_NtNtNtNtNtCs2Zzx8WPYKXd_15otel_arrow_rust5proto13opentelemetry9collector5trace2v1NtB5_26ExportTraceServiceResponseNtNtCs8sCtDi7t2F4_4core3fmt5Debug3fmt
FNDA:0,_RNvXse_NtNtNtNtNtCs2Zzx8WPYKXd_15otel_arrow_rust5proto13opentelemetry9collector5trace2v1NtB5_25ExportTracePartialSuccessINtNtCs8sCtDi7t2F4_4core7convert4FromNtB5_32ExportTracePartialSuccessBuilderE4from
FNDA:0,_RNvXsi_NtNtNtNtNtCs2Zzx8WPYKXd_15otel_arrow_rust5proto13opentelemetry9collector5trace2v1NtB5_25ExportTracePartialSuccessNtNtCs9ugllKyEvyV_5prost7message7Message5clear
FNDA:1,_RINvMNtNtNtNtNtCs2Zzx8WPYKXd_15otel_arrow_rust5proto13opentelemetry9collector5trace2v1NtB3_25ExportTraceServiceRequest3newINtNtCshFLakfGc1jx_5alloc3vec3VecNtNtNtB9_5trace2v113ResourceSpansEEBd_
FNDA:0,_RNCINvXs2_NtNtNtNtNtCs2Zzx8WPYKXd_15otel_arrow_rust5proto13opentelemetry9collector5trace2v1NtB8_25ExportTraceServiceRequestNtNtCs9ugllKyEvyV_5prost7message7Message11merge_fieldQQNtNtNtCs87Lp0jQnWEh_5tonic5codec6buffer9DecodeBufE0Bi_
FNDA:0,_RNCINvXs9_NtNtNtNtNtCs2Zzx8WPYKXd_15otel_arrow_rust5proto13opentelemetry9collector5trace2v1NtB8_26ExportTraceServiceResponseNtNtCs9ugllKyEvyV_5prost7message7Message11merge_fieldQQNtNtNtCs87Lp0jQnWEh_5tonic5codec6buffer9DecodeBufE0Bi_
FNDA:0,_RNCINvXsi_NtNtNtNtNtCs2Zzx8WPYKXd_15otel_arrow_rust5proto13opentelemetry9collector5trace2v1NtB8_25ExportTracePartialSuccessNtNtCs9ugllKyEvyV_5prost7message7Message11merge_fieldQQNtNtNtCs87Lp0jQnWEh_5tonic5codec6buffer9DecodeBufE0Bi_
FNDA:0,_RNCINvXsi_NtNtNtNtNtCs2Zzx8WPYKXd_15otel_arrow_rust5proto13opentelemetry9collector5trace2v1NtB8_25ExportTracePartialSuccessNtNtCs9ugllKyEvyV_5prost7message7Message11merge_fieldQQNtNtNtCs87Lp0jQnWEh_5tonic5codec6buffer9DecodeBufEs_0Bi_
FNDA:0,_RNCNvXs9_NtNtNtNtNtCs2Zzx8WPYKXd_15otel_arrow_rust5proto13opentelemetry9collector5trace2v1NtB7_26ExportTraceServiceResponseNtNtCs9ugllKyEvyV_5prost7message7Message11encoded_len0Bh_
FNDA:1,_RNvXs2_NtNtNtNtNtCs2Zzx8WPYKXd_15otel_arrow_rust5proto13opentelemetry9collector5trace2v1NtB5_25ExportTraceServiceRequestNtNtCs9ugllKyEvyV_5prost7message7Message11encoded_lenBf_
FNDA:1,_RNvXs3_NtNtNtNtNtCs2Zzx8WPYKXd_15otel_arrow_rust5proto13opentelemetry9collector5trace2v1NtB5_25ExportTraceServiceRequestNtNtCs8sCtDi7t2F4_4core7default7Default7default
FNDA:0,_RNvXs4_NtNtNtNtNtCs2Zzx8WPYKXd_15otel_arrow_rust5proto13opentelemetry9collector5trace2v1NtB5_25ExportTraceServiceRequestNtNtCs8sCtDi7t2F4_4core3fmt5Debug3fmt
FNDA:2,_RNvXsa_NtNtNtNtNtCs2Zzx8WPYKXd_15otel_arrow_rust5proto13opentelemetry9collector5trace2v1NtB5_26ExportTraceServiceResponseNtNtCs8sCtDi7t2F4_4core7default7Default7default
FNDA:1,_RNvXsj_NtNtNtNtNtCs2Zzx8WPYKXd_15otel_arrow_rust5proto13opentelemetry9collector5trace2v1NtB5_25ExportTracePartialSuccessNtNtCs8sCtDi7t2F4_4core7default7Default7default
FNDA:1,_RINvMNtNtNtNtNtNtCs2Zzx8WPYKXd_15otel_arrow_rust5proto13opentelemetry9collector5trace2v120trace_service_clientINtB3_18TraceServiceClientNtNtNtCs87Lp0jQnWEh_5tonic9transport7channel7ChannelE7connectNtNtCshFLakfGc1jx_5alloc6string6StringEBf_
FNDA:1,_RINvMs_NtNtNtNtNtNtCs2Zzx8WPYKXd_15otel_arrow_rust5proto13opentelemetry9collector5trace2v120trace_service_clientINtB5_18TraceServiceClientNtNtNtCs87Lp0jQnWEh_5tonic9transport7channel7ChannelE6exportINtNtB2i_7request7RequestNtB7_25ExportTraceServiceRequestEEBh_
FNDA:1,_RNCINvMNtNtNtNtNtNtCs2Zzx8WPYKXd_15otel_arrow_rust5proto13opentelemetry9collector5trace2v120trace_service_clientINtB5_18TraceServiceClientNtNtNtCs87Lp0jQnWEh_5tonic9transport7channel7ChannelE7connectNtNtCshFLakfGc1jx_5alloc6string6StringE0Bh_
FNDA:1,_RNCINvMs_NtNtNtNtNtNtCs2Zzx8WPYKXd_15otel_arrow_rust5proto13opentelemetry9collector5trace2v120trace_service_clientINtB7_18TraceServiceClientNtNtNtCs87Lp0jQnWEh_5tonic9transport7channel7ChannelE6exportINtNtB2k_7request7RequestNtB9_25ExportTraceServiceRequestEE0Bj_
FNDA:0,_RNCNCINvMs_NtNtNtNtNtNtCs2Zzx8WPYKXd_15otel_arrow_rust5proto13opentelemetry9collector5trace2v120trace_service_clientINtB9_18TraceServiceClientNtNtNtCs87Lp0jQnWEh_5tonic9transport7channel7ChannelE6exportINtNtB2m_7request7RequestNtBb_25ExportTraceServiceRequestEE00Bl_
FNDA:1,_RNvMs_NtNtNtNtNtNtCs2Zzx8WPYKXd_15otel_arrow_rust5proto13opentelemetry9collector5trace2v120trace_service_clientINtB4_18TraceServiceClientNtNtNtCs87Lp0jQnWEh_5tonic9transport7channel7ChannelE3newBg_
FNDA:1,_RNCNvXNvXs_NtNtNtNtNtNtCs2Zzx8WPYKXd_15otel_arrow_rust5proto13opentelemetry9collector5trace2v120trace_service_serverINtB9_18TraceServiceServerpEINtCsl3eF1jQi4se_13tower_service7ServiceINtNtCsfWkY8aoTePL_4http7request7RequestpEE4callINtB4_9ExportSvcINtNtNtBl_10validation12service_type12TestReceiverNtBb_25ExportTraceServiceRequestEEINtNtNtCs87Lp0jQnWEh_5tonic6server7service12UnaryServiceB4M_E4call0Bl_
FNDA:1,_RNCNvXs_NtNtNtNtNtNtCs2Zzx8WPYKXd_15otel_arrow_rust5proto13opentelemetry9collector5trace2v120trace_service_serverINtB6_18TraceServiceServerINtNtNtBi_10validation12service_type12TestReceiverNtB8_25ExportTraceServiceRequestEEINtCsl3eF1jQi4se_13tower_service7ServiceINtNtCsfWkY8aoTePL_4http7request7RequestNtNtCs87Lp0jQnWEh_5tonic4body4BodyEE4call0Bi_
FNDA:0,_RNCNvXs_NtNtNtNtNtNtCs2Zzx8WPYKXd_15otel_arrow_rust5proto13opentelemetry9collector5trace2v120trace_service_serverINtB6_18TraceServiceServerINtNtNtBi_10validation12service_type12TestReceiverNtB8_25ExportTraceServiceRequestEEINtCsl3eF1jQi4se_13tower_service7ServiceINtNtCsfWkY8aoTePL_4http7request7RequestNtNtCs87Lp0jQnWEh_5tonic4body4BodyEE4calls_0Bi_
FNDA:1,_RNvMNtNtNtNtNtNtCs2Zzx8WPYKXd_15otel_arrow_rust5proto13opentelemetry9collector5trace2v120trace_service_serverINtB2_18TraceServiceServerINtNtNtBe_10validation12service_type12TestReceiverNtB4_25ExportTraceServiceRequestEE3newBe_
FNDA:1,_RNvMNtNtNtNtNtNtCs2Zzx8WPYKXd_15otel_arrow_rust5proto13opentelemetry9collector5trace2v120trace_service_serverINtB2_18TraceServiceServerINtNtNtBe_10validation12service_type12TestReceiverNtB4_25ExportTraceServiceRequestEE8from_arcBe_
FNDA:1,_RNvXNvXs_NtNtNtNtNtNtCs2Zzx8WPYKXd_15otel_arrow_rust5proto13opentelemetry9collector5trace2v120trace_service_serverINtB7_18TraceServiceServerpEINtCsl3eF1jQi4se_13tower_service7ServiceINtNtCsfWkY8aoTePL_4http7request7RequestpEE4callINtB2_9ExportSvcINtNtNtBj_10validation12service_type12TestReceiverNtB9_25ExportTraceServiceRequestEEINtNtNtCs87Lp0jQnWEh_5tonic6server7service12UnaryServiceB4K_E4callBj_
FNDA:1,_RNvXs0_NtNtNtNtNtNtCs2Zzx8WPYKXd_15otel_arrow_rust5proto13opentelemetry9collector5trace2v120trace_service_serverINtB5_18TraceServiceServerINtNtNtBh_10validation12service_type12TestReceiverNtB7_25ExportTraceServiceRequestEENtNtCs8sCtDi7t2F4_4core5clone5Clone5cloneBh_
FNDA:1,_RNvXs_NtNtNtNtNtNtCs2Zzx8WPYKXd_15otel_arrow_rust5proto13opentelemetry9collector5trace2v120trace_service_serverINtB4_18TraceServiceServerINtNtNtBg_10validation12service_type12TestReceiverNtB6_25ExportTraceServiceRequestEEINtCsl3eF1jQi4se_13tower_service7ServiceINtNtCsfWkY8aoTePL_4http7request7RequestNtNtCs87Lp0jQnWEh_5tonic4body4BodyEE10poll_readyBg_
FNDA:1,_RNvXs_NtNtNtNtNtNtCs2Zzx8WPYKXd_15otel_arrow_rust5proto13opentelemetry9collector5trace2v120trace_service_serverINtB4_18TraceServiceServerINtNtNtBg_10validation12service_type12TestReceiverNtB6_25ExportTraceServiceRequestEEINtCsl3eF1jQi4se_13tower_service7ServiceINtNtCsfWkY8aoTePL_4http7request7RequestNtNtCs87Lp0jQnWEh_5tonic4body4BodyEE4callBg_
FNF:29
FNH:16
DA:2,3
DA:9,2
DA:16,1
DA:46,1
DA:47,1
DA:48,1
DA:49,1
DA:50,1
DA:51,1
DA:52,1
DA:53,1
DA:62,1
DA:63,1
DA:64,1
DA:65,1
DA:66,0
DA:67,0
DA:68,0
DA:69,0
DA:70,0
DA:71,0
DA:72,0
DA:73,0
DA:74,0
DA:75,0
DA:76,0
DA:77,0
DA:78,0
DA:79,0
DA:80,0
DA:81,0
DA:82,0
DA:83,0
DA:84,0
DA:85,0
DA:86,0
DA:87,0
DA:88,0
DA:94,0
DA:95,0
DA:96,0
DA:97,0
DA:100,0
DA:101,0
DA:102,0
DA:103,0
DA:108,0
DA:109,0
DA:110,0
DA:111,0
DA:116,0
DA:117,0
DA:118,0
DA:119,0
DA:120,1
DA:121,1
DA:122,1
DA:123,1
DA:124,1
DA:125,1
DA:126,1
DA:127,1
DA:128,1
DA:129,1
DA:130,1
DA:131,0
DA:132,0
DA:133,0
DA:134,1
DA:135,1
DA:136,1
DA:137,1
DA:138,1
DA:139,1
DA:140,1
DA:141,1
DA:142,1
DA:143,1
DA:144,1
DA:145,1
DA:146,1
DA:147,1
DA:148,1
DA:185,1
DA:186,1
DA:187,1
DA:188,1
DA:189,1
DA:190,1
DA:191,1
DA:192,1
DA:193,1
DA:194,1
DA:195,1
DA:196,1
DA:197,0
DA:198,0
DA:199,0
DA:200,0
DA:201,0
DA:202,0
DA:203,0
DA:204,0
DA:205,0
DA:208,0
DA:209,0
DA:210,0
DA:211,0
DA:214,0
DA:215,0
DA:216,0
DA:217,0
DA:222,0
DA:223,0
DA:224,0
DA:225,0
DA:230,0
DA:231,0
DA:232,0
DA:233,0
DA:244,1
DA:245,1
DA:246,1
DA:247,1
DA:248,1
DA:249,1
DA:250,1
DA:251,1
DA:252,1
DA:254,1
DA:255,1
DA:264,1
DA:265,1
DA:266,1
DA:267,1
DA:268,1
DA:269,1
DA:270,1
DA:271,1
DA:272,1
DA:273,1
DA:275,1
DA:276,1
DA:277,1
DA:278,1
DA:279,1
DA:280,1
DA:281,1
DA:282,1
DA:283,1
DA:284,1
DA:285,1
DA:286,1
DA:287,1
DA:288,1
DA:289,1
DA:290,1
DA:291,1
DA:292,1
DA:293,1
DA:294,1
DA:295,1
DA:298,0
DA:299,0
DA:300,0
DA:301,0
DA:302,0
DA:303,0
DA:304,0
DA:305,0
DA:306,0
DA:307,0
DA:308,0
DA:309,0
DA:310,0
DA:311,0
DA:312,0
DA:313,0
DA:314,0
DA:317,1
DA:320,1
DA:321,1
DA:322,1
DA:323,1
DA:324,1
DA:325,1
DA:326,1
DA:327,1
DA:328,1
DA:329,1
BRF:0
BRH:0
LF:198
LH:110
end_of_record
SF:/Users/d.dahl/code/otel-arrow/rust/otel-arrow-rust/src/proto/opentelemetry.proto.common.v1.rs
FN:65,_RINvMsA_NtNtNtNtCs2Zzx8WPYKXd_15otel_arrow_rust5proto13opentelemetry6common2v1NtB6_16EntityRefBuilder10schema_urlpEBe_
FN:65,_RINvMsA_NtNtNtNtCs2Zzx8WPYKXd_15otel_arrow_rust5proto13opentelemetry6common2v1NtB6_16EntityRefBuilder4typepEBe_
FN:52,_RINvMsr_NtNtNtNtCs2Zzx8WPYKXd_15otel_arrow_rust5proto13opentelemetry6common2v1NtB6_27InstrumentationScopeBuilder4namepEBe_
FN:2,_RNvXs2_NtNtNtNtCs2Zzx8WPYKXd_15otel_arrow_rust5proto13opentelemetry6common2v1NtB5_8AnyValueNtNtCs9ugllKyEvyV_5prost7message7Message5clear
FN:29,_RNvXs9_NtNtNtNtCs2Zzx8WPYKXd_15otel_arrow_rust5proto13opentelemetry6common2v1NtB5_10ArrayValueNtNtCs9ugllKyEvyV_5prost7message7Message5clear
FN:65,_RNvXsB_NtNtNtNtCs2Zzx8WPYKXd_15otel_arrow_rust5proto13opentelemetry6common2v1NtB5_9EntityRefINtNtCs8sCtDi7t2F4_4core7convert4FromNtB5_16EntityRefBuilderE4from
FN:65,_RNvXsF_NtNtNtNtCs2Zzx8WPYKXd_15otel_arrow_rust5proto13opentelemetry6common2v1NtB5_9EntityRefNtNtCs9ugllKyEvyV_5prost7message7Message5clear
FN:36,_RNvXsg_NtNtNtNtCs2Zzx8WPYKXd_15otel_arrow_rust5proto13opentelemetry6common2v1NtB5_12KeyValueListNtNtCs9ugllKyEvyV_5prost7message7Message5clear
FN:43,_RNvXsn_NtNtNtNtCs2Zzx8WPYKXd_15otel_arrow_rust5proto13opentelemetry6common2v1NtB5_8KeyValueNtNtCs9ugllKyEvyV_5prost7message7Message5clear
FN:52,_RNvXss_NtNtNtNtCs2Zzx8WPYKXd_15otel_arrow_rust5proto13opentelemetry6common2v1NtB5_20InstrumentationScopeINtNtCs8sCtDi7t2F4_4core7convert4FromNtB5_27InstrumentationScopeBuilderE4from
FN:52,_RNvXsw_NtNtNtNtCs2Zzx8WPYKXd_15otel_arrow_rust5proto13opentelemetry6common2v1NtB5_20InstrumentationScopeNtNtCs9ugllKyEvyV_5prost7message7Message5clear
FN:11,_RINvNvXs2_NtNtNtNtNtCs2Zzx8WPYKXd_15otel_arrow_rust5proto13opentelemetry6common2v19any_valueNtB8_5ValueNtNtCs8sCtDi7t2F4_4core3fmt5Debug3fmt13ScalarWrapperRNtNtCshFLakfGc1jx_5alloc6string6StringEBi_
FN:11,_RINvNvXs2_NtNtNtNtNtCs2Zzx8WPYKXd_15otel_arrow_rust5proto13opentelemetry6common2v19any_valueNtB8_5ValueNtNtCs8sCtDi7t2F4_4core3fmt5Debug3fmts0_13ScalarWrapperRxEBi_
FN:11,_RINvNvXs2_NtNtNtNtNtCs2Zzx8WPYKXd_15otel_arrow_rust5proto13opentelemetry6common2v19any_valueNtB8_5ValueNtNtCs8sCtDi7t2F4_4core3fmt5Debug3fmts1_13ScalarWrapperRdEBi_
FN:11,_RINvNvXs2_NtNtNtNtNtCs2Zzx8WPYKXd_15otel_arrow_rust5proto13opentelemetry6common2v19any_valueNtB8_5ValueNtNtCs8sCtDi7t2F4_4core3fmt5Debug3fmts2_13ScalarWrapperRINtNtCshFLakfGc1jx_5alloc3vec3VechEEBi_
FN:11,_RINvNvXs2_NtNtNtNtNtCs2Zzx8WPYKXd_15otel_arrow_rust5proto13opentelemetry6common2v19any_valueNtB8_5ValueNtNtCs8sCtDi7t2F4_4core3fmt5Debug3fmts_13ScalarWrapperRbEBi_
FN:11,_RNCINvMs1_NtNtNtNtNtCs2Zzx8WPYKXd_15otel_arrow_rust5proto13opentelemetry6common2v19any_valueNtB8_5Value5mergeQQNtNtNtCs87Lp0jQnWEh_5tonic5codec6buffer9DecodeBufE0Bi_
FN:11,_RNCINvMs1_NtNtNtNtNtCs2Zzx8WPYKXd_15otel_arrow_rust5proto13opentelemetry6common2v19any_valueNtB8_5Value5mergeQQNtNtNtCs87Lp0jQnWEh_5tonic5codec6buffer9DecodeBufEs0_0Bi_
FN:11,_RNCINvMs1_NtNtNtNtNtCs2Zzx8WPYKXd_15otel_arrow_rust5proto13opentelemetry6common2v19any_valueNtB8_5Value5mergeQQNtNtNtCs87Lp0jQnWEh_5tonic5codec6buffer9DecodeBufEs1_0Bi_
FN:11,_RNCINvMs1_NtNtNtNtNtCs2Zzx8WPYKXd_15otel_arrow_rust5proto13opentelemetry6common2v19any_valueNtB8_5Value5mergeQQNtNtNtCs87Lp0jQnWEh_5tonic5codec6buffer9DecodeBufEs2_0Bi_
FN:11,_RNCINvMs1_NtNtNtNtNtCs2Zzx8WPYKXd_15otel_arrow_rust5proto13opentelemetry6common2v19any_valueNtB8_5Value5mergeQQNtNtNtCs87Lp0jQnWEh_5tonic5codec6buffer9DecodeBufEs3_0Bi_
FN:11,_RNCINvMs1_NtNtNtNtNtCs2Zzx8WPYKXd_15otel_arrow_rust5proto13opentelemetry6common2v19any_valueNtB8_5Value5mergeQQNtNtNtCs87Lp0jQnWEh_5tonic5codec6buffer9DecodeBufEs4_0Bi_
FN:11,_RNCINvMs1_NtNtNtNtNtCs2Zzx8WPYKXd_15otel_arrow_rust5proto13opentelemetry6common2v19any_valueNtB8_5Value5mergeQQNtNtNtCs87Lp0jQnWEh_5tonic5codec6buffer9DecodeBufEs_0Bi_
FN:65,_RNvMsA_NtNtNtNtCs2Zzx8WPYKXd_15otel_arrow_rust5proto13opentelemetry6common2v1NtB5_16EntityRefBuilder6finish
FN:52,_RNvMsr_NtNtNtNtCs2Zzx8WPYKXd_15otel_arrow_rust5proto13opentelemetry6common2v1NtB5_27InstrumentationScopeBuilder6finish
FN:2,_RNvXs2_NtNtNtNtCs2Zzx8WPYKXd_15otel_arrow_rust5proto13opentelemetry6common2v1NtB5_8AnyValueNtNtCs9ugllKyEvyV_5prost7message7Message11encoded_lenBd_
FN:2,_RNvXs3_NtNtNtNtCs2Zzx8WPYKXd_15otel_arrow_rust5proto13opentelemetry6common2v1NtB5_8AnyValueNtNtCs8sCtDi7t2F4_4core7default7Default7default
FN:2,_RNvXs4_NtNtNtNtCs2Zzx8WPYKXd_15otel_arrow_rust5proto13opentelemetry6common2v1NtB5_8AnyValueNtNtCs8sCtDi7t2F4_4core3fmt5Debug3fmt
FN:29,_RNvXs9_NtNtNtNtCs2Zzx8WPYKXd_15otel_arrow_rust5proto13opentelemetry6common2v1NtB5_10ArrayValueNtNtCs9ugllKyEvyV_5prost7message7Message11encoded_lenBd_
FN:65,_RNvXsG_NtNtNtNtCs2Zzx8WPYKXd_15otel_arrow_rust5proto13opentelemetry6common2v1NtB5_9EntityRefNtNtCs8sCtDi7t2F4_4core7default7Default7default
FN:29,_RNvXsa_NtNtNtNtCs2Zzx8WPYKXd_15otel_arrow_rust5proto13opentelemetry6common2v1NtB5_10ArrayValueNtNtCs8sCtDi7t2F4_4core7default7Default7default
FN:29,_RNvXsb_NtNtNtNtCs2Zzx8WPYKXd_15otel_arrow_rust5proto13opentelemetry6common2v1NtB5_10ArrayValueNtNtCs8sCtDi7t2F4_4core3fmt5Debug3fmt
FN:36,_RNvXsg_NtNtNtNtCs2Zzx8WPYKXd_15otel_arrow_rust5proto13opentelemetry6common2v1NtB5_12KeyValueListNtNtCs9ugllKyEvyV_5prost7message7Message11encoded_lenBd_
FN:36,_RNvXsh_NtNtNtNtCs2Zzx8WPYKXd_15otel_arrow_rust5proto13opentelemetry6common2v1NtB5_12KeyValueListNtNtCs8sCtDi7t2F4_4core7default7Default7default
FN:36,_RNvXsi_NtNtNtNtCs2Zzx8WPYKXd_15otel_arrow_rust5proto13opentelemetry6common2v1NtB5_12KeyValueListNtNtCs8sCtDi7t2F4_4core3fmt5Debug3fmt
FN:43,_RNvXso_NtNtNtNtCs2Zzx8WPYKXd_15otel_arrow_rust5proto13opentelemetry6common2v1NtB5_8KeyValueNtNtCs8sCtDi7t2F4_4core7default7Default7default
FN:52,_RNvXsx_NtNtNtNtCs2Zzx8WPYKXd_15otel_arrow_rust5proto13opentelemetry6common2v1NtB5_20InstrumentationScopeNtNtCs8sCtDi7t2F4_4core7default7Default7default
FN:2,_RINvMNtNtNtNtCs2Zzx8WPYKXd_15otel_arrow_rust5proto13opentelemetry6common2v1NtB3_8AnyValue10new_doubledEBb_
FN:2,_RINvMNtNtNtNtCs2Zzx8WPYKXd_15otel_arrow_rust5proto13opentelemetry6common2v1NtB3_8AnyValue10new_kvlistINtNtCshFLakfGc1jx_5alloc3vec3VecNtB3_8KeyValueEEBb_
FN:2,_RINvMNtNtNtNtCs2Zzx8WPYKXd_15otel_arrow_rust5proto13opentelemetry6common2v1NtB3_8AnyValue10new_kvlistRANtB3_8KeyValuej2_EBb_
FN:2,_RINvMNtNtNtNtCs2Zzx8WPYKXd_15otel_arrow_rust5proto13opentelemetry6common2v1NtB3_8AnyValue10new_stringNtNtCshFLakfGc1jx_5alloc6string6StringEBb_
FN:2,_RINvMNtNtNtNtCs2Zzx8WPYKXd_15otel_arrow_rust5proto13opentelemetry6common2v1NtB3_8AnyValue10new_stringRNtNtCshFLakfGc1jx_5alloc6string6StringEBb_
FN:2,_RINvMNtNtNtNtCs2Zzx8WPYKXd_15otel_arrow_rust5proto13opentelemetry6common2v1NtB3_8AnyValue10new_stringReEBb_
FN:2,_RINvMNtNtNtNtCs2Zzx8WPYKXd_15otel_arrow_rust5proto13opentelemetry6common2v1NtB3_8AnyValue7new_intlEBb_
FN:2,_RINvMNtNtNtNtCs2Zzx8WPYKXd_15otel_arrow_rust5proto13opentelemetry6common2v1NtB3_8AnyValue7new_intxEBb_
FN:2,_RINvMNtNtNtNtCs2Zzx8WPYKXd_15otel_arrow_rust5proto13opentelemetry6common2v1NtB3_8AnyValue8new_boolbEBb_
FN:2,_RINvMNtNtNtNtCs2Zzx8WPYKXd_15otel_arrow_rust5proto13opentelemetry6common2v1NtB3_8AnyValue9new_arrayINtNtCshFLakfGc1jx_5alloc3vec3VecB1b_EEBb_
FN:2,_RINvMNtNtNtNtCs2Zzx8WPYKXd_15otel_arrow_rust5proto13opentelemetry6common2v1NtB3_8AnyValue9new_bytesINtNtCshFLakfGc1jx_5alloc3vec3VechEEBb_
FN:2,_RINvMNtNtNtNtCs2Zzx8WPYKXd_15otel_arrow_rust5proto13opentelemetry6common2v1NtB3_8AnyValue9new_bytesRAhj3_EBb_
FN:2,_RINvMNtNtNtNtCs2Zzx8WPYKXd_15otel_arrow_rust5proto13opentelemetry6common2v1NtB3_8AnyValue9new_bytesRShEBb_
FN:29,_RINvMs5_NtNtNtNtCs2Zzx8WPYKXd_15otel_arrow_rust5proto13opentelemetry6common2v1NtB6_10ArrayValue3newINtNtCshFLakfGc1jx_5alloc3vec3VecNtB6_8AnyValueEEBe_
FN:65,_RINvMsA_NtNtNtNtCs2Zzx8WPYKXd_15otel_arrow_rust5proto13opentelemetry6common2v1NtB6_16EntityRefBuilder16description_keysRANtNtCshFLakfGc1jx_5alloc6string6Stringj3_EBe_
FN:65,_RINvMsA_NtNtNtNtCs2Zzx8WPYKXd_15otel_arrow_rust5proto13opentelemetry6common2v1NtB6_16EntityRefBuilder7id_keysRANtNtCshFLakfGc1jx_5alloc6string6Stringj3_EBe_
FN:36,_RINvMsc_NtNtNtNtCs2Zzx8WPYKXd_15otel_arrow_rust5proto13opentelemetry6common2v1NtB6_12KeyValueList3newINtNtCshFLakfGc1jx_5alloc3vec3VecNtB6_8KeyValueEEBe_
FN:43,_RINvMsj_NtNtNtNtCs2Zzx8WPYKXd_15otel_arrow_rust5proto13opentelemetry6common2v1NtB6_8KeyValue3newNtNtCshFLakfGc1jx_5alloc6string6StringNtB6_8AnyValueEBe_
FN:43,_RINvMsj_NtNtNtNtCs2Zzx8WPYKXd_15otel_arrow_rust5proto13opentelemetry6common2v1NtB6_8KeyValue3newReNtB6_8AnyValueEBe_
FN:52,_RINvMsq_NtNtNtNtCs2Zzx8WPYKXd_15otel_arrow_rust5proto13opentelemetry6common2v1NtB6_20InstrumentationScope3newReEBe_
FN:52,_RINvMsq_NtNtNtNtCs2Zzx8WPYKXd_15otel_arrow_rust5proto13opentelemetry6common2v1NtB6_20InstrumentationScope5buildReEBe_
FN:52,_RINvMsr_NtNtNtNtCs2Zzx8WPYKXd_15otel_arrow_rust5proto13opentelemetry6common2v1NtB6_27InstrumentationScopeBuilder10attributesINtNtCshFLakfGc1jx_5alloc3vec3VecNtB6_8KeyValueEEBe_
FN:52,_RINvMsr_NtNtNtNtCs2Zzx8WPYKXd_15otel_arrow_rust5proto13opentelemetry6common2v1NtB6_27InstrumentationScopeBuilder24dropped_attributes_countmEBe_
FN:52,_RINvMsr_NtNtNtNtCs2Zzx8WPYKXd_15otel_arrow_rust5proto13opentelemetry6common2v1NtB6_27InstrumentationScopeBuilder7versionReEBe_
FN:65,_RINvMsz_NtNtNtNtCs2Zzx8WPYKXd_15otel_arrow_rust5proto13opentelemetry6common2v1NtB6_9EntityRef3newReEBe_
FN:65,_RINvMsz_NtNtNtNtCs2Zzx8WPYKXd_15otel_arrow_rust5proto13opentelemetry6common2v1NtB6_9EntityRef5buildReEBe_
FN:65,_RINvNvXNvXsH_NtNtNtNtCs2Zzx8WPYKXd_15otel_arrow_rust5proto13opentelemetry6common2v1NtBb_9EntityRefNtNtCs8sCtDi7t2F4_4core3fmt5Debug3fmtNtB5_13ScalarWrapperB1y_3fmt5InnerRNtNtCshFLakfGc1jx_5alloc6string6StringEBj_
FN:65,_RINvNvXsH_NtNtNtNtCs2Zzx8WPYKXd_15otel_arrow_rust5proto13opentelemetry6common2v1NtB8_9EntityRefNtNtCs8sCtDi7t2F4_4core3fmt5Debug3fmt13ScalarWrapperRNtNtCshFLakfGc1jx_5alloc6string6StringEBg_
FN:65,_RINvNvXsH_NtNtNtNtCs2Zzx8WPYKXd_15otel_arrow_rust5proto13opentelemetry6common2v1NtB8_9EntityRefNtNtCs8sCtDi7t2F4_4core3fmt5Debug3fmts_13ScalarWrapperRNtNtCshFLakfGc1jx_5alloc6string6StringEBg_
FN:65,_RINvNvXs_NvXsH_NtNtNtNtCs2Zzx8WPYKXd_15otel_arrow_rust5proto13opentelemetry6common2v1NtBd_9EntityRefNtNtCs8sCtDi7t2F4_4core3fmt5Debug3fmtNtB7_s_13ScalarWrapperB1A_3fmt5InnerRNtNtCshFLakfGc1jx_5alloc6string6StringEBl_
FN:43,_RINvNvXsp_NtNtNtNtCs2Zzx8WPYKXd_15otel_arrow_rust5proto13opentelemetry6common2v1NtB8_8KeyValueNtNtCs8sCtDi7t2F4_4core3fmt5Debug3fmt13ScalarWrapperRNtNtCshFLakfGc1jx_5alloc6string6StringEBg_
FN:52,_RINvNvXsy_NtNtNtNtCs2Zzx8WPYKXd_15otel_arrow_rust5proto13opentelemetry6common2v1NtB8_20InstrumentationScopeNtNtCs8sCtDi7t2F4_4core3fmt5Debug3fmt13ScalarWrapperRNtNtCshFLakfGc1jx_5alloc6string6StringEBg_
FN:52,_RINvNvXsy_NtNtNtNtCs2Zzx8WPYKXd_15otel_arrow_rust5proto13opentelemetry6common2v1NtB8_20InstrumentationScopeNtNtCs8sCtDi7t2F4_4core3fmt5Debug3fmts0_13ScalarWrapperRmEBg_
FN:52,_RINvNvXsy_NtNtNtNtCs2Zzx8WPYKXd_15otel_arrow_rust5proto13opentelemetry6common2v1NtB8_20InstrumentationScopeNtNtCs8sCtDi7t2F4_4core3fmt5Debug3fmts_13ScalarWrapperRNtNtCshFLakfGc1jx_5alloc6string6StringEBg_
FN:2,_RNCINvXs2_NtNtNtNtCs2Zzx8WPYKXd_15otel_arrow_rust5proto13opentelemetry6common2v1NtB8_8AnyValueNtNtCs9ugllKyEvyV_5prost7message7Message11merge_fieldQQNtNtNtCs87Lp0jQnWEh_5tonic5codec6buffer9DecodeBufE0Bg_
FN:29,_RNCINvXs9_NtNtNtNtCs2Zzx8WPYKXd_15otel_arrow_rust5proto13opentelemetry6common2v1NtB8_10ArrayValueNtNtCs9ugllKyEvyV_5prost7message7Message11merge_fieldQQNtNtNtCs87Lp0jQnWEh_5tonic5codec6buffer9DecodeBufE0Bg_
FN:65,_RNCINvXsF_NtNtNtNtCs2Zzx8WPYKXd_15otel_arrow_rust5proto13opentelemetry6common2v1NtB8_9EntityRefNtNtCs9ugllKyEvyV_5prost7message7Message11merge_fieldQQNtNtNtCs87Lp0jQnWEh_5tonic5codec6buffer9DecodeBufE0Bg_
FN:65,_RNCINvXsF_NtNtNtNtCs2Zzx8WPYKXd_15otel_arrow_rust5proto13opentelemetry6common2v1NtB8_9EntityRefNtNtCs9ugllKyEvyV_5prost7message7Message11merge_fieldQQNtNtNtCs87Lp0jQnWEh_5tonic5codec6buffer9DecodeBufEs0_0Bg_
FN:65,_RNCINvXsF_NtNtNtNtCs2Zzx8WPYKXd_15otel_arrow_rust5proto13opentelemetry6common2v1NtB8_9EntityRefNtNtCs9ugllKyEvyV_5prost7message7Message11merge_fieldQQNtNtNtCs87Lp0jQnWEh_5tonic5codec6buffer9DecodeBufEs1_0Bg_
FN:65,_RNCINvXsF_NtNtNtNtCs2Zzx8WPYKXd_15otel_arrow_rust5proto13opentelemetry6common2v1NtB8_9EntityRefNtNtCs9ugllKyEvyV_5prost7message7Message11merge_fieldQQNtNtNtCs87Lp0jQnWEh_5tonic5codec6buffer9DecodeBufEs_0Bg_
FN:36,_RNCINvXsg_NtNtNtNtCs2Zzx8WPYKXd_15otel_arrow_rust5proto13opentelemetry6common2v1NtB8_12KeyValueListNtNtCs9ugllKyEvyV_5prost7message7Message11merge_fieldQQNtNtNtCs87Lp0jQnWEh_5tonic5codec6buffer9DecodeBufE0Bg_
FN:43,_RNCINvXsn_NtNtNtNtCs2Zzx8WPYKXd_15otel_arrow_rust5proto13opentelemetry6common2v1NtB8_8KeyValueNtNtCs9ugllKyEvyV_5prost7message7Message11merge_fieldQQNtNtNtCs87Lp0jQnWEh_5tonic5codec6buffer9DecodeBufE0Bg_
FN:43,_RNCINvXsn_NtNtNtNtCs2Zzx8WPYKXd_15otel_arrow_rust5proto13opentelemetry6common2v1NtB8_8KeyValueNtNtCs9ugllKyEvyV_5prost7message7Message11merge_fieldQQNtNtNtCs87Lp0jQnWEh_5tonic5codec6buffer9DecodeBufEs_0Bg_
FN:52,_RNCINvXsw_NtNtNtNtCs2Zzx8WPYKXd_15otel_arrow_rust5proto13opentelemetry6common2v1NtB8_20InstrumentationScopeNtNtCs9ugllKyEvyV_5prost7message7Message11merge_fieldQQNtNtNtCs87Lp0jQnWEh_5tonic5codec6buffer9DecodeBufE0Bg_
FN:52,_RNCINvXsw_NtNtNtNtCs2Zzx8WPYKXd_15otel_arrow_rust5proto13opentelemetry6common2v1NtB8_20InstrumentationScopeNtNtCs9ugllKyEvyV_5prost7message7Message11merge_fieldQQNtNtNtCs87Lp0jQnWEh_5tonic5codec6buffer9DecodeBufEs0_0Bg_
FN:52,_RNCINvXsw_NtNtNtNtCs2Zzx8WPYKXd_15otel_arrow_rust5proto13opentelemetry6common2v1NtB8_20InstrumentationScopeNtNtCs9ugllKyEvyV_5prost7message7Message11merge_fieldQQNtNtNtCs87Lp0jQnWEh_5tonic5codec6buffer9DecodeBufEs1_0Bg_
FN:52,_RNCINvXsw_NtNtNtNtCs2Zzx8WPYKXd_15otel_arrow_rust5proto13opentelemetry6common2v1NtB8_20InstrumentationScopeNtNtCs9ugllKyEvyV_5prost7message7Message11merge_fieldQQNtNtNtCs87Lp0jQnWEh_5tonic5codec6buffer9DecodeBufEs_0Bg_
FN:43,_RNCNvXsn_NtNtNtNtCs2Zzx8WPYKXd_15otel_arrow_rust5proto13opentelemetry6common2v1NtB7_8KeyValueNtNtCs9ugllKyEvyV_5prost7message7Message11encoded_len0Bf_
FNDA:0,_RINvMsA_NtNtNtNtCs2Zzx8WPYKXd_15otel_arrow_rust5proto13opentelemetry6common2v1NtB6_16EntityRefBuilder10schema_urlpEBe_
FNDA:0,_RINvMsA_NtNtNtNtCs2Zzx8WPYKXd_15otel_arrow_rust5proto13opentelemetry6common2v1NtB6_16EntityRefBuilder4typepEBe_
FNDA:0,_RINvMsr_NtNtNtNtCs2Zzx8WPYKXd_15otel_arrow_rust5proto13opentelemetry6common2v1NtB6_27InstrumentationScopeBuilder4namepEBe_
FNDA:0,_RNvXs2_NtNtNtNtCs2Zzx8WPYKXd_15otel_arrow_rust5proto13opentelemetry6common2v1NtB5_8AnyValueNtNtCs9ugllKyEvyV_5prost7message7Message5clear
FNDA:0,_RNvXs9_NtNtNtNtCs2Zzx8WPYKXd_15otel_arrow_rust5proto13opentelemetry6common2v1NtB5_10ArrayValueNtNtCs9ugllKyEvyV_5prost7message7Message5clear
FNDA:0,_RNvXsB_NtNtNtNtCs2Zzx8WPYKXd_15otel_arrow_rust5proto13opentelemetry6common2v1NtB5_9EntityRefINtNtCs8sCtDi7t2F4_4core7convert4FromNtB5_16EntityRefBuilderE4from
FNDA:0,_RNvXsF_NtNtNtNtCs2Zzx8WPYKXd_15otel_arrow_rust5proto13opentelemetry6common2v1NtB5_9EntityRefNtNtCs9ugllKyEvyV_5prost7message7Message5clear
FNDA:0,_RNvXsg_NtNtNtNtCs2Zzx8WPYKXd_15otel_arrow_rust5proto13opentelemetry6common2v1NtB5_12KeyValueListNtNtCs9ugllKyEvyV_5prost7message7Message5clear
FNDA:0,_RNvXsn_NtNtNtNtCs2Zzx8WPYKXd_15otel_arrow_rust5proto13opentelemetry6common2v1NtB5_8KeyValueNtNtCs9ugllKyEvyV_5prost7message7Message5clear
FNDA:0,_RNvXss_NtNtNtNtCs2Zzx8WPYKXd_15otel_arrow_rust5proto13opentelemetry6common2v1NtB5_20InstrumentationScopeINtNtCs8sCtDi7t2F4_4core7convert4FromNtB5_27InstrumentationScopeBuilderE4from
FNDA:0,_RNvXsw_NtNtNtNtCs2Zzx8WPYKXd_15otel_arrow_rust5proto13opentelemetry6common2v1NtB5_20InstrumentationScopeNtNtCs9ugllKyEvyV_5prost7message7Message5clear
FNDA:0,_RINvNvXs2_NtNtNtNtNtCs2Zzx8WPYKXd_15otel_arrow_rust5proto13opentelemetry6common2v19any_valueNtB8_5ValueNtNtCs8sCtDi7t2F4_4core3fmt5Debug3fmt13ScalarWrapperRNtNtCshFLakfGc1jx_5alloc6string6StringEBi_
FNDA:0,_RINvNvXs2_NtNtNtNtNtCs2Zzx8WPYKXd_15otel_arrow_rust5proto13opentelemetry6common2v19any_valueNtB8_5ValueNtNtCs8sCtDi7t2F4_4core3fmt5Debug3fmts0_13ScalarWrapperRxEBi_
FNDA:0,_RINvNvXs2_NtNtNtNtNtCs2Zzx8WPYKXd_15otel_arrow_rust5proto13opentelemetry6common2v19any_valueNtB8_5ValueNtNtCs8sCtDi7t2F4_4core3fmt5Debug3fmts1_13ScalarWrapperRdEBi_
FNDA:0,_RINvNvXs2_NtNtNtNtNtCs2Zzx8WPYKXd_15otel_arrow_rust5proto13opentelemetry6common2v19any_valueNtB8_5ValueNtNtCs8sCtDi7t2F4_4core3fmt5Debug3fmts2_13ScalarWrapperRINtNtCshFLakfGc1jx_5alloc3vec3VechEEBi_
FNDA:0,_RINvNvXs2_NtNtNtNtNtCs2Zzx8WPYKXd_15otel_arrow_rust5proto13opentelemetry6common2v19any_valueNtB8_5ValueNtNtCs8sCtDi7t2F4_4core3fmt5Debug3fmts_13ScalarWrapperRbEBi_
FNDA:5,_RNCINvMs1_NtNtNtNtNtCs2Zzx8WPYKXd_15otel_arrow_rust5proto13opentelemetry6common2v19any_valueNtB8_5Value5mergeQQNtNtNtCs87Lp0jQnWEh_5tonic5codec6buffer9DecodeBufE0Bi_
FNDA:3,_RNCINvMs1_NtNtNtNtNtCs2Zzx8WPYKXd_15otel_arrow_rust5proto13opentelemetry6common2v19any_valueNtB8_5Value5mergeQQNtNtNtCs87Lp0jQnWEh_5tonic5codec6buffer9DecodeBufEs0_0Bi_
FNDA:0,_RNCINvMs1_NtNtNtNtNtCs2Zzx8WPYKXd_15otel_arrow_rust5proto13opentelemetry6common2v19any_valueNtB8_5Value5mergeQQNtNtNtCs87Lp0jQnWEh_5tonic5codec6buffer9DecodeBufEs1_0Bi_
FNDA:1,_RNCINvMs1_NtNtNtNtNtCs2Zzx8WPYKXd_15otel_arrow_rust5proto13opentelemetry6common2v19any_valueNtB8_5Value5mergeQQNtNtNtCs87Lp0jQnWEh_5tonic5codec6buffer9DecodeBufEs2_0Bi_
FNDA:1,_RNCINvMs1_NtNtNtNtNtCs2Zzx8WPYKXd_15otel_arrow_rust5proto13opentelemetry6common2v19any_valueNtB8_5Value5mergeQQNtNtNtCs87Lp0jQnWEh_5tonic5codec6buffer9DecodeBufEs3_0Bi_
FNDA:0,_RNCINvMs1_NtNtNtNtNtCs2Zzx8WPYKXd_15otel_arrow_rust5proto13opentelemetry6common2v19any_valueNtB8_5Value5mergeQQNtNtNtCs87Lp0jQnWEh_5tonic5codec6buffer9DecodeBufEs4_0Bi_
FNDA:0,_RNCINvMs1_NtNtNtNtNtCs2Zzx8WPYKXd_15otel_arrow_rust5proto13opentelemetry6common2v19any_valueNtB8_5Value5mergeQQNtNtNtCs87Lp0jQnWEh_5tonic5codec6buffer9DecodeBufEs_0Bi_
FNDA:1,_RNvMsA_NtNtNtNtCs2Zzx8WPYKXd_15otel_arrow_rust5proto13opentelemetry6common2v1NtB5_16EntityRefBuilder6finish
FNDA:1,_RNvMsr_NtNtNtNtCs2Zzx8WPYKXd_15otel_arrow_rust5proto13opentelemetry6common2v1NtB5_27InstrumentationScopeBuilder6finish
FNDA:255,_RNvXs2_NtNtNtNtCs2Zzx8WPYKXd_15otel_arrow_rust5proto13opentelemetry6common2v1NtB5_8AnyValueNtNtCs9ugllKyEvyV_5prost7message7Message11encoded_lenBd_
FNDA:10,_RNvXs3_NtNtNtNtCs2Zzx8WPYKXd_15otel_arrow_rust5proto13opentelemetry6common2v1NtB5_8AnyValueNtNtCs8sCtDi7t2F4_4core7default7Default7default
FNDA:0,_RNvXs4_NtNtNtNtCs2Zzx8WPYKXd_15otel_arrow_rust5proto13opentelemetry6common2v1NtB5_8AnyValueNtNtCs8sCtDi7t2F4_4core3fmt5Debug3fmt
FNDA:29,_RNvXs9_NtNtNtNtCs2Zzx8WPYKXd_15otel_arrow_rust5proto13opentelemetry6common2v1NtB5_10ArrayValueNtNtCs9ugllKyEvyV_5prost7message7Message11encoded_lenBd_
FNDA:0,_RNvXsG_NtNtNtNtCs2Zzx8WPYKXd_15otel_arrow_rust5proto13opentelemetry6common2v1NtB5_9EntityRefNtNtCs8sCtDi7t2F4_4core7default7Default7default
FNDA:1,_RNvXsa_NtNtNtNtCs2Zzx8WPYKXd_15otel_arrow_rust5proto13opentelemetry6common2v1NtB5_10ArrayValueNtNtCs8sCtDi7t2F4_4core7default7Default7default
FNDA:0,_RNvXsb_NtNtNtNtCs2Zzx8WPYKXd_15otel_arrow_rust5proto13opentelemetry6common2v1NtB5_10ArrayValueNtNtCs8sCtDi7t2F4_4core3fmt5Debug3fmt
FNDA:29,_RNvXsg_NtNtNtNtCs2Zzx8WPYKXd_15otel_arrow_rust5proto13opentelemetry6common2v1NtB5_12KeyValueListNtNtCs9ugllKyEvyV_5prost7message7Message11encoded_lenBd_
FNDA:1,_RNvXsh_NtNtNtNtCs2Zzx8WPYKXd_15otel_arrow_rust5proto13opentelemetry6common2v1NtB5_12KeyValueListNtNtCs8sCtDi7t2F4_4core7default7Default7default
FNDA:0,_RNvXsi_NtNtNtNtCs2Zzx8WPYKXd_15otel_arrow_rust5proto13opentelemetry6common2v1NtB5_12KeyValueListNtNtCs8sCtDi7t2F4_4core3fmt5Debug3fmt
FNDA:6,_RNvXso_NtNtNtNtCs2Zzx8WPYKXd_15otel_arrow_rust5proto13opentelemetry6common2v1NtB5_8KeyValueNtNtCs8sCtDi7t2F4_4core7default7Default7default
FNDA:10,_RNvXsx_NtNtNtNtCs2Zzx8WPYKXd_15otel_arrow_rust5proto13opentelemetry6common2v1NtB5_20InstrumentationScopeNtNtCs8sCtDi7t2F4_4core7default7Default7default
FNDA:9,_RINvMNtNtNtNtCs2Zzx8WPYKXd_15otel_arrow_rust5proto13opentelemetry6common2v1NtB3_8AnyValue10new_doubledEBb_
FNDA:5,_RINvMNtNtNtNtCs2Zzx8WPYKXd_15otel_arrow_rust5proto13opentelemetry6common2v1NtB3_8AnyValue10new_kvlistINtNtCshFLakfGc1jx_5alloc3vec3VecNtB3_8KeyValueEEBb_
FNDA:1,_RINvMNtNtNtNtCs2Zzx8WPYKXd_15otel_arrow_rust5proto13opentelemetry6common2v1NtB3_8AnyValue10new_kvlistRANtB3_8KeyValuej2_EBb_
FNDA:3,_RINvMNtNtNtNtCs2Zzx8WPYKXd_15otel_arrow_rust5proto13opentelemetry6common2v1NtB3_8AnyValue10new_stringNtNtCshFLakfGc1jx_5alloc6string6StringEBb_
FNDA:1,_RINvMNtNtNtNtCs2Zzx8WPYKXd_15otel_arrow_rust5proto13opentelemetry6common2v1NtB3_8AnyValue10new_stringRNtNtCshFLakfGc1jx_5alloc6string6StringEBb_
FNDA:27,_RINvMNtNtNtNtCs2Zzx8WPYKXd_15otel_arrow_rust5proto13opentelemetry6common2v1NtB3_8AnyValue10new_stringReEBb_
FNDA:11,_RINvMNtNtNtNtCs2Zzx8WPYKXd_15otel_arrow_rust5proto13opentelemetry6common2v1NtB3_8AnyValue7new_intlEBb_
FNDA:1,_RINvMNtNtNtNtCs2Zzx8WPYKXd_15otel_arrow_rust5proto13opentelemetry6common2v1NtB3_8AnyValue7new_intxEBb_
FNDA:2,_RINvMNtNtNtNtCs2Zzx8WPYKXd_15otel_arrow_rust5proto13opentelemetry6common2v1NtB3_8AnyValue8new_boolbEBb_
FNDA:6,_RINvMNtNtNtNtCs2Zzx8WPYKXd_15otel_arrow_rust5proto13opentelemetry6common2v1NtB3_8AnyValue9new_arrayINtNtCshFLakfGc1jx_5alloc3vec3VecB1b_EEBb_
FNDA:1,_RINvMNtNtNtNtCs2Zzx8WPYKXd_15otel_arrow_rust5proto13opentelemetry6common2v1NtB3_8AnyValue9new_bytesINtNtCshFLakfGc1jx_5alloc3vec3VechEEBb_
FNDA:1,_RINvMNtNtNtNtCs2Zzx8WPYKXd_15otel_arrow_rust5proto13opentelemetry6common2v1NtB3_8AnyValue9new_bytesRAhj3_EBb_
FNDA:1,_RINvMNtNtNtNtCs2Zzx8WPYKXd_15otel_arrow_rust5proto13opentelemetry6common2v1NtB3_8AnyValue9new_bytesRShEBb_
FNDA:6,_RINvMs5_NtNtNtNtCs2Zzx8WPYKXd_15otel_arrow_rust5proto13opentelemetry6common2v1NtB6_10ArrayValue3newINtNtCshFLakfGc1jx_5alloc3vec3VecNtB6_8AnyValueEEBe_
FNDA:1,_RINvMsA_NtNtNtNtCs2Zzx8WPYKXd_15otel_arrow_rust5proto13opentelemetry6common2v1NtB6_16EntityRefBuilder16description_keysRANtNtCshFLakfGc1jx_5alloc6string6Stringj3_EBe_
FNDA:1,_RINvMsA_NtNtNtNtCs2Zzx8WPYKXd_15otel_arrow_rust5proto13opentelemetry6common2v1NtB6_16EntityRefBuilder7id_keysRANtNtCshFLakfGc1jx_5alloc6string6Stringj3_EBe_
FNDA:9,_RINvMsc_NtNtNtNtCs2Zzx8WPYKXd_15otel_arrow_rust5proto13opentelemetry6common2v1NtB6_12KeyValueList3newINtNtCshFLakfGc1jx_5alloc3vec3VecNtB6_8KeyValueEEBe_
FNDA:12,_RINvMsj_NtNtNtNtCs2Zzx8WPYKXd_15otel_arrow_rust5proto13opentelemetry6common2v1NtB6_8KeyValue3newNtNtCshFLakfGc1jx_5alloc6string6StringNtB6_8AnyValueEBe_
FNDA:38,_RINvMsj_NtNtNtNtCs2Zzx8WPYKXd_15otel_arrow_rust5proto13opentelemetry6common2v1NtB6_8KeyValue3newReNtB6_8AnyValueEBe_
FNDA:5,_RINvMsq_NtNtNtNtCs2Zzx8WPYKXd_15otel_arrow_rust5proto13opentelemetry6common2v1NtB6_20InstrumentationScope3newReEBe_
FNDA:1,_RINvMsq_NtNtNtNtCs2Zzx8WPYKXd_15otel_arrow_rust5proto13opentelemetry6common2v1NtB6_20InstrumentationScope5buildReEBe_
FNDA:1,_RINvMsr_NtNtNtNtCs2Zzx8WPYKXd_15otel_arrow_rust5proto13opentelemetry6common2v1NtB6_27InstrumentationScopeBuilder10attributesINtNtCshFLakfGc1jx_5alloc3vec3VecNtB6_8KeyValueEEBe_
FNDA:1,_RINvMsr_NtNtNtNtCs2Zzx8WPYKXd_15otel_arrow_rust5proto13opentelemetry6common2v1NtB6_27InstrumentationScopeBuilder24dropped_attributes_countmEBe_
FNDA:1,_RINvMsr_NtNtNtNtCs2Zzx8WPYKXd_15otel_arrow_rust5proto13opentelemetry6common2v1NtB6_27InstrumentationScopeBuilder7versionReEBe_
FNDA:3,_RINvMsz_NtNtNtNtCs2Zzx8WPYKXd_15otel_arrow_rust5proto13opentelemetry6common2v1NtB6_9EntityRef3newReEBe_
FNDA:1,_RINvMsz_NtNtNtNtCs2Zzx8WPYKXd_15otel_arrow_rust5proto13opentelemetry6common2v1NtB6_9EntityRef5buildReEBe_
FNDA:0,_RINvNvXNvXsH_NtNtNtNtCs2Zzx8WPYKXd_15otel_arrow_rust5proto13opentelemetry6common2v1NtBb_9EntityRefNtNtCs8sCtDi7t2F4_4core3fmt5Debug3fmtNtB5_13ScalarWrapperB1y_3fmt5InnerRNtNtCshFLakfGc1jx_5alloc6string6StringEBj_
FNDA:0,_RINvNvXsH_NtNtNtNtCs2Zzx8WPYKXd_15otel_arrow_rust5proto13opentelemetry6common2v1NtB8_9EntityRefNtNtCs8sCtDi7t2F4_4core3fmt5Debug3fmt13ScalarWrapperRNtNtCshFLakfGc1jx_5alloc6string6StringEBg_
FNDA:0,_RINvNvXsH_NtNtNtNtCs2Zzx8WPYKXd_15otel_arrow_rust5proto13opentelemetry6common2v1NtB8_9EntityRefNtNtCs8sCtDi7t2F4_4core3fmt5Debug3fmts_13ScalarWrapperRNtNtCshFLakfGc1jx_5alloc6string6StringEBg_
FNDA:0,_RINvNvXs_NvXsH_NtNtNtNtCs2Zzx8WPYKXd_15otel_arrow_rust5proto13opentelemetry6common2v1NtBd_9EntityRefNtNtCs8sCtDi7t2F4_4core3fmt5Debug3fmtNtB7_s_13ScalarWrapperB1A_3fmt5InnerRNtNtCshFLakfGc1jx_5alloc6string6StringEBl_
FNDA:0,_RINvNvXsp_NtNtNtNtCs2Zzx8WPYKXd_15otel_arrow_rust5proto13opentelemetry6common2v1NtB8_8KeyValueNtNtCs8sCtDi7t2F4_4core3fmt5Debug3fmt13ScalarWrapperRNtNtCshFLakfGc1jx_5alloc6string6StringEBg_
FNDA:0,_RINvNvXsy_NtNtNtNtCs2Zzx8WPYKXd_15otel_arrow_rust5proto13opentelemetry6common2v1NtB8_20InstrumentationScopeNtNtCs8sCtDi7t2F4_4core3fmt5Debug3fmt13ScalarWrapperRNtNtCshFLakfGc1jx_5alloc6string6StringEBg_
FNDA:0,_RINvNvXsy_NtNtNtNtCs2Zzx8WPYKXd_15otel_arrow_rust5proto13opentelemetry6common2v1NtB8_20InstrumentationScopeNtNtCs8sCtDi7t2F4_4core3fmt5Debug3fmts0_13ScalarWrapperRmEBg_
FNDA:0,_RINvNvXsy_NtNtNtNtCs2Zzx8WPYKXd_15otel_arrow_rust5proto13opentelemetry6common2v1NtB8_20InstrumentationScopeNtNtCs8sCtDi7t2F4_4core3fmt5Debug3fmts_13ScalarWrapperRNtNtCshFLakfGc1jx_5alloc6string6StringEBg_
FNDA:0,_RNCINvXs2_NtNtNtNtCs2Zzx8WPYKXd_15otel_arrow_rust5proto13opentelemetry6common2v1NtB8_8AnyValueNtNtCs9ugllKyEvyV_5prost7message7Message11merge_fieldQQNtNtNtCs87Lp0jQnWEh_5tonic5codec6buffer9DecodeBufE0Bg_
FNDA:0,_RNCINvXs9_NtNtNtNtCs2Zzx8WPYKXd_15otel_arrow_rust5proto13opentelemetry6common2v1NtB8_10ArrayValueNtNtCs9ugllKyEvyV_5prost7message7Message11merge_fieldQQNtNtNtCs87Lp0jQnWEh_5tonic5codec6buffer9DecodeBufE0Bg_
FNDA:0,_RNCINvXsF_NtNtNtNtCs2Zzx8WPYKXd_15otel_arrow_rust5proto13opentelemetry6common2v1NtB8_9EntityRefNtNtCs9ugllKyEvyV_5prost7message7Message11merge_fieldQQNtNtNtCs87Lp0jQnWEh_5tonic5codec6buffer9DecodeBufE0Bg_
FNDA:0,_RNCINvXsF_NtNtNtNtCs2Zzx8WPYKXd_15otel_arrow_rust5proto13opentelemetry6common2v1NtB8_9EntityRefNtNtCs9ugllKyEvyV_5prost7message7Message11merge_fieldQQNtNtNtCs87Lp0jQnWEh_5tonic5codec6buffer9DecodeBufEs0_0Bg_
FNDA:0,_RNCINvXsF_NtNtNtNtCs2Zzx8WPYKXd_15otel_arrow_rust5proto13opentelemetry6common2v1NtB8_9EntityRefNtNtCs9ugllKyEvyV_5prost7message7Message11merge_fieldQQNtNtNtCs87Lp0jQnWEh_5tonic5codec6buffer9DecodeBufEs1_0Bg_
FNDA:0,_RNCINvXsF_NtNtNtNtCs2Zzx8WPYKXd_15otel_arrow_rust5proto13opentelemetry6common2v1NtB8_9EntityRefNtNtCs9ugllKyEvyV_5prost7message7Message11merge_fieldQQNtNtNtCs87Lp0jQnWEh_5tonic5codec6buffer9DecodeBufEs_0Bg_
FNDA:0,_RNCINvXsg_NtNtNtNtCs2Zzx8WPYKXd_15otel_arrow_rust5proto13opentelemetry6common2v1NtB8_12KeyValueListNtNtCs9ugllKyEvyV_5prost7message7Message11merge_fieldQQNtNtNtCs87Lp0jQnWEh_5tonic5codec6buffer9DecodeBufE0Bg_
FNDA:0,_RNCINvXsn_NtNtNtNtCs2Zzx8WPYKXd_15otel_arrow_rust5proto13opentelemetry6common2v1NtB8_8KeyValueNtNtCs9ugllKyEvyV_5prost7message7Message11merge_fieldQQNtNtNtCs87Lp0jQnWEh_5tonic5codec6buffer9DecodeBufE0Bg_
FNDA:0,_RNCINvXsn_NtNtNtNtCs2Zzx8WPYKXd_15otel_arrow_rust5proto13opentelemetry6common2v1NtB8_8KeyValueNtNtCs9ugllKyEvyV_5prost7message7Message11merge_fieldQQNtNtNtCs87Lp0jQnWEh_5tonic5codec6buffer9DecodeBufEs_0Bg_
FNDA:0,_RNCINvXsw_NtNtNtNtCs2Zzx8WPYKXd_15otel_arrow_rust5proto13opentelemetry6common2v1NtB8_20InstrumentationScopeNtNtCs9ugllKyEvyV_5prost7message7Message11merge_fieldQQNtNtNtCs87Lp0jQnWEh_5tonic5codec6buffer9DecodeBufE0Bg_
FNDA:0,_RNCINvXsw_NtNtNtNtCs2Zzx8WPYKXd_15otel_arrow_rust5proto13opentelemetry6common2v1NtB8_20InstrumentationScopeNtNtCs9ugllKyEvyV_5prost7message7Message11merge_fieldQQNtNtNtCs87Lp0jQnWEh_5tonic5codec6buffer9DecodeBufEs0_0Bg_
FNDA:0,_RNCINvXsw_NtNtNtNtCs2Zzx8WPYKXd_15otel_arrow_rust5proto13opentelemetry6common2v1NtB8_20InstrumentationScopeNtNtCs9ugllKyEvyV_5prost7message7Message11merge_fieldQQNtNtNtCs87Lp0jQnWEh_5tonic5codec6buffer9DecodeBufEs1_0Bg_
FNDA:0,_RNCINvXsw_NtNtNtNtCs2Zzx8WPYKXd_15otel_arrow_rust5proto13opentelemetry6common2v1NtB8_20InstrumentationScopeNtNtCs9ugllKyEvyV_5prost7message7Message11merge_fieldQQNtNtNtCs87Lp0jQnWEh_5tonic5codec6buffer9DecodeBufEs_0Bg_
FNDA:141,_RNCNvXsn_NtNtNtNtCs2Zzx8WPYKXd_15otel_arrow_rust5proto13opentelemetry6common2v1NtB7_8KeyValueNtNtCs9ugllKyEvyV_5prost7message7Message11encoded_len0Bf_
FNF:7
FNH:7
DA:2,334
DA:11,10
DA:29,36
DA:36,39
DA:43,197
DA:52,20
DA:65,7
BRF:0
BRH:0
LF:7
LH:7
end_of_record
SF:/Users/d.dahl/code/otel-arrow/rust/otel-arrow-rust/src/proto/opentelemetry.proto.experimental.arrow.v1.rs
FN:323,_RINvMNtNtNtNtNtCs2Zzx8WPYKXd_15otel_arrow_rust5proto13opentelemetry5arrow2v125arrow_logs_service_clientINtB3_22ArrowLogsServiceClientNtNtNtCs87Lp0jQnWEh_5tonic9transport7channel7ChannelE7connectpEBd_
FN:793,_RINvMNtNtNtNtNtCs2Zzx8WPYKXd_15otel_arrow_rust5proto13opentelemetry5arrow2v125arrow_logs_service_serverINtB3_22ArrowLogsServiceServerpE16with_interceptorpEBd_
FN:199,_RINvMNtNtNtNtNtCs2Zzx8WPYKXd_15otel_arrow_rust5proto13opentelemetry5arrow2v127arrow_traces_service_clientINtB3_24ArrowTracesServiceClientNtNtNtCs87Lp0jQnWEh_5tonic9transport7channel7ChannelE7connectpEBd_
FN:602,_RINvMNtNtNtNtNtCs2Zzx8WPYKXd_15otel_arrow_rust5proto13opentelemetry5arrow2v127arrow_traces_service_serverINtB3_24ArrowTracesServiceServerpE16with_interceptorpEBd_
FN:447,_RINvMNtNtNtNtNtCs2Zzx8WPYKXd_15otel_arrow_rust5proto13opentelemetry5arrow2v128arrow_metrics_service_clientINtB3_25ArrowMetricsServiceClientNtNtNtCs87Lp0jQnWEh_5tonic9transport7channel7ChannelE7connectpEBd_
FN:986,_RINvMNtNtNtNtNtCs2Zzx8WPYKXd_15otel_arrow_rust5proto13opentelemetry5arrow2v128arrow_metrics_service_serverINtB3_25ArrowMetricsServiceServerpE16with_interceptorpEBd_
FN:397,_RINvMs_NtNtNtNtNtCs2Zzx8WPYKXd_15otel_arrow_rust5proto13opentelemetry5arrow2v125arrow_logs_service_clientINtB5_22ArrowLogsServiceClientpE10arrow_logspEBf_
FN:347,_RINvMs_NtNtNtNtNtCs2Zzx8WPYKXd_15otel_arrow_rust5proto13opentelemetry5arrow2v125arrow_logs_service_clientINtB5_22ArrowLogsServiceClientpE16with_interceptorpEBf_
FN:273,_RINvMs_NtNtNtNtNtCs2Zzx8WPYKXd_15otel_arrow_rust5proto13opentelemetry5arrow2v127arrow_traces_service_clientINtB5_24ArrowTracesServiceClientpE12arrow_tracespEBf_
FN:223,_RINvMs_NtNtNtNtNtCs2Zzx8WPYKXd_15otel_arrow_rust5proto13opentelemetry5arrow2v127arrow_traces_service_clientINtB5_24ArrowTracesServiceClientpE16with_interceptorpEBf_
FN:521,_RINvMs_NtNtNtNtNtCs2Zzx8WPYKXd_15otel_arrow_rust5proto13opentelemetry5arrow2v128arrow_metrics_service_clientINtB5_25ArrowMetricsServiceClientpE13arrow_metricspEBf_
FN:471,_RINvMs_NtNtNtNtNtCs2Zzx8WPYKXd_15otel_arrow_rust5proto13opentelemetry5arrow2v128arrow_metrics_service_clientINtB5_25ArrowMetricsServiceClientpE16with_interceptorpEBf_
FN:2,_RINvNvXs5_NtNtNtNtCs2Zzx8WPYKXd_15otel_arrow_rust5proto13opentelemetry5arrow2v1NtB8_17BatchArrowRecordsNtNtCs8sCtDi7t2F4_4core3fmt5Debug3fmt13ScalarWrapperpEBg_
FN:2,_RINvNvXs5_NtNtNtNtCs2Zzx8WPYKXd_15otel_arrow_rust5proto13opentelemetry5arrow2v1NtB8_17BatchArrowRecordsNtNtCs8sCtDi7t2F4_4core3fmt5Debug3fmts_13ScalarWrapperpEBg_
FN:11,_RINvNvXsb_NtNtNtNtCs2Zzx8WPYKXd_15otel_arrow_rust5proto13opentelemetry5arrow2v1NtB8_12ArrowPayloadNtNtCs8sCtDi7t2F4_4core3fmt5Debug3fmt13ScalarWrapperpEBg_
FN:11,_RINvNvXsb_NtNtNtNtCs2Zzx8WPYKXd_15otel_arrow_rust5proto13opentelemetry5arrow2v1NtB8_12ArrowPayloadNtNtCs8sCtDi7t2F4_4core3fmt5Debug3fmts_13ScalarWrapperpEBg_
FN:20,_RINvNvXsi_NtNtNtNtCs2Zzx8WPYKXd_15otel_arrow_rust5proto13opentelemetry5arrow2v1NtB8_11BatchStatusNtNtCs8sCtDi7t2F4_4core3fmt5Debug3fmt13ScalarWrapperpEBg_
FN:20,_RINvNvXsi_NtNtNtNtCs2Zzx8WPYKXd_15otel_arrow_rust5proto13opentelemetry5arrow2v1NtB8_11BatchStatusNtNtCs8sCtDi7t2F4_4core3fmt5Debug3fmts_13ScalarWrapperpEBg_
FN:327,_RNCINvMNtNtNtNtNtCs2Zzx8WPYKXd_15otel_arrow_rust5proto13opentelemetry5arrow2v125arrow_logs_service_clientINtB5_22ArrowLogsServiceClientNtNtNtCs87Lp0jQnWEh_5tonic9transport7channel7ChannelE7connectpE0Bf_
FN:203,_RNCINvMNtNtNtNtNtCs2Zzx8WPYKXd_15otel_arrow_rust5proto13opentelemetry5arrow2v127arrow_traces_service_clientINtB5_24ArrowTracesServiceClientNtNtNtCs87Lp0jQnWEh_5tonic9transport7channel7ChannelE7connectpE0Bf_
FN:451,_RNCINvMNtNtNtNtNtCs2Zzx8WPYKXd_15otel_arrow_rust5proto13opentelemetry5arrow2v128arrow_metrics_service_clientINtB5_25ArrowMetricsServiceClientNtNtNtCs87Lp0jQnWEh_5tonic9transport7channel7ChannelE7connectpE0Bf_
FN:403,_RNCINvMs_NtNtNtNtNtCs2Zzx8WPYKXd_15otel_arrow_rust5proto13opentelemetry5arrow2v125arrow_logs_service_clientINtB7_22ArrowLogsServiceClientpE10arrow_logspE0Bh_
FN:279,_RNCINvMs_NtNtNtNtNtCs2Zzx8WPYKXd_15otel_arrow_rust5proto13opentelemetry5arrow2v127arrow_traces_service_clientINtB7_24ArrowTracesServiceClientpE12arrow_tracespE0Bh_
FN:527,_RNCINvMs_NtNtNtNtNtCs2Zzx8WPYKXd_15otel_arrow_rust5proto13opentelemetry5arrow2v128arrow_metrics_service_clientINtB7_25ArrowMetricsServiceClientpE13arrow_metricspE0Bh_
FN:20,_RNCINvXsg_NtNtNtNtCs2Zzx8WPYKXd_15otel_arrow_rust5proto13opentelemetry5arrow2v1NtB8_11BatchStatusNtNtCs9ugllKyEvyV_5prost7message7Message11merge_fieldpE0Bg_
FN:20,_RNCINvXsg_NtNtNtNtCs2Zzx8WPYKXd_15otel_arrow_rust5proto13opentelemetry5arrow2v1NtB8_11BatchStatusNtNtCs9ugllKyEvyV_5prost7message7Message11merge_fieldpEs0_0Bg_
FN:20,_RNCINvXsg_NtNtNtNtCs2Zzx8WPYKXd_15otel_arrow_rust5proto13opentelemetry5arrow2v1NtB8_11BatchStatusNtNtCs9ugllKyEvyV_5prost7message7Message11merge_fieldpEs_0Bg_
FN:407,_RNCNCINvMs_NtNtNtNtNtCs2Zzx8WPYKXd_15otel_arrow_rust5proto13opentelemetry5arrow2v125arrow_logs_service_clientINtB9_22ArrowLogsServiceClientpE10arrow_logspE00Bj_
FN:283,_RNCNCINvMs_NtNtNtNtNtCs2Zzx8WPYKXd_15otel_arrow_rust5proto13opentelemetry5arrow2v127arrow_traces_service_clientINtB9_24ArrowTracesServiceClientpE12arrow_tracespE00Bj_
FN:531,_RNCNCINvMs_NtNtNtNtNtCs2Zzx8WPYKXd_15otel_arrow_rust5proto13opentelemetry5arrow2v128arrow_metrics_service_clientINtB9_25ArrowMetricsServiceClientpE13arrow_metricspE00Bj_
FN:689,_RNCNvXININtNtNtNtNtCs2Zzx8WPYKXd_15otel_arrow_rust5proto13opentelemetry5arrow2v127arrow_traces_service_servers_0ppEINtB7_24ArrowTracesServiceServerpEINtCsl3eF1jQi4se_13tower_service7ServiceINtNtCsfWkY8aoTePL_4http7request7RequestpEE4call0Bh_
FN:707,_RNCNvXININtNtNtNtNtCs2Zzx8WPYKXd_15otel_arrow_rust5proto13opentelemetry5arrow2v127arrow_traces_service_servers_0ppEINtB7_24ArrowTracesServiceServerpEINtCsl3eF1jQi4se_13tower_service7ServiceINtNtCsfWkY8aoTePL_4http7request7RequestpEE4calls_0Bh_
FN:677,_RNCNvXININvXs_NtNtNtNtNtCs2Zzx8WPYKXd_15otel_arrow_rust5proto13opentelemetry5arrow2v127arrow_traces_service_serverINtBc_24ArrowTracesServiceServerpEINtCsl3eF1jQi4se_13tower_service7ServiceINtNtCsfWkY8aoTePL_4http7request7RequestpEE4call0pEINtB7_14ArrowTracesSvcpEINtNtNtCs87Lp0jQnWEh_5tonic6server7service16StreamingServiceNtBe_17BatchArrowRecordsE4call0Bm_
FN:65,_RNvMNtNtNtNtCs2Zzx8WPYKXd_15otel_arrow_rust5proto13opentelemetry5arrow2v1NtB2_16ArrowPayloadType11as_str_name
FN:97,_RNvMNtNtNtNtCs2Zzx8WPYKXd_15otel_arrow_rust5proto13opentelemetry5arrow2v1NtB2_16ArrowPayloadType13from_str_name
FN:810,_RNvMNtNtNtNtNtCs2Zzx8WPYKXd_15otel_arrow_rust5proto13opentelemetry5arrow2v125arrow_logs_service_serverINtB2_22ArrowLogsServiceServerpE15send_compressedBc_
FN:804,_RNvMNtNtNtNtNtCs2Zzx8WPYKXd_15otel_arrow_rust5proto13opentelemetry5arrow2v125arrow_logs_service_serverINtB2_22ArrowLogsServiceServerpE17accept_compressedBc_
FN:818,_RNvMNtNtNtNtNtCs2Zzx8WPYKXd_15otel_arrow_rust5proto13opentelemetry5arrow2v125arrow_logs_service_serverINtB2_22ArrowLogsServiceServerpE25max_decoding_message_sizeBc_
FN:826,_RNvMNtNtNtNtNtCs2Zzx8WPYKXd_15otel_arrow_rust5proto13opentelemetry5arrow2v125arrow_logs_service_serverINtB2_22ArrowLogsServiceServerpE25max_encoding_message_sizeBc_
FN:619,_RNvMNtNtNtNtNtCs2Zzx8WPYKXd_15otel_arrow_rust5proto13opentelemetry5arrow2v127arrow_traces_service_serverINtB2_24ArrowTracesServiceServerpE15send_compressedBc_
FN:613,_RNvMNtNtNtNtNtCs2Zzx8WPYKXd_15otel_arrow_rust5proto13opentelemetry5arrow2v127arrow_traces_service_serverINtB2_24ArrowTracesServiceServerpE17accept_compressedBc_
FN:627,_RNvMNtNtNtNtNtCs2Zzx8WPYKXd_15otel_arrow_rust5proto13opentelemetry5arrow2v127arrow_traces_service_serverINtB2_24ArrowTracesServiceServerpE25max_decoding_message_sizeBc_
FN:635,_RNvMNtNtNtNtNtCs2Zzx8WPYKXd_15otel_arrow_rust5proto13opentelemetry5arrow2v127arrow_traces_service_serverINtB2_24ArrowTracesServiceServerpE25max_encoding_message_sizeBc_
FN:590,_RNvMNtNtNtNtNtCs2Zzx8WPYKXd_15otel_arrow_rust5proto13opentelemetry5arrow2v127arrow_traces_service_serverINtB2_24ArrowTracesServiceServerpE3newBc_
FN:593,_RNvMNtNtNtNtNtCs2Zzx8WPYKXd_15otel_arrow_rust5proto13opentelemetry5arrow2v127arrow_traces_service_serverINtB2_24ArrowTracesServiceServerpE8from_arcBc_
FN:1003,_RNvMNtNtNtNtNtCs2Zzx8WPYKXd_15otel_arrow_rust5proto13opentelemetry5arrow2v128arrow_metrics_service_serverINtB2_25ArrowMetricsServiceServerpE15send_compressedBc_
FN:997,_RNvMNtNtNtNtNtCs2Zzx8WPYKXd_15otel_arrow_rust5proto13opentelemetry5arrow2v128arrow_metrics_service_serverINtB2_25ArrowMetricsServiceServerpE17accept_compressedBc_
FN:1011,_RNvMNtNtNtNtNtCs2Zzx8WPYKXd_15otel_arrow_rust5proto13opentelemetry5arrow2v128arrow_metrics_service_serverINtB2_25ArrowMetricsServiceServerpE25max_decoding_message_sizeBc_
FN:1019,_RNvMNtNtNtNtNtCs2Zzx8WPYKXd_15otel_arrow_rust5proto13opentelemetry5arrow2v128arrow_metrics_service_serverINtB2_25ArrowMetricsServiceServerpE25max_encoding_message_sizeBc_
FN:149,_RNvMs_NtNtNtNtCs2Zzx8WPYKXd_15otel_arrow_rust5proto13opentelemetry5arrow2v1NtB4_10StatusCode11as_str_name
FN:164,_RNvMs_NtNtNtNtCs2Zzx8WPYKXd_15otel_arrow_rust5proto13opentelemetry5arrow2v1NtB4_10StatusCode13from_str_name
FN:343,_RNvMs_NtNtNtNtNtCs2Zzx8WPYKXd_15otel_arrow_rust5proto13opentelemetry5arrow2v125arrow_logs_service_clientINtB4_22ArrowLogsServiceClientpE11with_originBe_
FN:371,_RNvMs_NtNtNtNtNtCs2Zzx8WPYKXd_15otel_arrow_rust5proto13opentelemetry5arrow2v125arrow_logs_service_clientINtB4_22ArrowLogsServiceClientpE15send_compressedBe_
FN:377,_RNvMs_NtNtNtNtNtCs2Zzx8WPYKXd_15otel_arrow_rust5proto13opentelemetry5arrow2v125arrow_logs_service_clientINtB4_22ArrowLogsServiceClientpE17accept_compressedBe_
FN:385,_RNvMs_NtNtNtNtNtCs2Zzx8WPYKXd_15otel_arrow_rust5proto13opentelemetry5arrow2v125arrow_logs_service_clientINtB4_22ArrowLogsServiceClientpE25max_decoding_message_sizeBe_
FN:393,_RNvMs_NtNtNtNtNtCs2Zzx8WPYKXd_15otel_arrow_rust5proto13opentelemetry5arrow2v125arrow_logs_service_clientINtB4_22ArrowLogsServiceClientpE25max_encoding_message_sizeBe_
FN:339,_RNvMs_NtNtNtNtNtCs2Zzx8WPYKXd_15otel_arrow_rust5proto13opentelemetry5arrow2v125arrow_logs_service_clientINtB4_22ArrowLogsServiceClientpE3newBe_
FN:219,_RNvMs_NtNtNtNtNtCs2Zzx8WPYKXd_15otel_arrow_rust5proto13opentelemetry5arrow2v127arrow_traces_service_clientINtB4_24ArrowTracesServiceClientpE11with_originBe_
FN:247,_RNvMs_NtNtNtNtNtCs2Zzx8WPYKXd_15otel_arrow_rust5proto13opentelemetry5arrow2v127arrow_traces_service_clientINtB4_24ArrowTracesServiceClientpE15send_compressedBe_
FN:253,_RNvMs_NtNtNtNtNtCs2Zzx8WPYKXd_15otel_arrow_rust5proto13opentelemetry5arrow2v127arrow_traces_service_clientINtB4_24ArrowTracesServiceClientpE17accept_compressedBe_
FN:261,_RNvMs_NtNtNtNtNtCs2Zzx8WPYKXd_15otel_arrow_rust5proto13opentelemetry5arrow2v127arrow_traces_service_clientINtB4_24ArrowTracesServiceClientpE25max_decoding_message_sizeBe_
FN:269,_RNvMs_NtNtNtNtNtCs2Zzx8WPYKXd_15otel_arrow_rust5proto13opentelemetry5arrow2v127arrow_traces_service_clientINtB4_24ArrowTracesServiceClientpE25max_encoding_message_sizeBe_
FN:215,_RNvMs_NtNtNtNtNtCs2Zzx8WPYKXd_15otel_arrow_rust5proto13opentelemetry5arrow2v127arrow_traces_service_clientINtB4_24ArrowTracesServiceClientpE3newBe_
FN:467,_RNvMs_NtNtNtNtNtCs2Zzx8WPYKXd_15otel_arrow_rust5proto13opentelemetry5arrow2v128arrow_metrics_service_clientINtB4_25ArrowMetricsServiceClientpE11with_originBe_
FN:495,_RNvMs_NtNtNtNtNtCs2Zzx8WPYKXd_15otel_arrow_rust5proto13opentelemetry5arrow2v128arrow_metrics_service_clientINtB4_25ArrowMetricsServiceClientpE15send_compressedBe_
FN:501,_RNvMs_NtNtNtNtNtCs2Zzx8WPYKXd_15otel_arrow_rust5proto13opentelemetry5arrow2v128arrow_metrics_service_clientINtB4_25ArrowMetricsServiceClientpE17accept_compressedBe_
FN:509,_RNvMs_NtNtNtNtNtCs2Zzx8WPYKXd_15otel_arrow_rust5proto13opentelemetry5arrow2v128arrow_metrics_service_clientINtB4_25ArrowMetricsServiceClientpE25max_decoding_message_sizeBe_
FN:517,_RNvMs_NtNtNtNtNtCs2Zzx8WPYKXd_15otel_arrow_rust5proto13opentelemetry5arrow2v128arrow_metrics_service_clientINtB4_25ArrowMetricsServiceClientpE25max_encoding_message_sizeBe_
FN:463,_RNvMs_NtNtNtNtNtCs2Zzx8WPYKXd_15otel_arrow_rust5proto13opentelemetry5arrow2v128arrow_metrics_service_clientINtB4_25ArrowMetricsServiceClientpE3newBe_
FN:11,_RNvMsc_NtNtNtNtCs2Zzx8WPYKXd_15otel_arrow_rust5proto13opentelemetry5arrow2v1NtB5_12ArrowPayload4type
FN:11,_RNvMsc_NtNtNtNtCs2Zzx8WPYKXd_15otel_arrow_rust5proto13opentelemetry5arrow2v1NtB5_12ArrowPayload8set_type
FN:20,_RNvMsj_NtNtNtNtCs2Zzx8WPYKXd_15otel_arrow_rust5proto13opentelemetry5arrow2v1NtB5_11BatchStatus11status_code
FN:20,_RNvMsj_NtNtNtNtCs2Zzx8WPYKXd_15otel_arrow_rust5proto13opentelemetry5arrow2v1NtB5_11BatchStatus15set_status_code
FN:729,_RNvXININtNtNtNtNtCs2Zzx8WPYKXd_15otel_arrow_rust5proto13opentelemetry5arrow2v127arrow_traces_service_servers0_0pEINtB5_24ArrowTracesServiceServerpENtNtCs8sCtDi7t2F4_4core5clone5Clone5cloneBf_
FN:649,_RNvXININtNtNtNtNtCs2Zzx8WPYKXd_15otel_arrow_rust5proto13opentelemetry5arrow2v127arrow_traces_service_servers_0ppEINtB5_24ArrowTracesServiceServerpEINtCsl3eF1jQi4se_13tower_service7ServiceINtNtCsfWkY8aoTePL_4http7request7RequestpEE10poll_readyBf_
FN:655,_RNvXININtNtNtNtNtCs2Zzx8WPYKXd_15otel_arrow_rust5proto13opentelemetry5arrow2v127arrow_traces_service_servers_0ppEINtB5_24ArrowTracesServiceServerpEINtCsl3eF1jQi4se_13tower_service7ServiceINtNtCsfWkY8aoTePL_4http7request7RequestpEE4callBf_
FN:670,_RNvXININvXs_NtNtNtNtNtCs2Zzx8WPYKXd_15otel_arrow_rust5proto13opentelemetry5arrow2v127arrow_traces_service_serverINtBa_24ArrowTracesServiceServerpEINtCsl3eF1jQi4se_13tower_service7ServiceINtNtCsfWkY8aoTePL_4http7request7RequestpEE4call0pEINtB5_14ArrowTracesSvcpEINtNtNtCs87Lp0jQnWEh_5tonic6server7service16StreamingServiceNtBc_17BatchArrowRecordsE4callBk_
FN:2,_RNvXs3_NtNtNtNtCs2Zzx8WPYKXd_15otel_arrow_rust5proto13opentelemetry5arrow2v1NtB5_17BatchArrowRecordsNtNtCs9ugllKyEvyV_5prost7message7Message5clear
FN:11,_RNvXs9_NtNtNtNtCs2Zzx8WPYKXd_15otel_arrow_rust5proto13opentelemetry5arrow2v1NtB5_12ArrowPayloadNtNtCs9ugllKyEvyV_5prost7message7Message5clear
FN:130,_RNvXsI_NtNtNtNtCs2Zzx8WPYKXd_15otel_arrow_rust5proto13opentelemetry5arrow2v1lINtNtCs8sCtDi7t2F4_4core7convert4FromNtB5_10StatusCodeE4from
FN:20,_RNvXsg_NtNtNtNtCs2Zzx8WPYKXd_15otel_arrow_rust5proto13opentelemetry5arrow2v1NtB5_11BatchStatusNtNtCs9ugllKyEvyV_5prost7message7Message5clear
FN:20,_RNvXsh_NtNtNtNtCs2Zzx8WPYKXd_15otel_arrow_rust5proto13opentelemetry5arrow2v1NtB5_11BatchStatusNtNtCs8sCtDi7t2F4_4core7default7Default7default
FN:2,_RNCINvXs3_NtNtNtNtCs2Zzx8WPYKXd_15otel_arrow_rust5proto13opentelemetry5arrow2v1NtB8_17BatchArrowRecordsNtNtCs9ugllKyEvyV_5prost7message7Message11merge_fieldQQNtNtNtCs87Lp0jQnWEh_5tonic5codec6buffer9DecodeBufE0Bg_
FN:2,_RNCINvXs3_NtNtNtNtCs2Zzx8WPYKXd_15otel_arrow_rust5proto13opentelemetry5arrow2v1NtB8_17BatchArrowRecordsNtNtCs9ugllKyEvyV_5prost7message7Message11merge_fieldQQNtNtNtCs87Lp0jQnWEh_5tonic5codec6buffer9DecodeBufEs0_0Bg_
FN:2,_RNCINvXs3_NtNtNtNtCs2Zzx8WPYKXd_15otel_arrow_rust5proto13opentelemetry5arrow2v1NtB8_17BatchArrowRecordsNtNtCs9ugllKyEvyV_5prost7message7Message11merge_fieldQQNtNtNtCs87Lp0jQnWEh_5tonic5codec6buffer9DecodeBufEs_0Bg_
FN:11,_RNCINvXs9_NtNtNtNtCs2Zzx8WPYKXd_15otel_arrow_rust5proto13opentelemetry5arrow2v1NtB8_12ArrowPayloadNtNtCs9ugllKyEvyV_5prost7message7Message11merge_fieldQQNtNtNtCs87Lp0jQnWEh_5tonic5codec6buffer9DecodeBufE0Bg_
FN:11,_RNCINvXs9_NtNtNtNtCs2Zzx8WPYKXd_15otel_arrow_rust5proto13opentelemetry5arrow2v1NtB8_12ArrowPayloadNtNtCs9ugllKyEvyV_5prost7message7Message11merge_fieldQQNtNtNtCs87Lp0jQnWEh_5tonic5codec6buffer9DecodeBufEs0_0Bg_
FN:11,_RNCINvXs9_NtNtNtNtCs2Zzx8WPYKXd_15otel_arrow_rust5proto13opentelemetry5arrow2v1NtB8_12ArrowPayloadNtNtCs9ugllKyEvyV_5prost7message7Message11merge_fieldQQNtNtNtCs87Lp0jQnWEh_5tonic5codec6buffer9DecodeBufEs_0Bg_
FN:868,_RNCNvXNvXs_NtNtNtNtNtCs2Zzx8WPYKXd_15otel_arrow_rust5proto13opentelemetry5arrow2v125arrow_logs_service_serverINtB9_22ArrowLogsServiceServerpEINtCsl3eF1jQi4se_13tower_service7ServiceINtNtCsfWkY8aoTePL_4http7request7RequestpEE4callINtB4_12ArrowLogsSvcNtNtNtBj_10validation4otap15OTAPLogsAdapterEINtNtNtCs87Lp0jQnWEh_5tonic6server7service16StreamingServiceNtBb_17BatchArrowRecordsE4call0Bj_
FN:879,_RNCNvXs_NtNtNtNtNtCs2Zzx8WPYKXd_15otel_arrow_rust5proto13opentelemetry5arrow2v125arrow_logs_service_serverINtB6_22ArrowLogsServiceServerNtNtNtBg_10validation4otap15OTAPLogsAdapterEINtCsl3eF1jQi4se_13tower_service7ServiceINtNtCsfWkY8aoTePL_4http7request7RequestNtNtCs87Lp0jQnWEh_5tonic4body4BodyEE4call0Bg_
FN:897,_RNCNvXs_NtNtNtNtNtCs2Zzx8WPYKXd_15otel_arrow_rust5proto13opentelemetry5arrow2v125arrow_logs_service_serverINtB6_22ArrowLogsServiceServerNtNtNtBg_10validation4otap15OTAPLogsAdapterEINtCsl3eF1jQi4se_13tower_service7ServiceINtNtCsfWkY8aoTePL_4http7request7RequestNtNtCs87Lp0jQnWEh_5tonic4body4BodyEE4calls_0Bg_
FN:781,_RNvMNtNtNtNtNtCs2Zzx8WPYKXd_15otel_arrow_rust5proto13opentelemetry5arrow2v125arrow_logs_service_serverINtB2_22ArrowLogsServiceServerNtNtNtBc_10validation4otap15OTAPLogsAdapterE3newBc_
FN:784,_RNvMNtNtNtNtNtCs2Zzx8WPYKXd_15otel_arrow_rust5proto13opentelemetry5arrow2v125arrow_logs_service_serverINtB2_22ArrowLogsServiceServerNtNtNtBc_10validation4otap15OTAPLogsAdapterE8from_arcBc_
FN:861,_RNvXNvXs_NtNtNtNtNtCs2Zzx8WPYKXd_15otel_arrow_rust5proto13opentelemetry5arrow2v125arrow_logs_service_serverINtB7_22ArrowLogsServiceServerpEINtCsl3eF1jQi4se_13tower_service7ServiceINtNtCsfWkY8aoTePL_4http7request7RequestpEE4callINtB2_12ArrowLogsSvcNtNtNtBh_10validation4otap15OTAPLogsAdapterEINtNtNtCs87Lp0jQnWEh_5tonic6server7service16StreamingServiceNtB9_17BatchArrowRecordsE4callBh_
FN:919,_RNvXs0_NtNtNtNtNtCs2Zzx8WPYKXd_15otel_arrow_rust5proto13opentelemetry5arrow2v125arrow_logs_service_serverINtB5_22ArrowLogsServiceServerNtNtNtBf_10validation4otap15OTAPLogsAdapterENtNtCs8sCtDi7t2F4_4core5clone5Clone5cloneBf_
FN:840,_RNvXs_NtNtNtNtNtCs2Zzx8WPYKXd_15otel_arrow_rust5proto13opentelemetry5arrow2v125arrow_logs_service_serverINtB4_22ArrowLogsServiceServerNtNtNtBe_10validation4otap15OTAPLogsAdapterEINtCsl3eF1jQi4se_13tower_service7ServiceINtNtCsfWkY8aoTePL_4http7request7RequestNtNtCs87Lp0jQnWEh_5tonic4body4BodyEE10poll_readyBe_
FN:846,_RNvXs_NtNtNtNtNtCs2Zzx8WPYKXd_15otel_arrow_rust5proto13opentelemetry5arrow2v125arrow_logs_service_serverINtB4_22ArrowLogsServiceServerNtNtNtBe_10validation4otap15OTAPLogsAdapterEINtCsl3eF1jQi4se_13tower_service7ServiceINtNtCsfWkY8aoTePL_4http7request7RequestNtNtCs87Lp0jQnWEh_5tonic4body4BodyEE4callBe_
FN:1061,_RNCNvXNvXs_NtNtNtNtNtCs2Zzx8WPYKXd_15otel_arrow_rust5proto13opentelemetry5arrow2v128arrow_metrics_service_serverINtB9_25ArrowMetricsServiceServerpEINtCsl3eF1jQi4se_13tower_service7ServiceINtNtCsfWkY8aoTePL_4http7request7RequestpEE4callINtB4_15ArrowMetricsSvcNtNtNtBj_10validation4otap18OTAPMetricsAdapterEINtNtNtCs87Lp0jQnWEh_5tonic6server7service16StreamingServiceNtBb_17BatchArrowRecordsE4call0Bj_
FN:1073,_RNCNvXs_NtNtNtNtNtCs2Zzx8WPYKXd_15otel_arrow_rust5proto13opentelemetry5arrow2v128arrow_metrics_service_serverINtB6_25ArrowMetricsServiceServerNtNtNtBg_10validation4otap18OTAPMetricsAdapterEINtCsl3eF1jQi4se_13tower_service7ServiceINtNtCsfWkY8aoTePL_4http7request7RequestNtNtCs87Lp0jQnWEh_5tonic4body4BodyEE4call0Bg_
FN:1091,_RNCNvXs_NtNtNtNtNtCs2Zzx8WPYKXd_15otel_arrow_rust5proto13opentelemetry5arrow2v128arrow_metrics_service_serverINtB6_25ArrowMetricsServiceServerNtNtNtBg_10validation4otap18OTAPMetricsAdapterEINtCsl3eF1jQi4se_13tower_service7ServiceINtNtCsfWkY8aoTePL_4http7request7RequestNtNtCs87Lp0jQnWEh_5tonic4body4BodyEE4calls_0Bg_
FN:974,_RNvMNtNtNtNtNtCs2Zzx8WPYKXd_15otel_arrow_rust5proto13opentelemetry5arrow2v128arrow_metrics_service_serverINtB2_25ArrowMetricsServiceServerNtNtNtBc_10validation4otap18OTAPMetricsAdapterE3newBc_
FN:977,_RNvMNtNtNtNtNtCs2Zzx8WPYKXd_15otel_arrow_rust5proto13opentelemetry5arrow2v128arrow_metrics_service_serverINtB2_25ArrowMetricsServiceServerNtNtNtBc_10validation4otap18OTAPMetricsAdapterE8from_arcBc_
FN:1054,_RNvXNvXs_NtNtNtNtNtCs2Zzx8WPYKXd_15otel_arrow_rust5proto13opentelemetry5arrow2v128arrow_metrics_service_serverINtB7_25ArrowMetricsServiceServerpEINtCsl3eF1jQi4se_13tower_service7ServiceINtNtCsfWkY8aoTePL_4http7request7RequestpEE4callINtB2_15ArrowMetricsSvcNtNtNtBh_10validation4otap18OTAPMetricsAdapterEINtNtNtCs87Lp0jQnWEh_5tonic6server7service16StreamingServiceNtB9_17BatchArrowRecordsE4callBh_
FN:1113,_RNvXs0_NtNtNtNtNtCs2Zzx8WPYKXd_15otel_arrow_rust5proto13opentelemetry5arrow2v128arrow_metrics_service_serverINtB5_25ArrowMetricsServiceServerNtNtNtBf_10validation4otap18OTAPMetricsAdapterENtNtCs8sCtDi7t2F4_4core5clone5Clone5cloneBf_
FN:1033,_RNvXs_NtNtNtNtNtCs2Zzx8WPYKXd_15otel_arrow_rust5proto13opentelemetry5arrow2v128arrow_metrics_service_serverINtB4_25ArrowMetricsServiceServerNtNtNtBe_10validation4otap18OTAPMetricsAdapterEINtCsl3eF1jQi4se_13tower_service7ServiceINtNtCsfWkY8aoTePL_4http7request7RequestNtNtCs87Lp0jQnWEh_5tonic4body4BodyEE10poll_readyBe_
FN:1039,_RNvXs_NtNtNtNtNtCs2Zzx8WPYKXd_15otel_arrow_rust5proto13opentelemetry5arrow2v128arrow_metrics_service_serverINtB4_25ArrowMetricsServiceServerNtNtNtBe_10validation4otap18OTAPMetricsAdapterEINtCsl3eF1jQi4se_13tower_service7ServiceINtNtCsfWkY8aoTePL_4http7request7RequestNtNtCs87Lp0jQnWEh_5tonic4body4BodyEE4callBe_
FN:2,_RNvXs4_NtNtNtNtCs2Zzx8WPYKXd_15otel_arrow_rust5proto13opentelemetry5arrow2v1NtB5_17BatchArrowRecordsNtNtCs8sCtDi7t2F4_4core7default7Default7default
FN:130,_RNvXsH_NtNtNtNtCs2Zzx8WPYKXd_15otel_arrow_rust5proto13opentelemetry5arrow2v1NtB5_10StatusCodeNtNtCs8sCtDi7t2F4_4core7default7Default7default
FN:11,_RNvXsa_NtNtNtNtCs2Zzx8WPYKXd_15otel_arrow_rust5proto13opentelemetry5arrow2v1NtB5_12ArrowPayloadNtNtCs8sCtDi7t2F4_4core7default7Default7default
FN:29,_RNvXsu_NtNtNtNtCs2Zzx8WPYKXd_15otel_arrow_rust5proto13opentelemetry5arrow2v1NtB5_16ArrowPayloadTypeNtNtCs8sCtDi7t2F4_4core7default7Default7default
FN:29,_RNvXsv_NtNtNtNtCs2Zzx8WPYKXd_15otel_arrow_rust5proto13opentelemetry5arrow2v1lINtNtCs8sCtDi7t2F4_4core7convert4FromNtB5_16ArrowPayloadTypeE4from
FNDA:0,_RINvMNtNtNtNtNtCs2Zzx8WPYKXd_15otel_arrow_rust5proto13opentelemetry5arrow2v125arrow_logs_service_clientINtB3_22ArrowLogsServiceClientNtNtNtCs87Lp0jQnWEh_5tonic9transport7channel7ChannelE7connectpEBd_
FNDA:0,_RINvMNtNtNtNtNtCs2Zzx8WPYKXd_15otel_arrow_rust5proto13opentelemetry5arrow2v125arrow_logs_service_serverINtB3_22ArrowLogsServiceServerpE16with_interceptorpEBd_
FNDA:0,_RINvMNtNtNtNtNtCs2Zzx8WPYKXd_15otel_arrow_rust5proto13opentelemetry5arrow2v127arrow_traces_service_clientINtB3_24ArrowTracesServiceClientNtNtNtCs87Lp0jQnWEh_5tonic9transport7channel7ChannelE7connectpEBd_
FNDA:0,_RINvMNtNtNtNtNtCs2Zzx8WPYKXd_15otel_arrow_rust5proto13opentelemetry5arrow2v127arrow_traces_service_serverINtB3_24ArrowTracesServiceServerpE16with_interceptorpEBd_
FNDA:0,_RINvMNtNtNtNtNtCs2Zzx8WPYKXd_15otel_arrow_rust5proto13opentelemetry5arrow2v128arrow_metrics_service_clientINtB3_25ArrowMetricsServiceClientNtNtNtCs87Lp0jQnWEh_5tonic9transport7channel7ChannelE7connectpEBd_
FNDA:0,_RINvMNtNtNtNtNtCs2Zzx8WPYKXd_15otel_arrow_rust5proto13opentelemetry5arrow2v128arrow_metrics_service_serverINtB3_25ArrowMetricsServiceServerpE16with_interceptorpEBd_
FNDA:0,_RINvMs_NtNtNtNtNtCs2Zzx8WPYKXd_15otel_arrow_rust5proto13opentelemetry5arrow2v125arrow_logs_service_clientINtB5_22ArrowLogsServiceClientpE10arrow_logspEBf_
FNDA:0,_RINvMs_NtNtNtNtNtCs2Zzx8WPYKXd_15otel_arrow_rust5proto13opentelemetry5arrow2v125arrow_logs_service_clientINtB5_22ArrowLogsServiceClientpE16with_interceptorpEBf_
FNDA:0,_RINvMs_NtNtNtNtNtCs2Zzx8WPYKXd_15otel_arrow_rust5proto13opentelemetry5arrow2v127arrow_traces_service_clientINtB5_24ArrowTracesServiceClientpE12arrow_tracespEBf_
FNDA:0,_RINvMs_NtNtNtNtNtCs2Zzx8WPYKXd_15otel_arrow_rust5proto13opentelemetry5arrow2v127arrow_traces_service_clientINtB5_24ArrowTracesServiceClientpE16with_interceptorpEBf_
FNDA:0,_RINvMs_NtNtNtNtNtCs2Zzx8WPYKXd_15otel_arrow_rust5proto13opentelemetry5arrow2v128arrow_metrics_service_clientINtB5_25ArrowMetricsServiceClientpE13arrow_metricspEBf_
FNDA:0,_RINvMs_NtNtNtNtNtCs2Zzx8WPYKXd_15otel_arrow_rust5proto13opentelemetry5arrow2v128arrow_metrics_service_clientINtB5_25ArrowMetricsServiceClientpE16with_interceptorpEBf_
FNDA:0,_RINvNvXs5_NtNtNtNtCs2Zzx8WPYKXd_15otel_arrow_rust5proto13opentelemetry5arrow2v1NtB8_17BatchArrowRecordsNtNtCs8sCtDi7t2F4_4core3fmt5Debug3fmt13ScalarWrapperpEBg_
FNDA:0,_RINvNvXs5_NtNtNtNtCs2Zzx8WPYKXd_15otel_arrow_rust5proto13opentelemetry5arrow2v1NtB8_17BatchArrowRecordsNtNtCs8sCtDi7t2F4_4core3fmt5Debug3fmts_13ScalarWrapperpEBg_
FNDA:0,_RINvNvXsb_NtNtNtNtCs2Zzx8WPYKXd_15otel_arrow_rust5proto13opentelemetry5arrow2v1NtB8_12ArrowPayloadNtNtCs8sCtDi7t2F4_4core3fmt5Debug3fmt13ScalarWrapperpEBg_
FNDA:0,_RINvNvXsb_NtNtNtNtCs2Zzx8WPYKXd_15otel_arrow_rust5proto13opentelemetry5arrow2v1NtB8_12ArrowPayloadNtNtCs8sCtDi7t2F4_4core3fmt5Debug3fmts_13ScalarWrapperpEBg_
FNDA:0,_RINvNvXsi_NtNtNtNtCs2Zzx8WPYKXd_15otel_arrow_rust5proto13opentelemetry5arrow2v1NtB8_11BatchStatusNtNtCs8sCtDi7t2F4_4core3fmt5Debug3fmt13ScalarWrapperpEBg_
FNDA:0,_RINvNvXsi_NtNtNtNtCs2Zzx8WPYKXd_15otel_arrow_rust5proto13opentelemetry5arrow2v1NtB8_11BatchStatusNtNtCs8sCtDi7t2F4_4core3fmt5Debug3fmts_13ScalarWrapperpEBg_
FNDA:0,_RNCINvMNtNtNtNtNtCs2Zzx8WPYKXd_15otel_arrow_rust5proto13opentelemetry5arrow2v125arrow_logs_service_clientINtB5_22ArrowLogsServiceClientNtNtNtCs87Lp0jQnWEh_5tonic9transport7channel7ChannelE7connectpE0Bf_
FNDA:0,_RNCINvMNtNtNtNtNtCs2Zzx8WPYKXd_15otel_arrow_rust5proto13opentelemetry5arrow2v127arrow_traces_service_clientINtB5_24ArrowTracesServiceClientNtNtNtCs87Lp0jQnWEh_5tonic9transport7channel7ChannelE7connectpE0Bf_
FNDA:0,_RNCINvMNtNtNtNtNtCs2Zzx8WPYKXd_15otel_arrow_rust5proto13opentelemetry5arrow2v128arrow_metrics_service_clientINtB5_25ArrowMetricsServiceClientNtNtNtCs87Lp0jQnWEh_5tonic9transport7channel7ChannelE7connectpE0Bf_
FNDA:0,_RNCINvMs_NtNtNtNtNtCs2Zzx8WPYKXd_15otel_arrow_rust5proto13opentelemetry5arrow2v125arrow_logs_service_clientINtB7_22ArrowLogsServiceClientpE10arrow_logspE0Bh_
FNDA:0,_RNCINvMs_NtNtNtNtNtCs2Zzx8WPYKXd_15otel_arrow_rust5proto13opentelemetry5arrow2v127arrow_traces_service_clientINtB7_24ArrowTracesServiceClientpE12arrow_tracespE0Bh_
FNDA:0,_RNCINvMs_NtNtNtNtNtCs2Zzx8WPYKXd_15otel_arrow_rust5proto13opentelemetry5arrow2v128arrow_metrics_service_clientINtB7_25ArrowMetricsServiceClientpE13arrow_metricspE0Bh_
FNDA:0,_RNCINvXsg_NtNtNtNtCs2Zzx8WPYKXd_15otel_arrow_rust5proto13opentelemetry5arrow2v1NtB8_11BatchStatusNtNtCs9ugllKyEvyV_5prost7message7Message11merge_fieldpE0Bg_
FNDA:0,_RNCINvXsg_NtNtNtNtCs2Zzx8WPYKXd_15otel_arrow_rust5proto13opentelemetry5arrow2v1NtB8_11BatchStatusNtNtCs9ugllKyEvyV_5prost7message7Message11merge_fieldpEs0_0Bg_
FNDA:0,_RNCINvXsg_NtNtNtNtCs2Zzx8WPYKXd_15otel_arrow_rust5proto13opentelemetry5arrow2v1NtB8_11BatchStatusNtNtCs9ugllKyEvyV_5prost7message7Message11merge_fieldpEs_0Bg_
FNDA:0,_RNCNCINvMs_NtNtNtNtNtCs2Zzx8WPYKXd_15otel_arrow_rust5proto13opentelemetry5arrow2v125arrow_logs_service_clientINtB9_22ArrowLogsServiceClientpE10arrow_logspE00Bj_
FNDA:0,_RNCNCINvMs_NtNtNtNtNtCs2Zzx8WPYKXd_15otel_arrow_rust5proto13opentelemetry5arrow2v127arrow_traces_service_clientINtB9_24ArrowTracesServiceClientpE12arrow_tracespE00Bj_
FNDA:0,_RNCNCINvMs_NtNtNtNtNtCs2Zzx8WPYKXd_15otel_arrow_rust5proto13opentelemetry5arrow2v128arrow_metrics_service_clientINtB9_25ArrowMetricsServiceClientpE13arrow_metricspE00Bj_
FNDA:0,_RNCNvXININtNtNtNtNtCs2Zzx8WPYKXd_15otel_arrow_rust5proto13opentelemetry5arrow2v127arrow_traces_service_servers_0ppEINtB7_24ArrowTracesServiceServerpEINtCsl3eF1jQi4se_13tower_service7ServiceINtNtCsfWkY8aoTePL_4http7request7RequestpEE4call0Bh_
FNDA:0,_RNCNvXININtNtNtNtNtCs2Zzx8WPYKXd_15otel_arrow_rust5proto13opentelemetry5arrow2v127arrow_traces_service_servers_0ppEINtB7_24ArrowTracesServiceServerpEINtCsl3eF1jQi4se_13tower_service7ServiceINtNtCsfWkY8aoTePL_4http7request7RequestpEE4calls_0Bh_
FNDA:0,_RNCNvXININvXs_NtNtNtNtNtCs2Zzx8WPYKXd_15otel_arrow_rust5proto13opentelemetry5arrow2v127arrow_traces_service_serverINtBc_24ArrowTracesServiceServerpEINtCsl3eF1jQi4se_13tower_service7ServiceINtNtCsfWkY8aoTePL_4http7request7RequestpEE4call0pEINtB7_14ArrowTracesSvcpEINtNtNtCs87Lp0jQnWEh_5tonic6server7service16StreamingServiceNtBe_17BatchArrowRecordsE4call0Bm_
FNDA:0,_RNvMNtNtNtNtCs2Zzx8WPYKXd_15otel_arrow_rust5proto13opentelemetry5arrow2v1NtB2_16ArrowPayloadType11as_str_name
FNDA:0,_RNvMNtNtNtNtCs2Zzx8WPYKXd_15otel_arrow_rust5proto13opentelemetry5arrow2v1NtB2_16ArrowPayloadType13from_str_name
FNDA:0,_RNvMNtNtNtNtNtCs2Zzx8WPYKXd_15otel_arrow_rust5proto13opentelemetry5arrow2v125arrow_logs_service_serverINtB2_22ArrowLogsServiceServerpE15send_compressedBc_
FNDA:0,_RNvMNtNtNtNtNtCs2Zzx8WPYKXd_15otel_arrow_rust5proto13opentelemetry5arrow2v125arrow_logs_service_serverINtB2_22ArrowLogsServiceServerpE17accept_compressedBc_
FNDA:0,_RNvMNtNtNtNtNtCs2Zzx8WPYKXd_15otel_arrow_rust5proto13opentelemetry5arrow2v125arrow_logs_service_serverINtB2_22ArrowLogsServiceServerpE25max_decoding_message_sizeBc_
FNDA:0,_RNvMNtNtNtNtNtCs2Zzx8WPYKXd_15otel_arrow_rust5proto13opentelemetry5arrow2v125arrow_logs_service_serverINtB2_22ArrowLogsServiceServerpE25max_encoding_message_sizeBc_
FNDA:0,_RNvMNtNtNtNtNtCs2Zzx8WPYKXd_15otel_arrow_rust5proto13opentelemetry5arrow2v127arrow_traces_service_serverINtB2_24ArrowTracesServiceServerpE15send_compressedBc_
FNDA:0,_RNvMNtNtNtNtNtCs2Zzx8WPYKXd_15otel_arrow_rust5proto13opentelemetry5arrow2v127arrow_traces_service_serverINtB2_24ArrowTracesServiceServerpE17accept_compressedBc_
FNDA:0,_RNvMNtNtNtNtNtCs2Zzx8WPYKXd_15otel_arrow_rust5proto13opentelemetry5arrow2v127arrow_traces_service_serverINtB2_24ArrowTracesServiceServerpE25max_decoding_message_sizeBc_
FNDA:0,_RNvMNtNtNtNtNtCs2Zzx8WPYKXd_15otel_arrow_rust5proto13opentelemetry5arrow2v127arrow_traces_service_serverINtB2_24ArrowTracesServiceServerpE25max_encoding_message_sizeBc_
FNDA:0,_RNvMNtNtNtNtNtCs2Zzx8WPYKXd_15otel_arrow_rust5proto13opentelemetry5arrow2v127arrow_traces_service_serverINtB2_24ArrowTracesServiceServerpE3newBc_
FNDA:0,_RNvMNtNtNtNtNtCs2Zzx8WPYKXd_15otel_arrow_rust5proto13opentelemetry5arrow2v127arrow_traces_service_serverINtB2_24ArrowTracesServiceServerpE8from_arcBc_
FNDA:0,_RNvMNtNtNtNtNtCs2Zzx8WPYKXd_15otel_arrow_rust5proto13opentelemetry5arrow2v128arrow_metrics_service_serverINtB2_25ArrowMetricsServiceServerpE15send_compressedBc_
FNDA:0,_RNvMNtNtNtNtNtCs2Zzx8WPYKXd_15otel_arrow_rust5proto13opentelemetry5arrow2v128arrow_metrics_service_serverINtB2_25ArrowMetricsServiceServerpE17accept_compressedBc_
FNDA:0,_RNvMNtNtNtNtNtCs2Zzx8WPYKXd_15otel_arrow_rust5proto13opentelemetry5arrow2v128arrow_metrics_service_serverINtB2_25ArrowMetricsServiceServerpE25max_decoding_message_sizeBc_
FNDA:0,_RNvMNtNtNtNtNtCs2Zzx8WPYKXd_15otel_arrow_rust5proto13opentelemetry5arrow2v128arrow_metrics_service_serverINtB2_25ArrowMetricsServiceServerpE25max_encoding_message_sizeBc_
FNDA:0,_RNvMs_NtNtNtNtCs2Zzx8WPYKXd_15otel_arrow_rust5proto13opentelemetry5arrow2v1NtB4_10StatusCode11as_str_name
FNDA:0,_RNvMs_NtNtNtNtCs2Zzx8WPYKXd_15otel_arrow_rust5proto13opentelemetry5arrow2v1NtB4_10StatusCode13from_str_name
FNDA:0,_RNvMs_NtNtNtNtNtCs2Zzx8WPYKXd_15otel_arrow_rust5proto13opentelemetry5arrow2v125arrow_logs_service_clientINtB4_22ArrowLogsServiceClientpE11with_originBe_
FNDA:0,_RNvMs_NtNtNtNtNtCs2Zzx8WPYKXd_15otel_arrow_rust5proto13opentelemetry5arrow2v125arrow_logs_service_clientINtB4_22ArrowLogsServiceClientpE15send_compressedBe_
FNDA:0,_RNvMs_NtNtNtNtNtCs2Zzx8WPYKXd_15otel_arrow_rust5proto13opentelemetry5arrow2v125arrow_logs_service_clientINtB4_22ArrowLogsServiceClientpE17accept_compressedBe_
FNDA:0,_RNvMs_NtNtNtNtNtCs2Zzx8WPYKXd_15otel_arrow_rust5proto13opentelemetry5arrow2v125arrow_logs_service_clientINtB4_22ArrowLogsServiceClientpE25max_decoding_message_sizeBe_
FNDA:0,_RNvMs_NtNtNtNtNtCs2Zzx8WPYKXd_15otel_arrow_rust5proto13opentelemetry5arrow2v125arrow_logs_service_clientINtB4_22ArrowLogsServiceClientpE25max_encoding_message_sizeBe_
FNDA:0,_RNvMs_NtNtNtNtNtCs2Zzx8WPYKXd_15otel_arrow_rust5proto13opentelemetry5arrow2v125arrow_logs_service_clientINtB4_22ArrowLogsServiceClientpE3newBe_
FNDA:0,_RNvMs_NtNtNtNtNtCs2Zzx8WPYKXd_15otel_arrow_rust5proto13opentelemetry5arrow2v127arrow_traces_service_clientINtB4_24ArrowTracesServiceClientpE11with_originBe_
FNDA:0,_RNvMs_NtNtNtNtNtCs2Zzx8WPYKXd_15otel_arrow_rust5proto13opentelemetry5arrow2v127arrow_traces_service_clientINtB4_24ArrowTracesServiceClientpE15send_compressedBe_
FNDA:0,_RNvMs_NtNtNtNtNtCs2Zzx8WPYKXd_15otel_arrow_rust5proto13opentelemetry5arrow2v127arrow_traces_service_clientINtB4_24ArrowTracesServiceClientpE17accept_compressedBe_
FNDA:0,_RNvMs_NtNtNtNtNtCs2Zzx8WPYKXd_15otel_arrow_rust5proto13opentelemetry5arrow2v127arrow_traces_service_clientINtB4_24ArrowTracesServiceClientpE25max_decoding_message_sizeBe_
FNDA:0,_RNvMs_NtNtNtNtNtCs2Zzx8WPYKXd_15otel_arrow_rust5proto13opentelemetry5arrow2v127arrow_traces_service_clientINtB4_24ArrowTracesServiceClientpE25max_encoding_message_sizeBe_
FNDA:0,_RNvMs_NtNtNtNtNtCs2Zzx8WPYKXd_15otel_arrow_rust5proto13opentelemetry5arrow2v127arrow_traces_service_clientINtB4_24ArrowTracesServiceClientpE3newBe_
FNDA:0,_RNvMs_NtNtNtNtNtCs2Zzx8WPYKXd_15otel_arrow_rust5proto13opentelemetry5arrow2v128arrow_metrics_service_clientINtB4_25ArrowMetricsServiceClientpE11with_originBe_
FNDA:0,_RNvMs_NtNtNtNtNtCs2Zzx8WPYKXd_15otel_arrow_rust5proto13opentelemetry5arrow2v128arrow_metrics_service_clientINtB4_25ArrowMetricsServiceClientpE15send_compressedBe_
FNDA:0,_RNvMs_NtNtNtNtNtCs2Zzx8WPYKXd_15otel_arrow_rust5proto13opentelemetry5arrow2v128arrow_metrics_service_clientINtB4_25ArrowMetricsServiceClientpE17accept_compressedBe_
FNDA:0,_RNvMs_NtNtNtNtNtCs2Zzx8WPYKXd_15otel_arrow_rust5proto13opentelemetry5arrow2v128arrow_metrics_service_clientINtB4_25ArrowMetricsServiceClientpE25max_decoding_message_sizeBe_
FNDA:0,_RNvMs_NtNtNtNtNtCs2Zzx8WPYKXd_15otel_arrow_rust5proto13opentelemetry5arrow2v128arrow_metrics_service_clientINtB4_25ArrowMetricsServiceClientpE25max_encoding_message_sizeBe_
FNDA:0,_RNvMs_NtNtNtNtNtCs2Zzx8WPYKXd_15otel_arrow_rust5proto13opentelemetry5arrow2v128arrow_metrics_service_clientINtB4_25ArrowMetricsServiceClientpE3newBe_
FNDA:0,_RNvMsc_NtNtNtNtCs2Zzx8WPYKXd_15otel_arrow_rust5proto13opentelemetry5arrow2v1NtB5_12ArrowPayload4type
FNDA:0,_RNvMsc_NtNtNtNtCs2Zzx8WPYKXd_15otel_arrow_rust5proto13opentelemetry5arrow2v1NtB5_12ArrowPayload8set_type
FNDA:0,_RNvMsj_NtNtNtNtCs2Zzx8WPYKXd_15otel_arrow_rust5proto13opentelemetry5arrow2v1NtB5_11BatchStatus11status_code
FNDA:0,_RNvMsj_NtNtNtNtCs2Zzx8WPYKXd_15otel_arrow_rust5proto13opentelemetry5arrow2v1NtB5_11BatchStatus15set_status_code
FNDA:0,_RNvXININtNtNtNtNtCs2Zzx8WPYKXd_15otel_arrow_rust5proto13opentelemetry5arrow2v127arrow_traces_service_servers0_0pEINtB5_24ArrowTracesServiceServerpENtNtCs8sCtDi7t2F4_4core5clone5Clone5cloneBf_
FNDA:0,_RNvXININtNtNtNtNtCs2Zzx8WPYKXd_15otel_arrow_rust5proto13opentelemetry5arrow2v127arrow_traces_service_servers_0ppEINtB5_24ArrowTracesServiceServerpEINtCsl3eF1jQi4se_13tower_service7ServiceINtNtCsfWkY8aoTePL_4http7request7RequestpEE10poll_readyBf_
FNDA:0,_RNvXININtNtNtNtNtCs2Zzx8WPYKXd_15otel_arrow_rust5proto13opentelemetry5arrow2v127arrow_traces_service_servers_0ppEINtB5_24ArrowTracesServiceServerpEINtCsl3eF1jQi4se_13tower_service7ServiceINtNtCsfWkY8aoTePL_4http7request7RequestpEE4callBf_
FNDA:0,_RNvXININvXs_NtNtNtNtNtCs2Zzx8WPYKXd_15otel_arrow_rust5proto13opentelemetry5arrow2v127arrow_traces_service_serverINtBa_24ArrowTracesServiceServerpEINtCsl3eF1jQi4se_13tower_service7ServiceINtNtCsfWkY8aoTePL_4http7request7RequestpEE4call0pEINtB5_14ArrowTracesSvcpEINtNtNtCs87Lp0jQnWEh_5tonic6server7service16StreamingServiceNtBc_17BatchArrowRecordsE4callBk_
FNDA:0,_RNvXs3_NtNtNtNtCs2Zzx8WPYKXd_15otel_arrow_rust5proto13opentelemetry5arrow2v1NtB5_17BatchArrowRecordsNtNtCs9ugllKyEvyV_5prost7message7Message5clear
FNDA:0,_RNvXs9_NtNtNtNtCs2Zzx8WPYKXd_15otel_arrow_rust5proto13opentelemetry5arrow2v1NtB5_12ArrowPayloadNtNtCs9ugllKyEvyV_5prost7message7Message5clear
FNDA:0,_RNvXsI_NtNtNtNtCs2Zzx8WPYKXd_15otel_arrow_rust5proto13opentelemetry5arrow2v1lINtNtCs8sCtDi7t2F4_4core7convert4FromNtB5_10StatusCodeE4from
FNDA:0,_RNvXsg_NtNtNtNtCs2Zzx8WPYKXd_15otel_arrow_rust5proto13opentelemetry5arrow2v1NtB5_11BatchStatusNtNtCs9ugllKyEvyV_5prost7message7Message5clear
FNDA:0,_RNvXsh_NtNtNtNtCs2Zzx8WPYKXd_15otel_arrow_rust5proto13opentelemetry5arrow2v1NtB5_11BatchStatusNtNtCs8sCtDi7t2F4_4core7default7Default7default
FNDA:0,_RNCINvXs3_NtNtNtNtCs2Zzx8WPYKXd_15otel_arrow_rust5proto13opentelemetry5arrow2v1NtB8_17BatchArrowRecordsNtNtCs9ugllKyEvyV_5prost7message7Message11merge_fieldQQNtNtNtCs87Lp0jQnWEh_5tonic5codec6buffer9DecodeBufE0Bg_
FNDA:0,_RNCINvXs3_NtNtNtNtCs2Zzx8WPYKXd_15otel_arrow_rust5proto13opentelemetry5arrow2v1NtB8_17BatchArrowRecordsNtNtCs9ugllKyEvyV_5prost7message7Message11merge_fieldQQNtNtNtCs87Lp0jQnWEh_5tonic5codec6buffer9DecodeBufEs0_0Bg_
FNDA:0,_RNCINvXs3_NtNtNtNtCs2Zzx8WPYKXd_15otel_arrow_rust5proto13opentelemetry5arrow2v1NtB8_17BatchArrowRecordsNtNtCs9ugllKyEvyV_5prost7message7Message11merge_fieldQQNtNtNtCs87Lp0jQnWEh_5tonic5codec6buffer9DecodeBufEs_0Bg_
FNDA:0,_RNCINvXs9_NtNtNtNtCs2Zzx8WPYKXd_15otel_arrow_rust5proto13opentelemetry5arrow2v1NtB8_12ArrowPayloadNtNtCs9ugllKyEvyV_5prost7message7Message11merge_fieldQQNtNtNtCs87Lp0jQnWEh_5tonic5codec6buffer9DecodeBufE0Bg_
FNDA:0,_RNCINvXs9_NtNtNtNtCs2Zzx8WPYKXd_15otel_arrow_rust5proto13opentelemetry5arrow2v1NtB8_12ArrowPayloadNtNtCs9ugllKyEvyV_5prost7message7Message11merge_fieldQQNtNtNtCs87Lp0jQnWEh_5tonic5codec6buffer9DecodeBufEs0_0Bg_
FNDA:0,_RNCINvXs9_NtNtNtNtCs2Zzx8WPYKXd_15otel_arrow_rust5proto13opentelemetry5arrow2v1NtB8_12ArrowPayloadNtNtCs9ugllKyEvyV_5prost7message7Message11merge_fieldQQNtNtNtCs87Lp0jQnWEh_5tonic5codec6buffer9DecodeBufEs_0Bg_
FNDA:16,_RNCNvXNvXs_NtNtNtNtNtCs2Zzx8WPYKXd_15otel_arrow_rust5proto13opentelemetry5arrow2v125arrow_logs_service_serverINtB9_22ArrowLogsServiceServerpEINtCsl3eF1jQi4se_13tower_service7ServiceINtNtCsfWkY8aoTePL_4http7request7RequestpEE4callINtB4_12ArrowLogsSvcNtNtNtBj_10validation4otap15OTAPLogsAdapterEINtNtNtCs87Lp0jQnWEh_5tonic6server7service16StreamingServiceNtBb_17BatchArrowRecordsE4call0Bj_
FNDA:16,_RNCNvXs_NtNtNtNtNtCs2Zzx8WPYKXd_15otel_arrow_rust5proto13opentelemetry5arrow2v125arrow_logs_service_serverINtB6_22ArrowLogsServiceServerNtNtNtBg_10validation4otap15OTAPLogsAdapterEINtCsl3eF1jQi4se_13tower_service7ServiceINtNtCsfWkY8aoTePL_4http7request7RequestNtNtCs87Lp0jQnWEh_5tonic4body4BodyEE4call0Bg_
FNDA:0,_RNCNvXs_NtNtNtNtNtCs2Zzx8WPYKXd_15otel_arrow_rust5proto13opentelemetry5arrow2v125arrow_logs_service_serverINtB6_22ArrowLogsServiceServerNtNtNtBg_10validation4otap15OTAPLogsAdapterEINtCsl3eF1jQi4se_13tower_service7ServiceINtNtCsfWkY8aoTePL_4http7request7RequestNtNtCs87Lp0jQnWEh_5tonic4body4BodyEE4calls_0Bg_
FNDA:2,_RNvMNtNtNtNtNtCs2Zzx8WPYKXd_15otel_arrow_rust5proto13opentelemetry5arrow2v125arrow_logs_service_serverINtB2_22ArrowLogsServiceServerNtNtNtBc_10validation4otap15OTAPLogsAdapterE3newBc_
FNDA:2,_RNvMNtNtNtNtNtCs2Zzx8WPYKXd_15otel_arrow_rust5proto13opentelemetry5arrow2v125arrow_logs_service_serverINtB2_22ArrowLogsServiceServerNtNtNtBc_10validation4otap15OTAPLogsAdapterE8from_arcBc_
FNDA:16,_RNvXNvXs_NtNtNtNtNtCs2Zzx8WPYKXd_15otel_arrow_rust5proto13opentelemetry5arrow2v125arrow_logs_service_serverINtB7_22ArrowLogsServiceServerpEINtCsl3eF1jQi4se_13tower_service7ServiceINtNtCsfWkY8aoTePL_4http7request7RequestpEE4callINtB2_12ArrowLogsSvcNtNtNtBh_10validation4otap15OTAPLogsAdapterEINtNtNtCs87Lp0jQnWEh_5tonic6server7service16StreamingServiceNtB9_17BatchArrowRecordsE4callBh_
FNDA:16,_RNvXs0_NtNtNtNtNtCs2Zzx8WPYKXd_15otel_arrow_rust5proto13opentelemetry5arrow2v125arrow_logs_service_serverINtB5_22ArrowLogsServiceServerNtNtNtBf_10validation4otap15OTAPLogsAdapterENtNtCs8sCtDi7t2F4_4core5clone5Clone5cloneBf_
FNDA:16,_RNvXs_NtNtNtNtNtCs2Zzx8WPYKXd_15otel_arrow_rust5proto13opentelemetry5arrow2v125arrow_logs_service_serverINtB4_22ArrowLogsServiceServerNtNtNtBe_10validation4otap15OTAPLogsAdapterEINtCsl3eF1jQi4se_13tower_service7ServiceINtNtCsfWkY8aoTePL_4http7request7RequestNtNtCs87Lp0jQnWEh_5tonic4body4BodyEE10poll_readyBe_
FNDA:16,_RNvXs_NtNtNtNtNtCs2Zzx8WPYKXd_15otel_arrow_rust5proto13opentelemetry5arrow2v125arrow_logs_service_serverINtB4_22ArrowLogsServiceServerNtNtNtBe_10validation4otap15OTAPLogsAdapterEINtCsl3eF1jQi4se_13tower_service7ServiceINtNtCsfWkY8aoTePL_4http7request7RequestNtNtCs87Lp0jQnWEh_5tonic4body4BodyEE4callBe_
FNDA:8,_RNCNvXNvXs_NtNtNtNtNtCs2Zzx8WPYKXd_15otel_arrow_rust5proto13opentelemetry5arrow2v128arrow_metrics_service_serverINtB9_25ArrowMetricsServiceServerpEINtCsl3eF1jQi4se_13tower_service7ServiceINtNtCsfWkY8aoTePL_4http7request7RequestpEE4callINtB4_15ArrowMetricsSvcNtNtNtBj_10validation4otap18OTAPMetricsAdapterEINtNtNtCs87Lp0jQnWEh_5tonic6server7service16StreamingServiceNtBb_17BatchArrowRecordsE4call0Bj_
FNDA:8,_RNCNvXs_NtNtNtNtNtCs2Zzx8WPYKXd_15otel_arrow_rust5proto13opentelemetry5arrow2v128arrow_metrics_service_serverINtB6_25ArrowMetricsServiceServerNtNtNtBg_10validation4otap18OTAPMetricsAdapterEINtCsl3eF1jQi4se_13tower_service7ServiceINtNtCsfWkY8aoTePL_4http7request7RequestNtNtCs87Lp0jQnWEh_5tonic4body4BodyEE4call0Bg_
FNDA:0,_RNCNvXs_NtNtNtNtNtCs2Zzx8WPYKXd_15otel_arrow_rust5proto13opentelemetry5arrow2v128arrow_metrics_service_serverINtB6_25ArrowMetricsServiceServerNtNtNtBg_10validation4otap18OTAPMetricsAdapterEINtCsl3eF1jQi4se_13tower_service7ServiceINtNtCsfWkY8aoTePL_4http7request7RequestNtNtCs87Lp0jQnWEh_5tonic4body4BodyEE4calls_0Bg_
FNDA:1,_RNvMNtNtNtNtNtCs2Zzx8WPYKXd_15otel_arrow_rust5proto13opentelemetry5arrow2v128arrow_metrics_service_serverINtB2_25ArrowMetricsServiceServerNtNtNtBc_10validation4otap18OTAPMetricsAdapterE3newBc_
FNDA:1,_RNvMNtNtNtNtNtCs2Zzx8WPYKXd_15otel_arrow_rust5proto13opentelemetry5arrow2v128arrow_metrics_service_serverINtB2_25ArrowMetricsServiceServerNtNtNtBc_10validation4otap18OTAPMetricsAdapterE8from_arcBc_
FNDA:8,_RNvXNvXs_NtNtNtNtNtCs2Zzx8WPYKXd_15otel_arrow_rust5proto13opentelemetry5arrow2v128arrow_metrics_service_serverINtB7_25ArrowMetricsServiceServerpEINtCsl3eF1jQi4se_13tower_service7ServiceINtNtCsfWkY8aoTePL_4http7request7RequestpEE4callINtB2_15ArrowMetricsSvcNtNtNtBh_10validation4otap18OTAPMetricsAdapterEINtNtNtCs87Lp0jQnWEh_5tonic6server7service16StreamingServiceNtB9_17BatchArrowRecordsE4callBh_
FNDA:8,_RNvXs0_NtNtNtNtNtCs2Zzx8WPYKXd_15otel_arrow_rust5proto13opentelemetry5arrow2v128arrow_metrics_service_serverINtB5_25ArrowMetricsServiceServerNtNtNtBf_10validation4otap18OTAPMetricsAdapterENtNtCs8sCtDi7t2F4_4core5clone5Clone5cloneBf_
FNDA:8,_RNvXs_NtNtNtNtNtCs2Zzx8WPYKXd_15otel_arrow_rust5proto13opentelemetry5arrow2v128arrow_metrics_service_serverINtB4_25ArrowMetricsServiceServerNtNtNtBe_10validation4otap18OTAPMetricsAdapterEINtCsl3eF1jQi4se_13tower_service7ServiceINtNtCsfWkY8aoTePL_4http7request7RequestNtNtCs87Lp0jQnWEh_5tonic4body4BodyEE10poll_readyBe_
FNDA:8,_RNvXs_NtNtNtNtNtCs2Zzx8WPYKXd_15otel_arrow_rust5proto13opentelemetry5arrow2v128arrow_metrics_service_serverINtB4_25ArrowMetricsServiceServerNtNtNtBe_10validation4otap18OTAPMetricsAdapterEINtCsl3eF1jQi4se_13tower_service7ServiceINtNtCsfWkY8aoTePL_4http7request7RequestNtNtCs87Lp0jQnWEh_5tonic4body4BodyEE4callBe_
FNDA:3,_RNvXs4_NtNtNtNtCs2Zzx8WPYKXd_15otel_arrow_rust5proto13opentelemetry5arrow2v1NtB5_17BatchArrowRecordsNtNtCs8sCtDi7t2F4_4core7default7Default7default
FNDA:6,_RNvXsH_NtNtNtNtCs2Zzx8WPYKXd_15otel_arrow_rust5proto13opentelemetry5arrow2v1NtB5_10StatusCodeNtNtCs8sCtDi7t2F4_4core7default7Default7default
FNDA:7,_RNvXsa_NtNtNtNtCs2Zzx8WPYKXd_15otel_arrow_rust5proto13opentelemetry5arrow2v1NtB5_12ArrowPayloadNtNtCs8sCtDi7t2F4_4core7default7Default7default
FNDA:7,_RNvXsu_NtNtNtNtCs2Zzx8WPYKXd_15otel_arrow_rust5proto13opentelemetry5arrow2v1NtB5_16ArrowPayloadTypeNtNtCs8sCtDi7t2F4_4core7default7Default7default
FNDA:0,_RNvXsv_NtNtNtNtCs2Zzx8WPYKXd_15otel_arrow_rust5proto13opentelemetry5arrow2v1lINtNtCs8sCtDi7t2F4_4core7convert4FromNtB5_16ArrowPayloadTypeE4from
FNF:87
FNH:20
DA:2,3
DA:11,7
DA:20,0
DA:29,7
DA:65,0
DA:66,0
DA:67,0
DA:68,0
DA:69,0
DA:70,0
DA:71,0
DA:72,0
DA:73,0
DA:74,0
DA:75,0
DA:76,0
DA:77,0
DA:78,0
DA:79,0
DA:80,0
DA:81,0
DA:82,0
DA:83,0
DA:84,0
DA:85,0
DA:86,0
DA:87,0
DA:88,0
DA:89,0
DA:90,0
DA:91,0
DA:92,0
DA:93,0
DA:95,0
DA:97,0
DA:98,0
DA:99,0
DA:100,0
DA:101,0
DA:102,0
DA:103,0
DA:104,0
DA:105,0
DA:106,0
DA:107,0
DA:108,0
DA:109,0
DA:110,0
DA:111,0
DA:112,0
DA:113,0
DA:114,0
DA:115,0
DA:116,0
DA:117,0
DA:118,0
DA:119,0
DA:120,0
DA:121,0
DA:122,0
DA:123,0
DA:124,0
DA:125,0
DA:126,0
DA:128,0
DA:130,6
DA:149,0
DA:150,0
DA:151,0
DA:152,0
DA:153,0
DA:154,0
DA:155,0
DA:156,0
DA:157,0
DA:158,0
DA:159,0
DA:160,0
DA:162,0
DA:164,0
DA:165,0
DA:166,0
DA:167,0
DA:168,0
DA:169,0
DA:170,0
DA:171,0
DA:172,0
DA:173,0
DA:174,0
DA:175,0
DA:176,0
DA:178,0
DA:199,0
DA:200,0
DA:201,0
DA:202,0
DA:203,0
DA:204,0
DA:205,0
DA:206,0
DA:215,0
DA:216,0
DA:217,0
DA:218,0
DA:219,0
DA:220,0
DA:221,0
DA:222,0
DA:223,0
DA:224,0
DA:225,0
DA:226,0
DA:227,0
DA:228,0
DA:229,0
DA:230,0
DA:231,0
DA:232,0
DA:233,0
DA:234,0
DA:235,0
DA:236,0
DA:237,0
DA:238,0
DA:239,0
DA:240,0
DA:241,0
DA:247,0
DA:248,0
DA:249,0
DA:250,0
DA:253,0
DA:254,0
DA:255,0
DA:256,0
DA:261,0
DA:262,0
DA:263,0
DA:264,0
DA:269,0
DA:270,0
DA:271,0
DA:272,0
DA:273,0
DA:274,0
DA:275,0
DA:276,0
DA:277,0
DA:278,0
DA:279,0
DA:280,0
DA:281,0
DA:282,0
DA:283,0
DA:284,0
DA:285,0
DA:286,0
DA:287,0
DA:288,0
DA:289,0
DA:290,0
DA:291,0
DA:292,0
DA:293,0
DA:294,0
DA:295,0
DA:296,0
DA:297,0
DA:298,0
DA:299,0
DA:300,0
DA:301,0
DA:323,0
DA:324,0
DA:325,0
DA:326,0
DA:327,0
DA:328,0
DA:329,0
DA:330,0
DA:339,0
DA:340,0
DA:341,0
DA:342,0
DA:343,0
DA:344,0
DA:345,0
DA:346,0
DA:347,0
DA:348,0
DA:349,0
DA:350,0
DA:351,0
DA:352,0
DA:353,0
DA:354,0
DA:355,0
DA:356,0
DA:357,0
DA:358,0
DA:359,0
DA:360,0
DA:361,0
DA:362,0
DA:363,0
DA:364,0
DA:365,0
DA:371,0
DA:372,0
DA:373,0
DA:374,0
DA:377,0
DA:378,0
DA:379,0
DA:380,0
DA:385,0
DA:386,0
DA:387,0
DA:388,0
DA:393,0
DA:394,0
DA:395,0
DA:396,0
DA:397,0
DA:398,0
DA:399,0
DA:400,0
DA:401,0
DA:402,0
DA:403,0
DA:404,0
DA:405,0
DA:406,0
DA:407,0
DA:408,0
DA:409,0
DA:410,0
DA:411,0
DA:412,0
DA:413,0
DA:414,0
DA:415,0
DA:416,0
DA:417,0
DA:418,0
DA:419,0
DA:420,0
DA:421,0
DA:422,0
DA:423,0
DA:424,0
DA:425,0
DA:447,0
DA:448,0
DA:449,0
DA:450,0
DA:451,0
DA:452,0
DA:453,0
DA:454,0
DA:463,0
DA:464,0
DA:465,0
DA:466,0
DA:467,0
DA:468,0
DA:469,0
DA:470,0
DA:471,0
DA:472,0
DA:473,0
DA:474,0
DA:475,0
DA:476,0
DA:477,0
DA:478,0
DA:479,0
DA:480,0
DA:481,0
DA:482,0
DA:483,0
DA:484,0
DA:485,0
DA:486,0
DA:487,0
DA:488,0
DA:489,0
DA:495,0
DA:496,0
DA:497,0
DA:498,0
DA:501,0
DA:502,0
DA:503,0
DA:504,0
DA:509,0
DA:510,0
DA:511,0
DA:512,0
DA:517,0
DA:518,0
DA:519,0
DA:520,0
DA:521,0
DA:522,0
DA:523,0
DA:524,0
DA:525,0
DA:526,0
DA:527,0
DA:528,0
DA:529,0
DA:530,0
DA:531,0
DA:532,0
DA:533,0
DA:534,0
DA:535,0
DA:536,0
DA:537,0
DA:538,0
DA:539,0
DA:540,0
DA:541,0
DA:542,0
DA:543,0
DA:544,0
DA:545,0
DA:546,0
DA:547,0
DA:548,0
DA:549,0
DA:590,0
DA:591,0
DA:592,0
DA:593,0
DA:594,0
DA:595,0
DA:596,0
DA:597,0
DA:598,0
DA:599,0
DA:600,0
DA:601,0
DA:602,0
DA:603,0
DA:604,0
DA:605,0
DA:606,0
DA:607,0
DA:608,0
DA:609,0
DA:610,0
DA:613,0
DA:614,0
DA:615,0
DA:616,0
DA:619,0
DA:620,0
DA:621,0
DA:622,0
DA:627,0
DA:628,0
DA:629,0
DA:630,0
DA:635,0
DA:636,0
DA:637,0
DA:638,0
DA:649,0
DA:650,0
DA:651,0
DA:652,0
DA:653,0
DA:654,0
DA:655,0
DA:656,0
DA:657,0
DA:659,0
DA:660,0
DA:670,0
DA:671,0
DA:672,0
DA:673,0
DA:674,0
DA:675,0
DA:676,0
DA:677,0
DA:678,0
DA:679,0
DA:680,0
DA:681,0
DA:682,0
DA:684,0
DA:685,0
DA:686,0
DA:687,0
DA:688,0
DA:689,0
DA:690,0
DA:691,0
DA:692,0
DA:693,0
DA:694,0
DA:695,0
DA:696,0
DA:697,0
DA:698,0
DA:699,0
DA:700,0
DA:701,0
DA:702,0
DA:703,0
DA:704,0
DA:707,0
DA:708,0
DA:709,0
DA:710,0
DA:711,0
DA:712,0
DA:713,0
DA:714,0
DA:715,0
DA:716,0
DA:717,0
DA:718,0
DA:719,0
DA:720,0
DA:721,0
DA:722,0
DA:723,0
DA:726,0
DA:729,0
DA:730,0
DA:731,0
DA:732,0
DA:733,0
DA:734,0
DA:735,0
DA:736,0
DA:737,0
DA:738,0
DA:781,2
DA:782,2
DA:783,2
DA:784,2
DA:785,2
DA:786,2
DA:787,2
DA:788,2
DA:789,2
DA:790,2
DA:791,2
DA:792,2
DA:793,0
DA:794,0
DA:795,0
DA:796,0
DA:797,0
DA:798,0
DA:799,0
DA:800,0
DA:801,0
DA:804,0
DA:805,0
DA:806,0
DA:807,0
DA:810,0
DA:811,0
DA:812,0
DA:813,0
DA:818,0
DA:819,0
DA:820,0
DA:821,0
DA:826,0
DA:827,0
DA:828,0
DA:829,0
DA:840,16
DA:841,16
DA:842,16
DA:843,16
DA:844,16
DA:845,16
DA:846,16
DA:847,16
DA:848,16
DA:850,16
DA:851,16
DA:861,16
DA:862,16
DA:863,16
DA:864,16
DA:865,16
DA:866,16
DA:867,16
DA:868,16
DA:869,16
DA:870,16
DA:871,16
DA:872,16
DA:874,16
DA:875,16
DA:876,16
DA:877,16
DA:878,16
DA:879,16
DA:880,16
DA:881,16
DA:882,16
DA:883,16
DA:884,16
DA:885,16
DA:886,16
DA:887,16
DA:888,16
DA:889,16
DA:890,16
DA:891,16
DA:892,16
DA:893,16
DA:894,16
DA:897,0
DA:898,0
DA:899,0
DA:900,0
DA:901,0
DA:902,0
DA:903,0
DA:904,0
DA:905,0
DA:906,0
DA:907,0
DA:908,0
DA:909,0
DA:910,0
DA:911,0
DA:912,0
DA:913,0
DA:916,16
DA:919,16
DA:920,16
DA:921,16
DA:922,16
DA:923,16
DA:924,16
DA:925,16
DA:926,16
DA:927,16
DA:928,16
DA:974,1
DA:975,1
DA:976,1
DA:977,1
DA:978,1
DA:979,1
DA:980,1
DA:981,1
DA:982,1
DA:983,1
DA:984,1
DA:985,1
DA:986,0
DA:987,0
DA:988,0
DA:989,0
DA:990,0
DA:991,0
DA:992,0
DA:993,0
DA:994,0
DA:997,0
DA:998,0
DA:999,0
DA:1000,0
DA:1003,0
DA:1004,0
DA:1005,0
DA:1006,0
DA:1011,0
DA:1012,0
DA:1013,0
DA:1014,0
DA:1019,0
DA:1020,0
DA:1021,0
DA:1022,0
DA:1033,8
DA:1034,8
DA:1035,8
DA:1036,8
DA:1037,8
DA:1038,8
DA:1039,8
DA:1040,8
DA:1041,8
DA:1043,8
DA:1044,8
DA:1054,8
DA:1055,8
DA:1056,8
DA:1057,8
DA:1058,8
DA:1059,8
DA:1060,8
DA:1061,8
DA:1062,8
DA:1063,8
DA:1064,8
DA:1065,8
DA:1066,8
DA:1068,8
DA:1069,8
DA:1070,8
DA:1071,8
DA:1072,8
DA:1073,8
DA:1074,8
DA:1075,8
DA:1076,8
DA:1077,8
DA:1078,8
DA:1079,8
DA:1080,8
DA:1081,8
DA:1082,8
DA:1083,8
DA:1084,8
DA:1085,8
DA:1086,8
DA:1087,8
DA:1088,8
DA:1091,0
DA:1092,0
DA:1093,0
DA:1094,0
DA:1095,0
DA:1096,0
DA:1097,0
DA:1098,0
DA:1099,0
DA:1100,0
DA:1101,0
DA:1102,0
DA:1103,0
DA:1104,0
DA:1105,0
DA:1106,0
DA:1107,0
DA:1110,8
DA:1113,8
DA:1114,8
DA:1115,8
DA:1116,8
DA:1117,8
DA:1118,8
DA:1119,8
DA:1120,8
DA:1121,8
DA:1122,8
BRF:0
BRH:0
LF:686
LH:143
end_of_record
SF:/Users/d.dahl/code/otel-arrow/rust/otel-arrow-rust/src/proto/opentelemetry.proto.logs.v1.rs
FN:2,_RINvMs0_NtNtNtNtCs2Zzx8WPYKXd_15otel_arrow_rust5proto13opentelemetry4logs2v1NtB6_8LogsData3newpEBe_
FN:9,_RINvMs8_NtNtNtNtCs2Zzx8WPYKXd_15otel_arrow_rust5proto13opentelemetry4logs2v1NtB6_19ResourceLogsBuilder10schema_urlpEBe_
FN:9,_RINvMs8_NtNtNtNtCs2Zzx8WPYKXd_15otel_arrow_rust5proto13opentelemetry4logs2v1NtB6_19ResourceLogsBuilder8resourcepEBe_
FN:20,_RINvMsh_NtNtNtNtCs2Zzx8WPYKXd_15otel_arrow_rust5proto13opentelemetry4logs2v1NtB6_16ScopeLogsBuilder5scopepEBe_
FN:31,_RINvMsq_NtNtNtNtCs2Zzx8WPYKXd_15otel_arrow_rust5proto13opentelemetry4logs2v1NtB6_16LogRecordBuilder10event_namepEBe_
FN:31,_RINvMsq_NtNtNtNtCs2Zzx8WPYKXd_15otel_arrow_rust5proto13opentelemetry4logs2v1NtB6_16LogRecordBuilder14time_unix_nanopEBe_
FN:31,_RINvMsq_NtNtNtNtCs2Zzx8WPYKXd_15otel_arrow_rust5proto13opentelemetry4logs2v1NtB6_16LogRecordBuilder15severity_numberpEBe_
FN:31,_RINvMsq_NtNtNtNtCs2Zzx8WPYKXd_15otel_arrow_rust5proto13opentelemetry4logs2v1NtB6_16LogRecordBuilder23observed_time_unix_nanopEBe_
FN:31,_RINvMsq_NtNtNtNtCs2Zzx8WPYKXd_15otel_arrow_rust5proto13opentelemetry4logs2v1NtB6_16LogRecordBuilder24dropped_attributes_countpEBe_
FN:2,_RNCINvXs4_NtNtNtNtCs2Zzx8WPYKXd_15otel_arrow_rust5proto13opentelemetry4logs2v1NtB8_8LogsDataNtNtCs9ugllKyEvyV_5prost7message7Message11merge_fieldpE0Bg_
FN:92,_RNvMNtNtNtNtCs2Zzx8WPYKXd_15otel_arrow_rust5proto13opentelemetry4logs2v1NtB2_14SeverityNumber11as_str_name
FN:122,_RNvMNtNtNtNtCs2Zzx8WPYKXd_15otel_arrow_rust5proto13opentelemetry4logs2v1NtB2_14SeverityNumber13from_str_name
FN:164,_RNvMs_NtNtNtNtCs2Zzx8WPYKXd_15otel_arrow_rust5proto13opentelemetry4logs2v1NtB4_14LogRecordFlags11as_str_name
FN:171,_RNvMs_NtNtNtNtCs2Zzx8WPYKXd_15otel_arrow_rust5proto13opentelemetry4logs2v1NtB4_14LogRecordFlags13from_str_name
FN:31,_RNvMsy_NtNtNtNtCs2Zzx8WPYKXd_15otel_arrow_rust5proto13opentelemetry4logs2v1NtB5_9LogRecord15severity_number
FN:31,_RNvMsy_NtNtNtNtCs2Zzx8WPYKXd_15otel_arrow_rust5proto13opentelemetry4logs2v1NtB5_9LogRecord19set_severity_number
FN:2,_RNvXs4_NtNtNtNtCs2Zzx8WPYKXd_15otel_arrow_rust5proto13opentelemetry4logs2v1NtB5_8LogsDataNtNtCs9ugllKyEvyV_5prost7message7Message11encoded_lenBd_
FN:2,_RNvXs4_NtNtNtNtCs2Zzx8WPYKXd_15otel_arrow_rust5proto13opentelemetry4logs2v1NtB5_8LogsDataNtNtCs9ugllKyEvyV_5prost7message7Message5clear
FN:2,_RNvXs5_NtNtNtNtCs2Zzx8WPYKXd_15otel_arrow_rust5proto13opentelemetry4logs2v1NtB5_8LogsDataNtNtCs8sCtDi7t2F4_4core7default7Default7default
FN:2,_RNvXs6_NtNtNtNtCs2Zzx8WPYKXd_15otel_arrow_rust5proto13opentelemetry4logs2v1NtB5_8LogsDataNtNtCs8sCtDi7t2F4_4core3fmt5Debug3fmt
FN:9,_RNvXs9_NtNtNtNtCs2Zzx8WPYKXd_15otel_arrow_rust5proto13opentelemetry4logs2v1NtB5_12ResourceLogsINtNtCs8sCtDi7t2F4_4core7convert4FromNtB5_19ResourceLogsBuilderE4from
FN:153,_RNvXsW_NtNtNtNtCs2Zzx8WPYKXd_15otel_arrow_rust5proto13opentelemetry4logs2v1NtB5_14LogRecordFlagsNtNtCs8sCtDi7t2F4_4core7default7Default7default
FN:153,_RNvXsX_NtNtNtNtCs2Zzx8WPYKXd_15otel_arrow_rust5proto13opentelemetry4logs2v1lINtNtCs8sCtDi7t2F4_4core7convert4FromNtB5_14LogRecordFlagsE4from
FN:9,_RNvXsd_NtNtNtNtCs2Zzx8WPYKXd_15otel_arrow_rust5proto13opentelemetry4logs2v1NtB5_12ResourceLogsNtNtCs9ugllKyEvyV_5prost7message7Message5clear
FN:20,_RNvXsi_NtNtNtNtCs2Zzx8WPYKXd_15otel_arrow_rust5proto13opentelemetry4logs2v1NtB5_9ScopeLogsINtNtCs8sCtDi7t2F4_4core7convert4FromNtB5_16ScopeLogsBuilderE4from
FN:20,_RNvXsm_NtNtNtNtCs2Zzx8WPYKXd_15otel_arrow_rust5proto13opentelemetry4logs2v1NtB5_9ScopeLogsNtNtCs9ugllKyEvyV_5prost7message7Message5clear
FN:31,_RNvXsr_NtNtNtNtCs2Zzx8WPYKXd_15otel_arrow_rust5proto13opentelemetry4logs2v1NtB5_9LogRecordINtNtCs8sCtDi7t2F4_4core7convert4FromNtB5_16LogRecordBuilderE4from
FN:31,_RNvXsv_NtNtNtNtCs2Zzx8WPYKXd_15otel_arrow_rust5proto13opentelemetry4logs2v1NtB5_9LogRecordNtNtCs9ugllKyEvyV_5prost7message7Message5clear
FN:9,_RINvMs7_NtNtNtNtCs2Zzx8WPYKXd_15otel_arrow_rust5proto13opentelemetry4logs2v1NtB6_12ResourceLogs3newNtNtNtBa_8resource2v18ResourceEBe_
FN:9,_RINvMs7_NtNtNtNtCs2Zzx8WPYKXd_15otel_arrow_rust5proto13opentelemetry4logs2v1NtB6_12ResourceLogs5buildNtNtNtBa_8resource2v18ResourceEBe_
FN:9,_RINvMs8_NtNtNtNtCs2Zzx8WPYKXd_15otel_arrow_rust5proto13opentelemetry4logs2v1NtB6_19ResourceLogsBuilder10scope_logsINtNtCshFLakfGc1jx_5alloc3vec3VecNtB6_9ScopeLogsEEBe_
FN:20,_RINvMsg_NtNtNtNtCs2Zzx8WPYKXd_15otel_arrow_rust5proto13opentelemetry4logs2v1NtB6_9ScopeLogs3newNtNtNtBa_6common2v120InstrumentationScopeEBe_
FN:20,_RINvMsg_NtNtNtNtCs2Zzx8WPYKXd_15otel_arrow_rust5proto13opentelemetry4logs2v1NtB6_9ScopeLogs5buildNtNtNtBa_6common2v120InstrumentationScopeEBe_
FN:20,_RINvMsh_NtNtNtNtCs2Zzx8WPYKXd_15otel_arrow_rust5proto13opentelemetry4logs2v1NtB6_16ScopeLogsBuilder10schema_urlReEBe_
FN:20,_RINvMsh_NtNtNtNtCs2Zzx8WPYKXd_15otel_arrow_rust5proto13opentelemetry4logs2v1NtB6_16ScopeLogsBuilder11log_recordsINtNtCshFLakfGc1jx_5alloc3vec3VecNtB6_9LogRecordEEBe_
FN:31,_RINvMsp_NtNtNtNtCs2Zzx8WPYKXd_15otel_arrow_rust5proto13opentelemetry4logs2v1NtB6_9LogRecord3newyNtB6_14SeverityNumberReEBe_
FN:31,_RINvMsp_NtNtNtNtCs2Zzx8WPYKXd_15otel_arrow_rust5proto13opentelemetry4logs2v1NtB6_9LogRecord5buildyNtB6_14SeverityNumberReEBe_
FN:31,_RINvMsq_NtNtNtNtCs2Zzx8WPYKXd_15otel_arrow_rust5proto13opentelemetry4logs2v1NtB6_16LogRecordBuilder10attributesINtNtCshFLakfGc1jx_5alloc3vec3VecNtNtNtBa_6common2v18KeyValueEEBe_
FN:31,_RINvMsq_NtNtNtNtCs2Zzx8WPYKXd_15otel_arrow_rust5proto13opentelemetry4logs2v1NtB6_16LogRecordBuilder13severity_textReEBe_
FN:31,_RINvMsq_NtNtNtNtCs2Zzx8WPYKXd_15otel_arrow_rust5proto13opentelemetry4logs2v1NtB6_16LogRecordBuilder4bodyNtNtNtBa_6common2v18AnyValueEBe_
FN:31,_RINvMsq_NtNtNtNtCs2Zzx8WPYKXd_15otel_arrow_rust5proto13opentelemetry4logs2v1NtB6_16LogRecordBuilder5flagsNtB6_14LogRecordFlagsEBe_
FN:31,_RINvMsq_NtNtNtNtCs2Zzx8WPYKXd_15otel_arrow_rust5proto13opentelemetry4logs2v1NtB6_16LogRecordBuilder7span_idINtNtCshFLakfGc1jx_5alloc3vec3VechEEBe_
FN:31,_RINvMsq_NtNtNtNtCs2Zzx8WPYKXd_15otel_arrow_rust5proto13opentelemetry4logs2v1NtB6_16LogRecordBuilder8trace_idINtNtCshFLakfGc1jx_5alloc3vec3VechEEBe_
FN:9,_RINvNvXsf_NtNtNtNtCs2Zzx8WPYKXd_15otel_arrow_rust5proto13opentelemetry4logs2v1NtB8_12ResourceLogsNtNtCs8sCtDi7t2F4_4core3fmt5Debug3fmt13ScalarWrapperRNtNtCshFLakfGc1jx_5alloc6string6StringEBg_
FN:20,_RINvNvXso_NtNtNtNtCs2Zzx8WPYKXd_15otel_arrow_rust5proto13opentelemetry4logs2v1NtB8_9ScopeLogsNtNtCs8sCtDi7t2F4_4core3fmt5Debug3fmt13ScalarWrapperRNtNtCshFLakfGc1jx_5alloc6string6StringEBg_
FN:31,_RINvNvXsx_NtNtNtNtCs2Zzx8WPYKXd_15otel_arrow_rust5proto13opentelemetry4logs2v1NtB8_9LogRecordNtNtCs8sCtDi7t2F4_4core3fmt5Debug3fmt13ScalarWrapperRyEBg_
FN:31,_RINvNvXsx_NtNtNtNtCs2Zzx8WPYKXd_15otel_arrow_rust5proto13opentelemetry4logs2v1NtB8_9LogRecordNtNtCs8sCtDi7t2F4_4core3fmt5Debug3fmts0_13ScalarWrapperRNtNtCshFLakfGc1jx_5alloc6string6StringEBg_
FN:31,_RINvNvXsx_NtNtNtNtCs2Zzx8WPYKXd_15otel_arrow_rust5proto13opentelemetry4logs2v1NtB8_9LogRecordNtNtCs8sCtDi7t2F4_4core3fmt5Debug3fmts1_13ScalarWrapperRmEBg_
FN:31,_RINvNvXsx_NtNtNtNtCs2Zzx8WPYKXd_15otel_arrow_rust5proto13opentelemetry4logs2v1NtB8_9LogRecordNtNtCs8sCtDi7t2F4_4core3fmt5Debug3fmts2_13ScalarWrapperRmEBg_
FN:31,_RINvNvXsx_NtNtNtNtCs2Zzx8WPYKXd_15otel_arrow_rust5proto13opentelemetry4logs2v1NtB8_9LogRecordNtNtCs8sCtDi7t2F4_4core3fmt5Debug3fmts3_13ScalarWrapperRINtNtCshFLakfGc1jx_5alloc3vec3VechEEBg_
FN:31,_RINvNvXsx_NtNtNtNtCs2Zzx8WPYKXd_15otel_arrow_rust5proto13opentelemetry4logs2v1NtB8_9LogRecordNtNtCs8sCtDi7t2F4_4core3fmt5Debug3fmts4_13ScalarWrapperRINtNtCshFLakfGc1jx_5alloc3vec3VechEEBg_
FN:31,_RINvNvXsx_NtNtNtNtCs2Zzx8WPYKXd_15otel_arrow_rust5proto13opentelemetry4logs2v1NtB8_9LogRecordNtNtCs8sCtDi7t2F4_4core3fmt5Debug3fmts5_13ScalarWrapperRNtNtCshFLakfGc1jx_5alloc6string6StringEBg_
FN:31,_RINvNvXsx_NtNtNtNtCs2Zzx8WPYKXd_15otel_arrow_rust5proto13opentelemetry4logs2v1NtB8_9LogRecordNtNtCs8sCtDi7t2F4_4core3fmt5Debug3fmts_13ScalarWrapperRyEBg_
FN:9,_RNCINvXsd_NtNtNtNtCs2Zzx8WPYKXd_15otel_arrow_rust5proto13opentelemetry4logs2v1NtB8_12ResourceLogsNtNtCs9ugllKyEvyV_5prost7message7Message11merge_fieldQQNtNtNtCs87Lp0jQnWEh_5tonic5codec6buffer9DecodeBufE0Bg_
FN:9,_RNCINvXsd_NtNtNtNtCs2Zzx8WPYKXd_15otel_arrow_rust5proto13opentelemetry4logs2v1NtB8_12ResourceLogsNtNtCs9ugllKyEvyV_5prost7message7Message11merge_fieldQQNtNtNtCs87Lp0jQnWEh_5tonic5codec6buffer9DecodeBufEs0_0Bg_
FN:9,_RNCINvXsd_NtNtNtNtCs2Zzx8WPYKXd_15otel_arrow_rust5proto13opentelemetry4logs2v1NtB8_12ResourceLogsNtNtCs9ugllKyEvyV_5prost7message7Message11merge_fieldQQNtNtNtCs87Lp0jQnWEh_5tonic5codec6buffer9DecodeBufEs_0Bg_
FN:20,_RNCINvXsm_NtNtNtNtCs2Zzx8WPYKXd_15otel_arrow_rust5proto13opentelemetry4logs2v1NtB8_9ScopeLogsNtNtCs9ugllKyEvyV_5prost7message7Message11merge_fieldQQNtNtNtCs87Lp0jQnWEh_5tonic5codec6buffer9DecodeBufE0Bg_
FN:20,_RNCINvXsm_NtNtNtNtCs2Zzx8WPYKXd_15otel_arrow_rust5proto13opentelemetry4logs2v1NtB8_9ScopeLogsNtNtCs9ugllKyEvyV_5prost7message7Message11merge_fieldQQNtNtNtCs87Lp0jQnWEh_5tonic5codec6buffer9DecodeBufEs0_0Bg_
FN:20,_RNCINvXsm_NtNtNtNtCs2Zzx8WPYKXd_15otel_arrow_rust5proto13opentelemetry4logs2v1NtB8_9ScopeLogsNtNtCs9ugllKyEvyV_5prost7message7Message11merge_fieldQQNtNtNtCs87Lp0jQnWEh_5tonic5codec6buffer9DecodeBufEs_0Bg_
FN:31,_RNCINvXsv_NtNtNtNtCs2Zzx8WPYKXd_15otel_arrow_rust5proto13opentelemetry4logs2v1NtB8_9LogRecordNtNtCs9ugllKyEvyV_5prost7message7Message11merge_fieldQQNtNtNtCs87Lp0jQnWEh_5tonic5codec6buffer9DecodeBufE0Bg_
FN:31,_RNCINvXsv_NtNtNtNtCs2Zzx8WPYKXd_15otel_arrow_rust5proto13opentelemetry4logs2v1NtB8_9LogRecordNtNtCs9ugllKyEvyV_5prost7message7Message11merge_fieldQQNtNtNtCs87Lp0jQnWEh_5tonic5codec6buffer9DecodeBufEs0_0Bg_
FN:31,_RNCINvXsv_NtNtNtNtCs2Zzx8WPYKXd_15otel_arrow_rust5proto13opentelemetry4logs2v1NtB8_9LogRecordNtNtCs9ugllKyEvyV_5prost7message7Message11merge_fieldQQNtNtNtCs87Lp0jQnWEh_5tonic5codec6buffer9DecodeBufEs1_0Bg_
FN:31,_RNCINvXsv_NtNtNtNtCs2Zzx8WPYKXd_15otel_arrow_rust5proto13opentelemetry4logs2v1NtB8_9LogRecordNtNtCs9ugllKyEvyV_5prost7message7Message11merge_fieldQQNtNtNtCs87Lp0jQnWEh_5tonic5codec6buffer9DecodeBufEs2_0Bg_
FN:31,_RNCINvXsv_NtNtNtNtCs2Zzx8WPYKXd_15otel_arrow_rust5proto13opentelemetry4logs2v1NtB8_9LogRecordNtNtCs9ugllKyEvyV_5prost7message7Message11merge_fieldQQNtNtNtCs87Lp0jQnWEh_5tonic5codec6buffer9DecodeBufEs3_0Bg_
FN:31,_RNCINvXsv_NtNtNtNtCs2Zzx8WPYKXd_15otel_arrow_rust5proto13opentelemetry4logs2v1NtB8_9LogRecordNtNtCs9ugllKyEvyV_5prost7message7Message11merge_fieldQQNtNtNtCs87Lp0jQnWEh_5tonic5codec6buffer9DecodeBufEs4_0Bg_
FN:31,_RNCINvXsv_NtNtNtNtCs2Zzx8WPYKXd_15otel_arrow_rust5proto13opentelemetry4logs2v1NtB8_9LogRecordNtNtCs9ugllKyEvyV_5prost7message7Message11merge_fieldQQNtNtNtCs87Lp0jQnWEh_5tonic5codec6buffer9DecodeBufEs5_0Bg_
FN:31,_RNCINvXsv_NtNtNtNtCs2Zzx8WPYKXd_15otel_arrow_rust5proto13opentelemetry4logs2v1NtB8_9LogRecordNtNtCs9ugllKyEvyV_5prost7message7Message11merge_fieldQQNtNtNtCs87Lp0jQnWEh_5tonic5codec6buffer9DecodeBufEs6_0Bg_
FN:31,_RNCINvXsv_NtNtNtNtCs2Zzx8WPYKXd_15otel_arrow_rust5proto13opentelemetry4logs2v1NtB8_9LogRecordNtNtCs9ugllKyEvyV_5prost7message7Message11merge_fieldQQNtNtNtCs87Lp0jQnWEh_5tonic5codec6buffer9DecodeBufEs7_0Bg_
FN:31,_RNCINvXsv_NtNtNtNtCs2Zzx8WPYKXd_15otel_arrow_rust5proto13opentelemetry4logs2v1NtB8_9LogRecordNtNtCs9ugllKyEvyV_5prost7message7Message11merge_fieldQQNtNtNtCs87Lp0jQnWEh_5tonic5codec6buffer9DecodeBufEs8_0Bg_
FN:31,_RNCINvXsv_NtNtNtNtCs2Zzx8WPYKXd_15otel_arrow_rust5proto13opentelemetry4logs2v1NtB8_9LogRecordNtNtCs9ugllKyEvyV_5prost7message7Message11merge_fieldQQNtNtNtCs87Lp0jQnWEh_5tonic5codec6buffer9DecodeBufEs_0Bg_
FN:9,_RNCNvXsd_NtNtNtNtCs2Zzx8WPYKXd_15otel_arrow_rust5proto13opentelemetry4logs2v1NtB7_12ResourceLogsNtNtCs9ugllKyEvyV_5prost7message7Message11encoded_len0Bf_
FN:20,_RNCNvXsm_NtNtNtNtCs2Zzx8WPYKXd_15otel_arrow_rust5proto13opentelemetry4logs2v1NtB7_9ScopeLogsNtNtCs9ugllKyEvyV_5prost7message7Message11encoded_len0Bf_
FN:31,_RNCNvXsv_NtNtNtNtCs2Zzx8WPYKXd_15otel_arrow_rust5proto13opentelemetry4logs2v1NtB7_9LogRecordNtNtCs9ugllKyEvyV_5prost7message7Message11encoded_len0Bf_
FN:9,_RNvMs8_NtNtNtNtCs2Zzx8WPYKXd_15otel_arrow_rust5proto13opentelemetry4logs2v1NtB5_19ResourceLogsBuilder6finish
FN:20,_RNvMsh_NtNtNtNtCs2Zzx8WPYKXd_15otel_arrow_rust5proto13opentelemetry4logs2v1NtB5_16ScopeLogsBuilder6finish
FN:31,_RNvMsq_NtNtNtNtCs2Zzx8WPYKXd_15otel_arrow_rust5proto13opentelemetry4logs2v1NtB5_16LogRecordBuilder6finish
FN:58,_RNvXsJ_NtNtNtNtCs2Zzx8WPYKXd_15otel_arrow_rust5proto13opentelemetry4logs2v1NtB5_14SeverityNumberNtNtCs8sCtDi7t2F4_4core7default7Default7default
FN:58,_RNvXsK_NtNtNtNtCs2Zzx8WPYKXd_15otel_arrow_rust5proto13opentelemetry4logs2v1lINtNtCs8sCtDi7t2F4_4core7convert4FromNtB5_14SeverityNumberE4from
FN:9,_RNvXse_NtNtNtNtCs2Zzx8WPYKXd_15otel_arrow_rust5proto13opentelemetry4logs2v1NtB5_12ResourceLogsNtNtCs8sCtDi7t2F4_4core7default7Default7default
FN:20,_RNvXsn_NtNtNtNtCs2Zzx8WPYKXd_15otel_arrow_rust5proto13opentelemetry4logs2v1NtB5_9ScopeLogsNtNtCs8sCtDi7t2F4_4core7default7Default7default
FN:31,_RNvXsw_NtNtNtNtCs2Zzx8WPYKXd_15otel_arrow_rust5proto13opentelemetry4logs2v1NtB5_9LogRecordNtNtCs8sCtDi7t2F4_4core7default7Default7default
FNDA:0,_RINvMs0_NtNtNtNtCs2Zzx8WPYKXd_15otel_arrow_rust5proto13opentelemetry4logs2v1NtB6_8LogsData3newpEBe_
FNDA:0,_RINvMs8_NtNtNtNtCs2Zzx8WPYKXd_15otel_arrow_rust5proto13opentelemetry4logs2v1NtB6_19ResourceLogsBuilder10schema_urlpEBe_
FNDA:0,_RINvMs8_NtNtNtNtCs2Zzx8WPYKXd_15otel_arrow_rust5proto13opentelemetry4logs2v1NtB6_19ResourceLogsBuilder8resourcepEBe_
FNDA:0,_RINvMsh_NtNtNtNtCs2Zzx8WPYKXd_15otel_arrow_rust5proto13opentelemetry4logs2v1NtB6_16ScopeLogsBuilder5scopepEBe_
FNDA:0,_RINvMsq_NtNtNtNtCs2Zzx8WPYKXd_15otel_arrow_rust5proto13opentelemetry4logs2v1NtB6_16LogRecordBuilder10event_namepEBe_
FNDA:0,_RINvMsq_NtNtNtNtCs2Zzx8WPYKXd_15otel_arrow_rust5proto13opentelemetry4logs2v1NtB6_16LogRecordBuilder14time_unix_nanopEBe_
FNDA:0,_RINvMsq_NtNtNtNtCs2Zzx8WPYKXd_15otel_arrow_rust5proto13opentelemetry4logs2v1NtB6_16LogRecordBuilder15severity_numberpEBe_
FNDA:0,_RINvMsq_NtNtNtNtCs2Zzx8WPYKXd_15otel_arrow_rust5proto13opentelemetry4logs2v1NtB6_16LogRecordBuilder23observed_time_unix_nanopEBe_
FNDA:0,_RINvMsq_NtNtNtNtCs2Zzx8WPYKXd_15otel_arrow_rust5proto13opentelemetry4logs2v1NtB6_16LogRecordBuilder24dropped_attributes_countpEBe_
FNDA:0,_RNCINvXs4_NtNtNtNtCs2Zzx8WPYKXd_15otel_arrow_rust5proto13opentelemetry4logs2v1NtB8_8LogsDataNtNtCs9ugllKyEvyV_5prost7message7Message11merge_fieldpE0Bg_
FNDA:0,_RNvMNtNtNtNtCs2Zzx8WPYKXd_15otel_arrow_rust5proto13opentelemetry4logs2v1NtB2_14SeverityNumber11as_str_name
FNDA:0,_RNvMNtNtNtNtCs2Zzx8WPYKXd_15otel_arrow_rust5proto13opentelemetry4logs2v1NtB2_14SeverityNumber13from_str_name
FNDA:0,_RNvMs_NtNtNtNtCs2Zzx8WPYKXd_15otel_arrow_rust5proto13opentelemetry4logs2v1NtB4_14LogRecordFlags11as_str_name
FNDA:0,_RNvMs_NtNtNtNtCs2Zzx8WPYKXd_15otel_arrow_rust5proto13opentelemetry4logs2v1NtB4_14LogRecordFlags13from_str_name
FNDA:0,_RNvMsy_NtNtNtNtCs2Zzx8WPYKXd_15otel_arrow_rust5proto13opentelemetry4logs2v1NtB5_9LogRecord15severity_number
FNDA:0,_RNvMsy_NtNtNtNtCs2Zzx8WPYKXd_15otel_arrow_rust5proto13opentelemetry4logs2v1NtB5_9LogRecord19set_severity_number
FNDA:0,_RNvXs4_NtNtNtNtCs2Zzx8WPYKXd_15otel_arrow_rust5proto13opentelemetry4logs2v1NtB5_8LogsDataNtNtCs9ugllKyEvyV_5prost7message7Message11encoded_lenBd_
FNDA:0,_RNvXs4_NtNtNtNtCs2Zzx8WPYKXd_15otel_arrow_rust5proto13opentelemetry4logs2v1NtB5_8LogsDataNtNtCs9ugllKyEvyV_5prost7message7Message5clear
FNDA:0,_RNvXs5_NtNtNtNtCs2Zzx8WPYKXd_15otel_arrow_rust5proto13opentelemetry4logs2v1NtB5_8LogsDataNtNtCs8sCtDi7t2F4_4core7default7Default7default
FNDA:0,_RNvXs6_NtNtNtNtCs2Zzx8WPYKXd_15otel_arrow_rust5proto13opentelemetry4logs2v1NtB5_8LogsDataNtNtCs8sCtDi7t2F4_4core3fmt5Debug3fmt
FNDA:0,_RNvXs9_NtNtNtNtCs2Zzx8WPYKXd_15otel_arrow_rust5proto13opentelemetry4logs2v1NtB5_12ResourceLogsINtNtCs8sCtDi7t2F4_4core7convert4FromNtB5_19ResourceLogsBuilderE4from
FNDA:0,_RNvXsW_NtNtNtNtCs2Zzx8WPYKXd_15otel_arrow_rust5proto13opentelemetry4logs2v1NtB5_14LogRecordFlagsNtNtCs8sCtDi7t2F4_4core7default7Default7default
FNDA:0,_RNvXsX_NtNtNtNtCs2Zzx8WPYKXd_15otel_arrow_rust5proto13opentelemetry4logs2v1lINtNtCs8sCtDi7t2F4_4core7convert4FromNtB5_14LogRecordFlagsE4from
FNDA:0,_RNvXsd_NtNtNtNtCs2Zzx8WPYKXd_15otel_arrow_rust5proto13opentelemetry4logs2v1NtB5_12ResourceLogsNtNtCs9ugllKyEvyV_5prost7message7Message5clear
FNDA:0,_RNvXsi_NtNtNtNtCs2Zzx8WPYKXd_15otel_arrow_rust5proto13opentelemetry4logs2v1NtB5_9ScopeLogsINtNtCs8sCtDi7t2F4_4core7convert4FromNtB5_16ScopeLogsBuilderE4from
FNDA:0,_RNvXsm_NtNtNtNtCs2Zzx8WPYKXd_15otel_arrow_rust5proto13opentelemetry4logs2v1NtB5_9ScopeLogsNtNtCs9ugllKyEvyV_5prost7message7Message5clear
FNDA:0,_RNvXsr_NtNtNtNtCs2Zzx8WPYKXd_15otel_arrow_rust5proto13opentelemetry4logs2v1NtB5_9LogRecordINtNtCs8sCtDi7t2F4_4core7convert4FromNtB5_16LogRecordBuilderE4from
FNDA:0,_RNvXsv_NtNtNtNtCs2Zzx8WPYKXd_15otel_arrow_rust5proto13opentelemetry4logs2v1NtB5_9LogRecordNtNtCs9ugllKyEvyV_5prost7message7Message5clear
FNDA:4,_RINvMs7_NtNtNtNtCs2Zzx8WPYKXd_15otel_arrow_rust5proto13opentelemetry4logs2v1NtB6_12ResourceLogs3newNtNtNtBa_8resource2v18ResourceEBe_
FNDA:4,_RINvMs7_NtNtNtNtCs2Zzx8WPYKXd_15otel_arrow_rust5proto13opentelemetry4logs2v1NtB6_12ResourceLogs5buildNtNtNtBa_8resource2v18ResourceEBe_
FNDA:4,_RINvMs8_NtNtNtNtCs2Zzx8WPYKXd_15otel_arrow_rust5proto13opentelemetry4logs2v1NtB6_19ResourceLogsBuilder10scope_logsINtNtCshFLakfGc1jx_5alloc3vec3VecNtB6_9ScopeLogsEEBe_
FNDA:5,_RINvMsg_NtNtNtNtCs2Zzx8WPYKXd_15otel_arrow_rust5proto13opentelemetry4logs2v1NtB6_9ScopeLogs3newNtNtNtBa_6common2v120InstrumentationScopeEBe_
FNDA:5,_RINvMsg_NtNtNtNtCs2Zzx8WPYKXd_15otel_arrow_rust5proto13opentelemetry4logs2v1NtB6_9ScopeLogs5buildNtNtNtBa_6common2v120InstrumentationScopeEBe_
FNDA:1,_RINvMsh_NtNtNtNtCs2Zzx8WPYKXd_15otel_arrow_rust5proto13opentelemetry4logs2v1NtB6_16ScopeLogsBuilder10schema_urlReEBe_
FNDA:5,_RINvMsh_NtNtNtNtCs2Zzx8WPYKXd_15otel_arrow_rust5proto13opentelemetry4logs2v1NtB6_16ScopeLogsBuilder11log_recordsINtNtCshFLakfGc1jx_5alloc3vec3VecNtB6_9LogRecordEEBe_
FNDA:10,_RINvMsp_NtNtNtNtCs2Zzx8WPYKXd_15otel_arrow_rust5proto13opentelemetry4logs2v1NtB6_9LogRecord3newyNtB6_14SeverityNumberReEBe_
FNDA:7,_RINvMsp_NtNtNtNtCs2Zzx8WPYKXd_15otel_arrow_rust5proto13opentelemetry4logs2v1NtB6_9LogRecord5buildyNtB6_14SeverityNumberReEBe_
FNDA:5,_RINvMsq_NtNtNtNtCs2Zzx8WPYKXd_15otel_arrow_rust5proto13opentelemetry4logs2v1NtB6_16LogRecordBuilder10attributesINtNtCshFLakfGc1jx_5alloc3vec3VecNtNtNtBa_6common2v18KeyValueEEBe_
FNDA:5,_RINvMsq_NtNtNtNtCs2Zzx8WPYKXd_15otel_arrow_rust5proto13opentelemetry4logs2v1NtB6_16LogRecordBuilder13severity_textReEBe_
FNDA:6,_RINvMsq_NtNtNtNtCs2Zzx8WPYKXd_15otel_arrow_rust5proto13opentelemetry4logs2v1NtB6_16LogRecordBuilder4bodyNtNtNtBa_6common2v18AnyValueEBe_
FNDA:1,_RINvMsq_NtNtNtNtCs2Zzx8WPYKXd_15otel_arrow_rust5proto13opentelemetry4logs2v1NtB6_16LogRecordBuilder5flagsNtB6_14LogRecordFlagsEBe_
FNDA:4,_RINvMsq_NtNtNtNtCs2Zzx8WPYKXd_15otel_arrow_rust5proto13opentelemetry4logs2v1NtB6_16LogRecordBuilder7span_idINtNtCshFLakfGc1jx_5alloc3vec3VechEEBe_
FNDA:4,_RINvMsq_NtNtNtNtCs2Zzx8WPYKXd_15otel_arrow_rust5proto13opentelemetry4logs2v1NtB6_16LogRecordBuilder8trace_idINtNtCshFLakfGc1jx_5alloc3vec3VechEEBe_
FNDA:0,_RINvNvXsf_NtNtNtNtCs2Zzx8WPYKXd_15otel_arrow_rust5proto13opentelemetry4logs2v1NtB8_12ResourceLogsNtNtCs8sCtDi7t2F4_4core3fmt5Debug3fmt13ScalarWrapperRNtNtCshFLakfGc1jx_5alloc6string6StringEBg_
FNDA:0,_RINvNvXso_NtNtNtNtCs2Zzx8WPYKXd_15otel_arrow_rust5proto13opentelemetry4logs2v1NtB8_9ScopeLogsNtNtCs8sCtDi7t2F4_4core3fmt5Debug3fmt13ScalarWrapperRNtNtCshFLakfGc1jx_5alloc6string6StringEBg_
FNDA:0,_RINvNvXsx_NtNtNtNtCs2Zzx8WPYKXd_15otel_arrow_rust5proto13opentelemetry4logs2v1NtB8_9LogRecordNtNtCs8sCtDi7t2F4_4core3fmt5Debug3fmt13ScalarWrapperRyEBg_
FNDA:0,_RINvNvXsx_NtNtNtNtCs2Zzx8WPYKXd_15otel_arrow_rust5proto13opentelemetry4logs2v1NtB8_9LogRecordNtNtCs8sCtDi7t2F4_4core3fmt5Debug3fmts0_13ScalarWrapperRNtNtCshFLakfGc1jx_5alloc6string6StringEBg_
FNDA:0,_RINvNvXsx_NtNtNtNtCs2Zzx8WPYKXd_15otel_arrow_rust5proto13opentelemetry4logs2v1NtB8_9LogRecordNtNtCs8sCtDi7t2F4_4core3fmt5Debug3fmts1_13ScalarWrapperRmEBg_
FNDA:0,_RINvNvXsx_NtNtNtNtCs2Zzx8WPYKXd_15otel_arrow_rust5proto13opentelemetry4logs2v1NtB8_9LogRecordNtNtCs8sCtDi7t2F4_4core3fmt5Debug3fmts2_13ScalarWrapperRmEBg_
FNDA:0,_RINvNvXsx_NtNtNtNtCs2Zzx8WPYKXd_15otel_arrow_rust5proto13opentelemetry4logs2v1NtB8_9LogRecordNtNtCs8sCtDi7t2F4_4core3fmt5Debug3fmts3_13ScalarWrapperRINtNtCshFLakfGc1jx_5alloc3vec3VechEEBg_
FNDA:0,_RINvNvXsx_NtNtNtNtCs2Zzx8WPYKXd_15otel_arrow_rust5proto13opentelemetry4logs2v1NtB8_9LogRecordNtNtCs8sCtDi7t2F4_4core3fmt5Debug3fmts4_13ScalarWrapperRINtNtCshFLakfGc1jx_5alloc3vec3VechEEBg_
FNDA:0,_RINvNvXsx_NtNtNtNtCs2Zzx8WPYKXd_15otel_arrow_rust5proto13opentelemetry4logs2v1NtB8_9LogRecordNtNtCs8sCtDi7t2F4_4core3fmt5Debug3fmts5_13ScalarWrapperRNtNtCshFLakfGc1jx_5alloc6string6StringEBg_
FNDA:0,_RINvNvXsx_NtNtNtNtCs2Zzx8WPYKXd_15otel_arrow_rust5proto13opentelemetry4logs2v1NtB8_9LogRecordNtNtCs8sCtDi7t2F4_4core3fmt5Debug3fmts_13ScalarWrapperRyEBg_
FNDA:0,_RNCINvXsd_NtNtNtNtCs2Zzx8WPYKXd_15otel_arrow_rust5proto13opentelemetry4logs2v1NtB8_12ResourceLogsNtNtCs9ugllKyEvyV_5prost7message7Message11merge_fieldQQNtNtNtCs87Lp0jQnWEh_5tonic5codec6buffer9DecodeBufE0Bg_
FNDA:0,_RNCINvXsd_NtNtNtNtCs2Zzx8WPYKXd_15otel_arrow_rust5proto13opentelemetry4logs2v1NtB8_12ResourceLogsNtNtCs9ugllKyEvyV_5prost7message7Message11merge_fieldQQNtNtNtCs87Lp0jQnWEh_5tonic5codec6buffer9DecodeBufEs0_0Bg_
FNDA:0,_RNCINvXsd_NtNtNtNtCs2Zzx8WPYKXd_15otel_arrow_rust5proto13opentelemetry4logs2v1NtB8_12ResourceLogsNtNtCs9ugllKyEvyV_5prost7message7Message11merge_fieldQQNtNtNtCs87Lp0jQnWEh_5tonic5codec6buffer9DecodeBufEs_0Bg_
FNDA:0,_RNCINvXsm_NtNtNtNtCs2Zzx8WPYKXd_15otel_arrow_rust5proto13opentelemetry4logs2v1NtB8_9ScopeLogsNtNtCs9ugllKyEvyV_5prost7message7Message11merge_fieldQQNtNtNtCs87Lp0jQnWEh_5tonic5codec6buffer9DecodeBufE0Bg_
FNDA:0,_RNCINvXsm_NtNtNtNtCs2Zzx8WPYKXd_15otel_arrow_rust5proto13opentelemetry4logs2v1NtB8_9ScopeLogsNtNtCs9ugllKyEvyV_5prost7message7Message11merge_fieldQQNtNtNtCs87Lp0jQnWEh_5tonic5codec6buffer9DecodeBufEs0_0Bg_
FNDA:0,_RNCINvXsm_NtNtNtNtCs2Zzx8WPYKXd_15otel_arrow_rust5proto13opentelemetry4logs2v1NtB8_9ScopeLogsNtNtCs9ugllKyEvyV_5prost7message7Message11merge_fieldQQNtNtNtCs87Lp0jQnWEh_5tonic5codec6buffer9DecodeBufEs_0Bg_
FNDA:0,_RNCINvXsv_NtNtNtNtCs2Zzx8WPYKXd_15otel_arrow_rust5proto13opentelemetry4logs2v1NtB8_9LogRecordNtNtCs9ugllKyEvyV_5prost7message7Message11merge_fieldQQNtNtNtCs87Lp0jQnWEh_5tonic5codec6buffer9DecodeBufE0Bg_
FNDA:0,_RNCINvXsv_NtNtNtNtCs2Zzx8WPYKXd_15otel_arrow_rust5proto13opentelemetry4logs2v1NtB8_9LogRecordNtNtCs9ugllKyEvyV_5prost7message7Message11merge_fieldQQNtNtNtCs87Lp0jQnWEh_5tonic5codec6buffer9DecodeBufEs0_0Bg_
FNDA:0,_RNCINvXsv_NtNtNtNtCs2Zzx8WPYKXd_15otel_arrow_rust5proto13opentelemetry4logs2v1NtB8_9LogRecordNtNtCs9ugllKyEvyV_5prost7message7Message11merge_fieldQQNtNtNtCs87Lp0jQnWEh_5tonic5codec6buffer9DecodeBufEs1_0Bg_
FNDA:0,_RNCINvXsv_NtNtNtNtCs2Zzx8WPYKXd_15otel_arrow_rust5proto13opentelemetry4logs2v1NtB8_9LogRecordNtNtCs9ugllKyEvyV_5prost7message7Message11merge_fieldQQNtNtNtCs87Lp0jQnWEh_5tonic5codec6buffer9DecodeBufEs2_0Bg_
FNDA:0,_RNCINvXsv_NtNtNtNtCs2Zzx8WPYKXd_15otel_arrow_rust5proto13opentelemetry4logs2v1NtB8_9LogRecordNtNtCs9ugllKyEvyV_5prost7message7Message11merge_fieldQQNtNtNtCs87Lp0jQnWEh_5tonic5codec6buffer9DecodeBufEs3_0Bg_
FNDA:0,_RNCINvXsv_NtNtNtNtCs2Zzx8WPYKXd_15otel_arrow_rust5proto13opentelemetry4logs2v1NtB8_9LogRecordNtNtCs9ugllKyEvyV_5prost7message7Message11merge_fieldQQNtNtNtCs87Lp0jQnWEh_5tonic5codec6buffer9DecodeBufEs4_0Bg_
FNDA:0,_RNCINvXsv_NtNtNtNtCs2Zzx8WPYKXd_15otel_arrow_rust5proto13opentelemetry4logs2v1NtB8_9LogRecordNtNtCs9ugllKyEvyV_5prost7message7Message11merge_fieldQQNtNtNtCs87Lp0jQnWEh_5tonic5codec6buffer9DecodeBufEs5_0Bg_
FNDA:0,_RNCINvXsv_NtNtNtNtCs2Zzx8WPYKXd_15otel_arrow_rust5proto13opentelemetry4logs2v1NtB8_9LogRecordNtNtCs9ugllKyEvyV_5prost7message7Message11merge_fieldQQNtNtNtCs87Lp0jQnWEh_5tonic5codec6buffer9DecodeBufEs6_0Bg_
FNDA:0,_RNCINvXsv_NtNtNtNtCs2Zzx8WPYKXd_15otel_arrow_rust5proto13opentelemetry4logs2v1NtB8_9LogRecordNtNtCs9ugllKyEvyV_5prost7message7Message11merge_fieldQQNtNtNtCs87Lp0jQnWEh_5tonic5codec6buffer9DecodeBufEs7_0Bg_
FNDA:0,_RNCINvXsv_NtNtNtNtCs2Zzx8WPYKXd_15otel_arrow_rust5proto13opentelemetry4logs2v1NtB8_9LogRecordNtNtCs9ugllKyEvyV_5prost7message7Message11merge_fieldQQNtNtNtCs87Lp0jQnWEh_5tonic5codec6buffer9DecodeBufEs8_0Bg_
FNDA:0,_RNCINvXsv_NtNtNtNtCs2Zzx8WPYKXd_15otel_arrow_rust5proto13opentelemetry4logs2v1NtB8_9LogRecordNtNtCs9ugllKyEvyV_5prost7message7Message11merge_fieldQQNtNtNtCs87Lp0jQnWEh_5tonic5codec6buffer9DecodeBufEs_0Bg_
FNDA:6,_RNCNvXsd_NtNtNtNtCs2Zzx8WPYKXd_15otel_arrow_rust5proto13opentelemetry4logs2v1NtB7_12ResourceLogsNtNtCs9ugllKyEvyV_5prost7message7Message11encoded_len0Bf_
FNDA:9,_RNCNvXsm_NtNtNtNtCs2Zzx8WPYKXd_15otel_arrow_rust5proto13opentelemetry4logs2v1NtB7_9ScopeLogsNtNtCs9ugllKyEvyV_5prost7message7Message11encoded_len0Bf_
FNDA:16,_RNCNvXsv_NtNtNtNtCs2Zzx8WPYKXd_15otel_arrow_rust5proto13opentelemetry4logs2v1NtB7_9LogRecordNtNtCs9ugllKyEvyV_5prost7message7Message11encoded_len0Bf_
FNDA:4,_RNvMs8_NtNtNtNtCs2Zzx8WPYKXd_15otel_arrow_rust5proto13opentelemetry4logs2v1NtB5_19ResourceLogsBuilder6finish
FNDA:5,_RNvMsh_NtNtNtNtCs2Zzx8WPYKXd_15otel_arrow_rust5proto13opentelemetry4logs2v1NtB5_16ScopeLogsBuilder6finish
FNDA:7,_RNvMsq_NtNtNtNtCs2Zzx8WPYKXd_15otel_arrow_rust5proto13opentelemetry4logs2v1NtB5_16LogRecordBuilder6finish
FNDA:26,_RNvXsJ_NtNtNtNtCs2Zzx8WPYKXd_15otel_arrow_rust5proto13opentelemetry4logs2v1NtB5_14SeverityNumberNtNtCs8sCtDi7t2F4_4core7default7Default7default
FNDA:10,_RNvXsK_NtNtNtNtCs2Zzx8WPYKXd_15otel_arrow_rust5proto13opentelemetry4logs2v1lINtNtCs8sCtDi7t2F4_4core7convert4FromNtB5_14SeverityNumberE4from
FNDA:3,_RNvXse_NtNtNtNtCs2Zzx8WPYKXd_15otel_arrow_rust5proto13opentelemetry4logs2v1NtB5_12ResourceLogsNtNtCs8sCtDi7t2F4_4core7default7Default7default
FNDA:3,_RNvXsn_NtNtNtNtCs2Zzx8WPYKXd_15otel_arrow_rust5proto13opentelemetry4logs2v1NtB5_9ScopeLogsNtNtCs8sCtDi7t2F4_4core7default7Default7default
FNDA:6,_RNvXsw_NtNtNtNtCs2Zzx8WPYKXd_15otel_arrow_rust5proto13opentelemetry4logs2v1NtB5_9LogRecordNtNtCs8sCtDi7t2F4_4core7default7Default7default
FNF:10
FNH:4
DA:2,0
DA:9,25
DA:20,33
DA:31,71
DA:58,36
DA:92,0
DA:93,0
DA:94,0
DA:95,0
DA:96,0
DA:97,0
DA:98,0
DA:99,0
DA:100,0
DA:101,0
DA:102,0
DA:103,0
DA:104,0
DA:105,0
DA:106,0
DA:107,0
DA:108,0
DA:109,0
DA:110,0
DA:111,0
DA:112,0
DA:113,0
DA:114,0
DA:115,0
DA:116,0
DA:117,0
DA:118,0
DA:120,0
DA:122,0
DA:123,0
DA:124,0
DA:125,0
DA:126,0
DA:127,0
DA:128,0
DA:129,0
DA:130,0
DA:131,0
DA:132,0
DA:133,0
DA:134,0
DA:135,0
DA:136,0
DA:137,0
DA:138,0
DA:139,0
DA:140,0
DA:141,0
DA:142,0
DA:143,0
DA:144,0
DA:145,0
DA:146,0
DA:147,0
DA:148,0
DA:149,0
DA:151,0
DA:153,0
DA:164,0
DA:165,0
DA:166,0
DA:167,0
DA:169,0
DA:171,0
DA:172,0
DA:173,0
DA:174,0
DA:175,0
DA:177,0
BRF:0
BRH:0
LF:74
LH:4
end_of_record
SF:/Users/d.dahl/code/otel-arrow/rust/otel-arrow-rust/src/proto/opentelemetry.proto.metrics.v1.rs
FN:2,_RINvMs0_NtNtNtNtCs2Zzx8WPYKXd_15otel_arrow_rust5proto13opentelemetry7metrics2v1NtB6_11MetricsData3newpEBe_
FN:204,_RINvMs1E_NtNtNtNtCs2Zzx8WPYKXd_15otel_arrow_rust5proto13opentelemetry7metrics2v1NtB7_23SummaryDataPointBuilder10attributespEBf_
FN:204,_RINvMs1E_NtNtNtNtCs2Zzx8WPYKXd_15otel_arrow_rust5proto13opentelemetry7metrics2v1NtB7_23SummaryDataPointBuilder14time_unix_nanopEBf_
FN:204,_RINvMs1E_NtNtNtNtCs2Zzx8WPYKXd_15otel_arrow_rust5proto13opentelemetry7metrics2v1NtB7_23SummaryDataPointBuilder15quantile_valuespEBf_
FN:204,_RINvMs1E_NtNtNtNtCs2Zzx8WPYKXd_15otel_arrow_rust5proto13opentelemetry7metrics2v1NtB7_23SummaryDataPointBuilder5flagspEBf_
FN:235,_RINvMs1M_NtNtNtNtCs2Zzx8WPYKXd_15otel_arrow_rust5proto13opentelemetry7metrics2v1NtB7_8Exemplar7new_intppEBf_
FN:235,_RINvMs1M_NtNtNtNtCs2Zzx8WPYKXd_15otel_arrow_rust5proto13opentelemetry7metrics2v1NtB7_8Exemplar9build_intppEBf_
FN:235,_RINvMs1N_NtNtNtNtCs2Zzx8WPYKXd_15otel_arrow_rust5proto13opentelemetry7metrics2v1NtB7_15ExemplarBuilder14time_unix_nanopEBf_
FN:235,_RINvMs1N_NtNtNtNtCs2Zzx8WPYKXd_15otel_arrow_rust5proto13opentelemetry7metrics2v1NtB7_15ExemplarBuilder19filtered_attributespEBf_
FN:105,_RINvMs1a_NtNtNtNtCs2Zzx8WPYKXd_15otel_arrow_rust5proto13opentelemetry7metrics2v1NtB7_15NumberDataPoint9build_intppEBf_
FN:105,_RINvMs1b_NtNtNtNtCs2Zzx8WPYKXd_15otel_arrow_rust5proto13opentelemetry7metrics2v1NtB7_22NumberDataPointBuilder14time_unix_nanopEBf_
FN:105,_RINvMs1b_NtNtNtNtCs2Zzx8WPYKXd_15otel_arrow_rust5proto13opentelemetry7metrics2v1NtB7_22NumberDataPointBuilder5flagspEBf_
FN:105,_RINvMs1b_NtNtNtNtCs2Zzx8WPYKXd_15otel_arrow_rust5proto13opentelemetry7metrics2v1NtB7_22NumberDataPointBuilder9exemplarspEBf_
FN:132,_RINvMs1k_NtNtNtNtCs2Zzx8WPYKXd_15otel_arrow_rust5proto13opentelemetry7metrics2v1NtB7_25HistogramDataPointBuilder10attributespEBf_
FN:132,_RINvMs1k_NtNtNtNtCs2Zzx8WPYKXd_15otel_arrow_rust5proto13opentelemetry7metrics2v1NtB7_25HistogramDataPointBuilder13bucket_countspEBf_
FN:132,_RINvMs1k_NtNtNtNtCs2Zzx8WPYKXd_15otel_arrow_rust5proto13opentelemetry7metrics2v1NtB7_25HistogramDataPointBuilder14time_unix_nanopEBf_
FN:132,_RINvMs1k_NtNtNtNtCs2Zzx8WPYKXd_15otel_arrow_rust5proto13opentelemetry7metrics2v1NtB7_25HistogramDataPointBuilder15explicit_boundspEBf_
FN:132,_RINvMs1k_NtNtNtNtCs2Zzx8WPYKXd_15otel_arrow_rust5proto13opentelemetry7metrics2v1NtB7_25HistogramDataPointBuilder5flagspEBf_
FN:159,_RINvMs1u_NtNtNtNtCs2Zzx8WPYKXd_15otel_arrow_rust5proto13opentelemetry7metrics2v1NtB7_36ExponentialHistogramDataPointBuilder10attributespEBf_
FN:159,_RINvMs1u_NtNtNtNtCs2Zzx8WPYKXd_15otel_arrow_rust5proto13opentelemetry7metrics2v1NtB7_36ExponentialHistogramDataPointBuilder14time_unix_nanopEBf_
FN:159,_RINvMs1u_NtNtNtNtCs2Zzx8WPYKXd_15otel_arrow_rust5proto13opentelemetry7metrics2v1NtB7_36ExponentialHistogramDataPointBuilder14zero_thresholdpEBf_
FN:159,_RINvMs1u_NtNtNtNtCs2Zzx8WPYKXd_15otel_arrow_rust5proto13opentelemetry7metrics2v1NtB7_36ExponentialHistogramDataPointBuilder3maxpEBf_
FN:159,_RINvMs1u_NtNtNtNtCs2Zzx8WPYKXd_15otel_arrow_rust5proto13opentelemetry7metrics2v1NtB7_36ExponentialHistogramDataPointBuilder3minpEBf_
FN:159,_RINvMs1u_NtNtNtNtCs2Zzx8WPYKXd_15otel_arrow_rust5proto13opentelemetry7metrics2v1NtB7_36ExponentialHistogramDataPointBuilder3sumpEBf_
FN:159,_RINvMs1u_NtNtNtNtCs2Zzx8WPYKXd_15otel_arrow_rust5proto13opentelemetry7metrics2v1NtB7_36ExponentialHistogramDataPointBuilder5flagspEBf_
FN:159,_RINvMs1u_NtNtNtNtCs2Zzx8WPYKXd_15otel_arrow_rust5proto13opentelemetry7metrics2v1NtB7_36ExponentialHistogramDataPointBuilder5scalepEBf_
FN:159,_RINvMs1u_NtNtNtNtCs2Zzx8WPYKXd_15otel_arrow_rust5proto13opentelemetry7metrics2v1NtB7_36ExponentialHistogramDataPointBuilder8positivepEBf_
FN:159,_RINvMs1u_NtNtNtNtCs2Zzx8WPYKXd_15otel_arrow_rust5proto13opentelemetry7metrics2v1NtB7_36ExponentialHistogramDataPointBuilder9exemplarspEBf_
FN:9,_RINvMs8_NtNtNtNtCs2Zzx8WPYKXd_15otel_arrow_rust5proto13opentelemetry7metrics2v1NtB6_22ResourceMetricsBuilder10schema_urlpEBe_
FN:9,_RINvMs8_NtNtNtNtCs2Zzx8WPYKXd_15otel_arrow_rust5proto13opentelemetry7metrics2v1NtB6_22ResourceMetricsBuilder8resourcepEBe_
FN:20,_RINvMsh_NtNtNtNtCs2Zzx8WPYKXd_15otel_arrow_rust5proto13opentelemetry7metrics2v1NtB6_19ScopeMetricsBuilder10schema_urlpEBe_
FN:20,_RINvMsh_NtNtNtNtCs2Zzx8WPYKXd_15otel_arrow_rust5proto13opentelemetry7metrics2v1NtB6_19ScopeMetricsBuilder5scopepEBe_
FN:31,_RINvMsp_NtNtNtNtCs2Zzx8WPYKXd_15otel_arrow_rust5proto13opentelemetry7metrics2v1NtB6_6Metric13build_summaryppEBe_
FN:31,_RINvMsp_NtNtNtNtCs2Zzx8WPYKXd_15otel_arrow_rust5proto13opentelemetry7metrics2v1NtB6_6Metric15build_histogramppEBe_
FN:31,_RINvMsp_NtNtNtNtCs2Zzx8WPYKXd_15otel_arrow_rust5proto13opentelemetry7metrics2v1NtB6_6Metric27build_exponential_histogramppEBe_
FN:31,_RINvMsp_NtNtNtNtCs2Zzx8WPYKXd_15otel_arrow_rust5proto13opentelemetry7metrics2v1NtB6_6Metric9build_sumppEBe_
FN:31,_RINvMsq_NtNtNtNtCs2Zzx8WPYKXd_15otel_arrow_rust5proto13opentelemetry7metrics2v1NtB6_13MetricBuilder4namepEBe_
FN:31,_RINvMsq_NtNtNtNtCs2Zzx8WPYKXd_15otel_arrow_rust5proto13opentelemetry7metrics2v1NtB6_13MetricBuilder8metadatapEBe_
FN:2,_RNCINvXs4_NtNtNtNtCs2Zzx8WPYKXd_15otel_arrow_rust5proto13opentelemetry7metrics2v1NtB8_11MetricsDataNtNtCs9ugllKyEvyV_5prost7message7Message11merge_fieldpE0Bg_
FN:272,_RNvMNtNtNtNtCs2Zzx8WPYKXd_15otel_arrow_rust5proto13opentelemetry7metrics2v1NtB2_22AggregationTemporality11as_str_name
FN:280,_RNvMNtNtNtNtCs2Zzx8WPYKXd_15otel_arrow_rust5proto13opentelemetry7metrics2v1NtB2_22AggregationTemporality13from_str_name
FN:89,_RNvMs12_NtNtNtNtCs2Zzx8WPYKXd_15otel_arrow_rust5proto13opentelemetry7metrics2v1NtB6_20ExponentialHistogram23aggregation_temporality
FN:89,_RNvMs12_NtNtNtNtCs2Zzx8WPYKXd_15otel_arrow_rust5proto13opentelemetry7metrics2v1NtB6_20ExponentialHistogram27set_aggregation_temporality
FN:69,_RNvMsM_NtNtNtNtCs2Zzx8WPYKXd_15otel_arrow_rust5proto13opentelemetry7metrics2v1NtB5_3Sum23aggregation_temporality
FN:69,_RNvMsM_NtNtNtNtCs2Zzx8WPYKXd_15otel_arrow_rust5proto13opentelemetry7metrics2v1NtB5_3Sum27set_aggregation_temporality
FN:80,_RNvMsU_NtNtNtNtCs2Zzx8WPYKXd_15otel_arrow_rust5proto13opentelemetry7metrics2v1NtB5_9Histogram23aggregation_temporality
FN:80,_RNvMsU_NtNtNtNtCs2Zzx8WPYKXd_15otel_arrow_rust5proto13opentelemetry7metrics2v1NtB5_9Histogram27set_aggregation_temporality
FN:300,_RNvMs_NtNtNtNtCs2Zzx8WPYKXd_15otel_arrow_rust5proto13opentelemetry7metrics2v1NtB4_14DataPointFlags11as_str_name
FN:307,_RNvMs_NtNtNtNtCs2Zzx8WPYKXd_15otel_arrow_rust5proto13opentelemetry7metrics2v1NtB4_14DataPointFlags13from_str_name
FN:98,_RNvXs17_NtNtNtNtCs2Zzx8WPYKXd_15otel_arrow_rust5proto13opentelemetry7metrics2v1NtB6_7SummaryNtNtCs9ugllKyEvyV_5prost7message7Message5clear
FN:204,_RNvXs1F_NtNtNtNtCs2Zzx8WPYKXd_15otel_arrow_rust5proto13opentelemetry7metrics2v1NtB6_16SummaryDataPointINtNtCs8sCtDi7t2F4_4core7convert4FromNtB6_23SummaryDataPointBuilderE4from
FN:204,_RNvXs1J_NtNtNtNtCs2Zzx8WPYKXd_15otel_arrow_rust5proto13opentelemetry7metrics2v1NtB6_16SummaryDataPointNtNtCs9ugllKyEvyV_5prost7message7Message5clear
FN:235,_RNvXs1O_NtNtNtNtCs2Zzx8WPYKXd_15otel_arrow_rust5proto13opentelemetry7metrics2v1NtB6_8ExemplarINtNtCs8sCtDi7t2F4_4core7convert4FromNtB6_15ExemplarBuilderE4from
FN:235,_RNvXs1S_NtNtNtNtCs2Zzx8WPYKXd_15otel_arrow_rust5proto13opentelemetry7metrics2v1NtB6_8ExemplarNtNtCs9ugllKyEvyV_5prost7message7Message5clear
FN:105,_RNvXs1c_NtNtNtNtCs2Zzx8WPYKXd_15otel_arrow_rust5proto13opentelemetry7metrics2v1NtB6_15NumberDataPointINtNtCs8sCtDi7t2F4_4core7convert4FromNtB6_22NumberDataPointBuilderE4from
FN:105,_RNvXs1g_NtNtNtNtCs2Zzx8WPYKXd_15otel_arrow_rust5proto13opentelemetry7metrics2v1NtB6_15NumberDataPointNtNtCs9ugllKyEvyV_5prost7message7Message5clear
FN:132,_RNvXs1l_NtNtNtNtCs2Zzx8WPYKXd_15otel_arrow_rust5proto13opentelemetry7metrics2v1NtB6_18HistogramDataPointINtNtCs8sCtDi7t2F4_4core7convert4FromNtB6_25HistogramDataPointBuilderE4from
FN:132,_RNvXs1p_NtNtNtNtCs2Zzx8WPYKXd_15otel_arrow_rust5proto13opentelemetry7metrics2v1NtB6_18HistogramDataPointNtNtCs9ugllKyEvyV_5prost7message7Message5clear
FN:159,_RNvXs1v_NtNtNtNtCs2Zzx8WPYKXd_15otel_arrow_rust5proto13opentelemetry7metrics2v1NtB6_29ExponentialHistogramDataPointINtNtCs8sCtDi7t2F4_4core7convert4FromNtB6_36ExponentialHistogramDataPointBuilderE4from
FN:159,_RNvXs1z_NtNtNtNtCs2Zzx8WPYKXd_15otel_arrow_rust5proto13opentelemetry7metrics2v1NtB6_29ExponentialHistogramDataPointNtNtCs9ugllKyEvyV_5prost7message7Message5clear
FN:260,_RNvXs26_NtNtNtNtCs2Zzx8WPYKXd_15otel_arrow_rust5proto13opentelemetry7metrics2v1lINtNtCs8sCtDi7t2F4_4core7convert4FromNtB6_22AggregationTemporalityE4from
FN:194,_RNvXs2_NtNtNtNtNtCs2Zzx8WPYKXd_15otel_arrow_rust5proto13opentelemetry7metrics2v132exponential_histogram_data_pointNtB5_7BucketsNtNtCs9ugllKyEvyV_5prost7message7Message5clear
FN:289,_RNvXs2i_NtNtNtNtCs2Zzx8WPYKXd_15otel_arrow_rust5proto13opentelemetry7metrics2v1NtB6_14DataPointFlagsNtNtCs8sCtDi7t2F4_4core7default7Default7default
FN:289,_RNvXs2j_NtNtNtNtCs2Zzx8WPYKXd_15otel_arrow_rust5proto13opentelemetry7metrics2v1lINtNtCs8sCtDi7t2F4_4core7convert4FromNtB6_14DataPointFlagsE4from
FN:225,_RNvXs3_NtNtNtNtNtCs2Zzx8WPYKXd_15otel_arrow_rust5proto13opentelemetry7metrics2v118summary_data_pointNtB5_15ValueAtQuantileNtNtCs9ugllKyEvyV_5prost7message7Message5clear
FN:2,_RNvXs4_NtNtNtNtCs2Zzx8WPYKXd_15otel_arrow_rust5proto13opentelemetry7metrics2v1NtB5_11MetricsDataNtNtCs9ugllKyEvyV_5prost7message7Message11encoded_lenBd_
FN:2,_RNvXs4_NtNtNtNtCs2Zzx8WPYKXd_15otel_arrow_rust5proto13opentelemetry7metrics2v1NtB5_11MetricsDataNtNtCs9ugllKyEvyV_5prost7message7Message5clear
FN:2,_RNvXs5_NtNtNtNtCs2Zzx8WPYKXd_15otel_arrow_rust5proto13opentelemetry7metrics2v1NtB5_11MetricsDataNtNtCs8sCtDi7t2F4_4core7default7Default7default
FN:2,_RNvXs6_NtNtNtNtCs2Zzx8WPYKXd_15otel_arrow_rust5proto13opentelemetry7metrics2v1NtB5_11MetricsDataNtNtCs8sCtDi7t2F4_4core3fmt5Debug3fmt
FN:9,_RNvXs9_NtNtNtNtCs2Zzx8WPYKXd_15otel_arrow_rust5proto13opentelemetry7metrics2v1NtB5_15ResourceMetricsINtNtCs8sCtDi7t2F4_4core7convert4FromNtB5_22ResourceMetricsBuilderE4from
FN:62,_RNvXsC_NtNtNtNtCs2Zzx8WPYKXd_15otel_arrow_rust5proto13opentelemetry7metrics2v1NtB5_5GaugeNtNtCs9ugllKyEvyV_5prost7message7Message5clear
FN:69,_RNvXsJ_NtNtNtNtCs2Zzx8WPYKXd_15otel_arrow_rust5proto13opentelemetry7metrics2v1NtB5_3SumNtNtCs9ugllKyEvyV_5prost7message7Message5clear
FN:80,_RNvXsR_NtNtNtNtCs2Zzx8WPYKXd_15otel_arrow_rust5proto13opentelemetry7metrics2v1NtB5_9HistogramNtNtCs9ugllKyEvyV_5prost7message7Message5clear
FN:89,_RNvXsZ_NtNtNtNtCs2Zzx8WPYKXd_15otel_arrow_rust5proto13opentelemetry7metrics2v1NtB5_20ExponentialHistogramNtNtCs9ugllKyEvyV_5prost7message7Message5clear
FN:9,_RNvXsd_NtNtNtNtCs2Zzx8WPYKXd_15otel_arrow_rust5proto13opentelemetry7metrics2v1NtB5_15ResourceMetricsNtNtCs9ugllKyEvyV_5prost7message7Message5clear
FN:20,_RNvXsi_NtNtNtNtCs2Zzx8WPYKXd_15otel_arrow_rust5proto13opentelemetry7metrics2v1NtB5_12ScopeMetricsINtNtCs8sCtDi7t2F4_4core7convert4FromNtB5_19ScopeMetricsBuilderE4from
FN:20,_RNvXsm_NtNtNtNtCs2Zzx8WPYKXd_15otel_arrow_rust5proto13opentelemetry7metrics2v1NtB5_12ScopeMetricsNtNtCs9ugllKyEvyV_5prost7message7Message5clear
FN:31,_RNvXsr_NtNtNtNtCs2Zzx8WPYKXd_15otel_arrow_rust5proto13opentelemetry7metrics2v1NtB5_6MetricINtNtCs8sCtDi7t2F4_4core7convert4FromNtB5_13MetricBuilderE4from
FN:31,_RNvXsv_NtNtNtNtCs2Zzx8WPYKXd_15otel_arrow_rust5proto13opentelemetry7metrics2v1NtB5_6MetricNtNtCs9ugllKyEvyV_5prost7message7Message5clear
FN:204,_RNvMs1E_NtNtNtNtCs2Zzx8WPYKXd_15otel_arrow_rust5proto13opentelemetry7metrics2v1NtB6_23SummaryDataPointBuilder6finish
FN:235,_RNvMs1N_NtNtNtNtCs2Zzx8WPYKXd_15otel_arrow_rust5proto13opentelemetry7metrics2v1NtB6_15ExemplarBuilder6finish
FN:105,_RNvMs1b_NtNtNtNtCs2Zzx8WPYKXd_15otel_arrow_rust5proto13opentelemetry7metrics2v1NtB6_22NumberDataPointBuilder6finish
FN:132,_RNvMs1k_NtNtNtNtCs2Zzx8WPYKXd_15otel_arrow_rust5proto13opentelemetry7metrics2v1NtB6_25HistogramDataPointBuilder6finish
FN:159,_RNvMs1u_NtNtNtNtCs2Zzx8WPYKXd_15otel_arrow_rust5proto13opentelemetry7metrics2v1NtB6_36ExponentialHistogramDataPointBuilder6finish
FN:9,_RNvMs8_NtNtNtNtCs2Zzx8WPYKXd_15otel_arrow_rust5proto13opentelemetry7metrics2v1NtB5_22ResourceMetricsBuilder6finish
FN:20,_RNvMsh_NtNtNtNtCs2Zzx8WPYKXd_15otel_arrow_rust5proto13opentelemetry7metrics2v1NtB5_19ScopeMetricsBuilder6finish
FN:31,_RNvMsq_NtNtNtNtCs2Zzx8WPYKXd_15otel_arrow_rust5proto13opentelemetry7metrics2v1NtB5_13MetricBuilder6finish
FN:89,_RNvXs10_NtNtNtNtCs2Zzx8WPYKXd_15otel_arrow_rust5proto13opentelemetry7metrics2v1NtB6_20ExponentialHistogramNtNtCs8sCtDi7t2F4_4core7default7Default7default
FN:98,_RNvXs17_NtNtNtNtCs2Zzx8WPYKXd_15otel_arrow_rust5proto13opentelemetry7metrics2v1NtB6_7SummaryNtNtCs9ugllKyEvyV_5prost7message7Message11encoded_lenBe_
FN:98,_RNvXs18_NtNtNtNtCs2Zzx8WPYKXd_15otel_arrow_rust5proto13opentelemetry7metrics2v1NtB6_7SummaryNtNtCs8sCtDi7t2F4_4core7default7Default7default
FN:98,_RNvXs19_NtNtNtNtCs2Zzx8WPYKXd_15otel_arrow_rust5proto13opentelemetry7metrics2v1NtB6_7SummaryNtNtCs8sCtDi7t2F4_4core3fmt5Debug3fmt
FN:159,_RNvXs1A_NtNtNtNtCs2Zzx8WPYKXd_15otel_arrow_rust5proto13opentelemetry7metrics2v1NtB6_29ExponentialHistogramDataPointNtNtCs8sCtDi7t2F4_4core7default7Default7default
FN:204,_RNvXs1K_NtNtNtNtCs2Zzx8WPYKXd_15otel_arrow_rust5proto13opentelemetry7metrics2v1NtB6_16SummaryDataPointNtNtCs8sCtDi7t2F4_4core7default7Default7default
FN:235,_RNvXs1T_NtNtNtNtCs2Zzx8WPYKXd_15otel_arrow_rust5proto13opentelemetry7metrics2v1NtB6_8ExemplarNtNtCs8sCtDi7t2F4_4core7default7Default7default
FN:105,_RNvXs1h_NtNtNtNtCs2Zzx8WPYKXd_15otel_arrow_rust5proto13opentelemetry7metrics2v1NtB6_15NumberDataPointNtNtCs8sCtDi7t2F4_4core7default7Default7default
FN:132,_RNvXs1q_NtNtNtNtCs2Zzx8WPYKXd_15otel_arrow_rust5proto13opentelemetry7metrics2v1NtB6_18HistogramDataPointNtNtCs8sCtDi7t2F4_4core7default7Default7default
FN:260,_RNvXs25_NtNtNtNtCs2Zzx8WPYKXd_15otel_arrow_rust5proto13opentelemetry7metrics2v1NtB6_22AggregationTemporalityNtNtCs8sCtDi7t2F4_4core7default7Default7default
FN:62,_RNvXsC_NtNtNtNtCs2Zzx8WPYKXd_15otel_arrow_rust5proto13opentelemetry7metrics2v1NtB5_5GaugeNtNtCs9ugllKyEvyV_5prost7message7Message11encoded_lenBd_
FN:62,_RNvXsD_NtNtNtNtCs2Zzx8WPYKXd_15otel_arrow_rust5proto13opentelemetry7metrics2v1NtB5_5GaugeNtNtCs8sCtDi7t2F4_4core7default7Default7default
FN:62,_RNvXsE_NtNtNtNtCs2Zzx8WPYKXd_15otel_arrow_rust5proto13opentelemetry7metrics2v1NtB5_5GaugeNtNtCs8sCtDi7t2F4_4core3fmt5Debug3fmt
FN:69,_RNvXsK_NtNtNtNtCs2Zzx8WPYKXd_15otel_arrow_rust5proto13opentelemetry7metrics2v1NtB5_3SumNtNtCs8sCtDi7t2F4_4core7default7Default7default
FN:80,_RNvXsS_NtNtNtNtCs2Zzx8WPYKXd_15otel_arrow_rust5proto13opentelemetry7metrics2v1NtB5_9HistogramNtNtCs8sCtDi7t2F4_4core7default7Default7default
FN:9,_RNvXse_NtNtNtNtCs2Zzx8WPYKXd_15otel_arrow_rust5proto13opentelemetry7metrics2v1NtB5_15ResourceMetricsNtNtCs8sCtDi7t2F4_4core7default7Default7default
FN:20,_RNvXsn_NtNtNtNtCs2Zzx8WPYKXd_15otel_arrow_rust5proto13opentelemetry7metrics2v1NtB5_12ScopeMetricsNtNtCs8sCtDi7t2F4_4core7default7Default7default
FN:31,_RNvXsw_NtNtNtNtCs2Zzx8WPYKXd_15otel_arrow_rust5proto13opentelemetry7metrics2v1NtB5_6MetricNtNtCs8sCtDi7t2F4_4core7default7Default7default
FN:48,_RNCINvMs1_NtNtNtNtNtCs2Zzx8WPYKXd_15otel_arrow_rust5proto13opentelemetry7metrics2v16metricNtB8_4Data5mergeQQNtNtNtCs87Lp0jQnWEh_5tonic5codec6buffer9DecodeBufE0Bi_
FN:48,_RNCINvMs1_NtNtNtNtNtCs2Zzx8WPYKXd_15otel_arrow_rust5proto13opentelemetry7metrics2v16metricNtB8_4Data5mergeQQNtNtNtCs87Lp0jQnWEh_5tonic5codec6buffer9DecodeBufEs0_0Bi_
FN:48,_RNCINvMs1_NtNtNtNtNtCs2Zzx8WPYKXd_15otel_arrow_rust5proto13opentelemetry7metrics2v16metricNtB8_4Data5mergeQQNtNtNtCs87Lp0jQnWEh_5tonic5codec6buffer9DecodeBufEs1_0Bi_
FN:48,_RNCINvMs1_NtNtNtNtNtCs2Zzx8WPYKXd_15otel_arrow_rust5proto13opentelemetry7metrics2v16metricNtB8_4Data5mergeQQNtNtNtCs87Lp0jQnWEh_5tonic5codec6buffer9DecodeBufEs2_0Bi_
FN:48,_RNCINvMs1_NtNtNtNtNtCs2Zzx8WPYKXd_15otel_arrow_rust5proto13opentelemetry7metrics2v16metricNtB8_4Data5mergeQQNtNtNtCs87Lp0jQnWEh_5tonic5codec6buffer9DecodeBufEs_0Bi_
FN:124,_RINvNvXs3_NtNtNtNtNtCs2Zzx8WPYKXd_15otel_arrow_rust5proto13opentelemetry7metrics2v117number_data_pointNtB8_5ValueNtNtCs8sCtDi7t2F4_4core3fmt5Debug3fmt13ScalarWrapperRdEBi_
FN:124,_RINvNvXs3_NtNtNtNtNtCs2Zzx8WPYKXd_15otel_arrow_rust5proto13opentelemetry7metrics2v117number_data_pointNtB8_5ValueNtNtCs8sCtDi7t2F4_4core3fmt5Debug3fmts_13ScalarWrapperRxEBi_
FN:124,_RNCINvMs2_NtNtNtNtNtCs2Zzx8WPYKXd_15otel_arrow_rust5proto13opentelemetry7metrics2v117number_data_pointNtB8_5Value5mergeQQNtNtNtCs87Lp0jQnWEh_5tonic5codec6buffer9DecodeBufE0Bi_
FN:124,_RNCINvMs2_NtNtNtNtNtCs2Zzx8WPYKXd_15otel_arrow_rust5proto13opentelemetry7metrics2v117number_data_pointNtB8_5Value5mergeQQNtNtNtCs87Lp0jQnWEh_5tonic5codec6buffer9DecodeBufEs_0Bi_
FN:225,_RNvXs4_NtNtNtNtNtCs2Zzx8WPYKXd_15otel_arrow_rust5proto13opentelemetry7metrics2v118summary_data_pointNtB5_15ValueAtQuantileNtNtCs8sCtDi7t2F4_4core7default7Default7default
FN:98,_RINvMs13_NtNtNtNtCs2Zzx8WPYKXd_15otel_arrow_rust5proto13opentelemetry7metrics2v1NtB7_7Summary3newINtNtCshFLakfGc1jx_5alloc3vec3VecNtB7_16SummaryDataPointEEBf_
FN:204,_RINvMs1D_NtNtNtNtCs2Zzx8WPYKXd_15otel_arrow_rust5proto13opentelemetry7metrics2v1NtB7_16SummaryDataPoint3newyINtNtCshFLakfGc1jx_5alloc3vec3VecNtNtB7_18summary_data_point15ValueAtQuantileEEBf_
FN:204,_RINvMs1D_NtNtNtNtCs2Zzx8WPYKXd_15otel_arrow_rust5proto13opentelemetry7metrics2v1NtB7_16SummaryDataPoint5buildyINtNtCshFLakfGc1jx_5alloc3vec3VecNtNtB7_18summary_data_point15ValueAtQuantileEEBf_
FN:204,_RINvMs1E_NtNtNtNtCs2Zzx8WPYKXd_15otel_arrow_rust5proto13opentelemetry7metrics2v1NtB7_23SummaryDataPointBuilder20start_time_unix_nanoyEBf_
FN:204,_RINvMs1E_NtNtNtNtCs2Zzx8WPYKXd_15otel_arrow_rust5proto13opentelemetry7metrics2v1NtB7_23SummaryDataPointBuilder3sumdEBf_
FN:204,_RINvMs1E_NtNtNtNtCs2Zzx8WPYKXd_15otel_arrow_rust5proto13opentelemetry7metrics2v1NtB7_23SummaryDataPointBuilder5countyEBf_
FN:235,_RINvMs1M_NtNtNtNtCs2Zzx8WPYKXd_15otel_arrow_rust5proto13opentelemetry7metrics2v1NtB7_8Exemplar10new_doubleydEBf_
FN:235,_RINvMs1M_NtNtNtNtCs2Zzx8WPYKXd_15otel_arrow_rust5proto13opentelemetry7metrics2v1NtB7_8Exemplar12build_doubleydEBf_
FN:235,_RINvMs1N_NtNtNtNtCs2Zzx8WPYKXd_15otel_arrow_rust5proto13opentelemetry7metrics2v1NtB7_15ExemplarBuilder7span_idNtNtBf_5pdata6SpanIDEBf_
FN:235,_RINvMs1N_NtNtNtNtCs2Zzx8WPYKXd_15otel_arrow_rust5proto13opentelemetry7metrics2v1NtB7_15ExemplarBuilder8trace_idNtNtBf_5pdata7TraceIDEBf_
FN:105,_RINvMs1a_NtNtNtNtCs2Zzx8WPYKXd_15otel_arrow_rust5proto13opentelemetry7metrics2v1NtB7_15NumberDataPoint10new_doubleydEBf_
FN:105,_RINvMs1a_NtNtNtNtCs2Zzx8WPYKXd_15otel_arrow_rust5proto13opentelemetry7metrics2v1NtB7_15NumberDataPoint12build_doubleydEBf_
FN:105,_RINvMs1a_NtNtNtNtCs2Zzx8WPYKXd_15otel_arrow_rust5proto13opentelemetry7metrics2v1NtB7_15NumberDataPoint7new_intyxEBf_
FN:105,_RINvMs1b_NtNtNtNtCs2Zzx8WPYKXd_15otel_arrow_rust5proto13opentelemetry7metrics2v1NtB7_22NumberDataPointBuilder10attributesINtNtCshFLakfGc1jx_5alloc3vec3VecNtNtNtBb_6common2v18KeyValueEEBf_
FN:105,_RINvMs1b_NtNtNtNtCs2Zzx8WPYKXd_15otel_arrow_rust5proto13opentelemetry7metrics2v1NtB7_22NumberDataPointBuilder20start_time_unix_nanoyEBf_
FN:132,_RINvMs1j_NtNtNtNtCs2Zzx8WPYKXd_15otel_arrow_rust5proto13opentelemetry7metrics2v1NtB7_18HistogramDataPoint3newyAyj3_Adj2_EBf_
FN:132,_RINvMs1j_NtNtNtNtCs2Zzx8WPYKXd_15otel_arrow_rust5proto13opentelemetry7metrics2v1NtB7_18HistogramDataPoint5buildyAyj3_Adj2_EBf_
FN:132,_RINvMs1k_NtNtNtNtCs2Zzx8WPYKXd_15otel_arrow_rust5proto13opentelemetry7metrics2v1NtB7_25HistogramDataPointBuilder20start_time_unix_nanoyEBf_
FN:132,_RINvMs1k_NtNtNtNtCs2Zzx8WPYKXd_15otel_arrow_rust5proto13opentelemetry7metrics2v1NtB7_25HistogramDataPointBuilder3maxdEBf_
FN:132,_RINvMs1k_NtNtNtNtCs2Zzx8WPYKXd_15otel_arrow_rust5proto13opentelemetry7metrics2v1NtB7_25HistogramDataPointBuilder3mindEBf_
FN:132,_RINvMs1k_NtNtNtNtCs2Zzx8WPYKXd_15otel_arrow_rust5proto13opentelemetry7metrics2v1NtB7_25HistogramDataPointBuilder3sumdEBf_
FN:132,_RINvMs1k_NtNtNtNtCs2Zzx8WPYKXd_15otel_arrow_rust5proto13opentelemetry7metrics2v1NtB7_25HistogramDataPointBuilder5countyEBf_
FN:132,_RINvMs1k_NtNtNtNtCs2Zzx8WPYKXd_15otel_arrow_rust5proto13opentelemetry7metrics2v1NtB7_25HistogramDataPointBuilder9exemplarsINtNtCshFLakfGc1jx_5alloc3vec3VecNtB7_8ExemplarEEBf_
FN:159,_RINvMs1t_NtNtNtNtCs2Zzx8WPYKXd_15otel_arrow_rust5proto13opentelemetry7metrics2v1NtB7_29ExponentialHistogramDataPoint3newylNtNtB7_32exponential_histogram_data_point7BucketsEBf_
FN:159,_RINvMs1t_NtNtNtNtCs2Zzx8WPYKXd_15otel_arrow_rust5proto13opentelemetry7metrics2v1NtB7_29ExponentialHistogramDataPoint5buildylNtNtB7_32exponential_histogram_data_point7BucketsEBf_
FN:159,_RINvMs1u_NtNtNtNtCs2Zzx8WPYKXd_15otel_arrow_rust5proto13opentelemetry7metrics2v1NtB7_36ExponentialHistogramDataPointBuilder10zero_countyEBf_
FN:159,_RINvMs1u_NtNtNtNtCs2Zzx8WPYKXd_15otel_arrow_rust5proto13opentelemetry7metrics2v1NtB7_36ExponentialHistogramDataPointBuilder20start_time_unix_nanoyEBf_
FN:159,_RINvMs1u_NtNtNtNtCs2Zzx8WPYKXd_15otel_arrow_rust5proto13opentelemetry7metrics2v1NtB7_36ExponentialHistogramDataPointBuilder5countyEBf_
FN:159,_RINvMs1u_NtNtNtNtCs2Zzx8WPYKXd_15otel_arrow_rust5proto13opentelemetry7metrics2v1NtB7_36ExponentialHistogramDataPointBuilder8negativeNtNtB7_32exponential_histogram_data_point7BucketsEBf_
FN:9,_RINvMs7_NtNtNtNtCs2Zzx8WPYKXd_15otel_arrow_rust5proto13opentelemetry7metrics2v1NtB6_15ResourceMetrics3newNtNtNtBa_8resource2v18ResourceEBe_
FN:9,_RINvMs7_NtNtNtNtCs2Zzx8WPYKXd_15otel_arrow_rust5proto13opentelemetry7metrics2v1NtB6_15ResourceMetrics5buildNtNtNtBa_8resource2v18ResourceEBe_
FN:9,_RINvMs8_NtNtNtNtCs2Zzx8WPYKXd_15otel_arrow_rust5proto13opentelemetry7metrics2v1NtB6_22ResourceMetricsBuilder13scope_metricsINtNtCshFLakfGc1jx_5alloc3vec3VecNtB6_12ScopeMetricsEEBe_
FN:69,_RINvMsF_NtNtNtNtCs2Zzx8WPYKXd_15otel_arrow_rust5proto13opentelemetry7metrics2v1NtB6_3Sum3newNtB6_22AggregationTemporalitybINtNtCshFLakfGc1jx_5alloc3vec3VecNtB6_15NumberDataPointEEBe_
FN:80,_RINvMsN_NtNtNtNtCs2Zzx8WPYKXd_15otel_arrow_rust5proto13opentelemetry7metrics2v1NtB6_9Histogram3newNtB6_22AggregationTemporalityINtNtCshFLakfGc1jx_5alloc3vec3VecNtB6_18HistogramDataPointEEBe_
FN:89,_RINvMsV_NtNtNtNtCs2Zzx8WPYKXd_15otel_arrow_rust5proto13opentelemetry7metrics2v1NtB6_20ExponentialHistogram3newNtB6_22AggregationTemporalityINtNtCshFLakfGc1jx_5alloc3vec3VecNtB6_29ExponentialHistogramDataPointEEBe_
FN:20,_RINvMsg_NtNtNtNtCs2Zzx8WPYKXd_15otel_arrow_rust5proto13opentelemetry7metrics2v1NtB6_12ScopeMetrics3newNtNtNtBa_6common2v120InstrumentationScopeEBe_
FN:20,_RINvMsg_NtNtNtNtCs2Zzx8WPYKXd_15otel_arrow_rust5proto13opentelemetry7metrics2v1NtB6_12ScopeMetrics5buildNtNtNtBa_6common2v120InstrumentationScopeEBe_
FN:20,_RINvMsh_NtNtNtNtCs2Zzx8WPYKXd_15otel_arrow_rust5proto13opentelemetry7metrics2v1NtB6_19ScopeMetricsBuilder7metricsINtNtCshFLakfGc1jx_5alloc3vec3VecNtB6_6MetricEEBe_
FN:31,_RINvMsp_NtNtNtNtCs2Zzx8WPYKXd_15otel_arrow_rust5proto13opentelemetry7metrics2v1NtB6_6Metric11build_gaugeReNtB6_5GaugeEBe_
FN:31,_RINvMsp_NtNtNtNtCs2Zzx8WPYKXd_15otel_arrow_rust5proto13opentelemetry7metrics2v1NtB6_6Metric11new_summaryReNtB6_7SummaryEBe_
FN:31,_RINvMsp_NtNtNtNtCs2Zzx8WPYKXd_15otel_arrow_rust5proto13opentelemetry7metrics2v1NtB6_6Metric13new_histogramReNtB6_9HistogramEBe_
FN:31,_RINvMsp_NtNtNtNtCs2Zzx8WPYKXd_15otel_arrow_rust5proto13opentelemetry7metrics2v1NtB6_6Metric25new_exponential_histogramReNtB6_20ExponentialHistogramEBe_
FN:31,_RINvMsp_NtNtNtNtCs2Zzx8WPYKXd_15otel_arrow_rust5proto13opentelemetry7metrics2v1NtB6_6Metric7new_sumReNtB6_3SumEBe_
FN:31,_RINvMsp_NtNtNtNtCs2Zzx8WPYKXd_15otel_arrow_rust5proto13opentelemetry7metrics2v1NtB6_6Metric9new_gaugeReNtB6_5GaugeEBe_
FN:31,_RINvMsq_NtNtNtNtCs2Zzx8WPYKXd_15otel_arrow_rust5proto13opentelemetry7metrics2v1NtB6_13MetricBuilder11descriptionNtNtCshFLakfGc1jx_5alloc6string6StringEBe_
FN:31,_RINvMsq_NtNtNtNtCs2Zzx8WPYKXd_15otel_arrow_rust5proto13opentelemetry7metrics2v1NtB6_13MetricBuilder4unitReEBe_
FN:62,_RINvMsy_NtNtNtNtCs2Zzx8WPYKXd_15otel_arrow_rust5proto13opentelemetry7metrics2v1NtB6_5Gauge3newINtNtCshFLakfGc1jx_5alloc3vec3VecNtB6_15NumberDataPointEEBe_
FN:159,_RINvNvXNvXs1B_NtNtNtNtCs2Zzx8WPYKXd_15otel_arrow_rust5proto13opentelemetry7metrics2v1NtBc_29ExponentialHistogramDataPointNtNtCs8sCtDi7t2F4_4core3fmt5Debug3fmtNtB5_13ScalarWrapperB1V_3fmt5InnerRdEBk_
FN:132,_RINvNvXNvXs1r_NtNtNtNtCs2Zzx8WPYKXd_15otel_arrow_rust5proto13opentelemetry7metrics2v1NtBc_18HistogramDataPointNtNtCs8sCtDi7t2F4_4core3fmt5Debug3fmtNtB5_13ScalarWrapperB1K_3fmt5InnerRdEBk_
FN:159,_RINvNvXs0_NvXs1B_NtNtNtNtCs2Zzx8WPYKXd_15otel_arrow_rust5proto13opentelemetry7metrics2v1NtBf_29ExponentialHistogramDataPointNtNtCs8sCtDi7t2F4_4core3fmt5Debug3fmtNtB8_s0_13ScalarWrapperB1Y_3fmt5InnerRdEBn_
FN:132,_RINvNvXs0_NvXs1r_NtNtNtNtCs2Zzx8WPYKXd_15otel_arrow_rust5proto13opentelemetry7metrics2v1NtBf_18HistogramDataPointNtNtCs8sCtDi7t2F4_4core3fmt5Debug3fmtNtB8_s0_13ScalarWrapperB1N_3fmt5InnerRdEBn_
FN:159,_RINvNvXs1B_NtNtNtNtCs2Zzx8WPYKXd_15otel_arrow_rust5proto13opentelemetry7metrics2v1NtB9_29ExponentialHistogramDataPointNtNtCs8sCtDi7t2F4_4core3fmt5Debug3fmt13ScalarWrapperRyEBh_
FN:159,_RINvNvXs1B_NtNtNtNtCs2Zzx8WPYKXd_15otel_arrow_rust5proto13opentelemetry7metrics2v1NtB9_29ExponentialHistogramDataPointNtNtCs8sCtDi7t2F4_4core3fmt5Debug3fmts0_13ScalarWrapperRyEBh_
FN:159,_RINvNvXs1B_NtNtNtNtCs2Zzx8WPYKXd_15otel_arrow_rust5proto13opentelemetry7metrics2v1NtB9_29ExponentialHistogramDataPointNtNtCs8sCtDi7t2F4_4core3fmt5Debug3fmts1_13ScalarWrapperRlEBh_
FN:159,_RINvNvXs1B_NtNtNtNtCs2Zzx8WPYKXd_15otel_arrow_rust5proto13opentelemetry7metrics2v1NtB9_29ExponentialHistogramDataPointNtNtCs8sCtDi7t2F4_4core3fmt5Debug3fmts2_13ScalarWrapperRyEBh_
FN:159,_RINvNvXs1B_NtNtNtNtCs2Zzx8WPYKXd_15otel_arrow_rust5proto13opentelemetry7metrics2v1NtB9_29ExponentialHistogramDataPointNtNtCs8sCtDi7t2F4_4core3fmt5Debug3fmts3_13ScalarWrapperRmEBh_
FN:159,_RINvNvXs1B_NtNtNtNtCs2Zzx8WPYKXd_15otel_arrow_rust5proto13opentelemetry7metrics2v1NtB9_29ExponentialHistogramDataPointNtNtCs8sCtDi7t2F4_4core3fmt5Debug3fmts4_13ScalarWrapperRdEBh_
FN:159,_RINvNvXs1B_NtNtNtNtCs2Zzx8WPYKXd_15otel_arrow_rust5proto13opentelemetry7metrics2v1NtB9_29ExponentialHistogramDataPointNtNtCs8sCtDi7t2F4_4core3fmt5Debug3fmts_13ScalarWrapperRyEBh_
FN:204,_RINvNvXs1L_NtNtNtNtCs2Zzx8WPYKXd_15otel_arrow_rust5proto13opentelemetry7metrics2v1NtB9_16SummaryDataPointNtNtCs8sCtDi7t2F4_4core3fmt5Debug3fmt13ScalarWrapperRyEBh_
FN:204,_RINvNvXs1L_NtNtNtNtCs2Zzx8WPYKXd_15otel_arrow_rust5proto13opentelemetry7metrics2v1NtB9_16SummaryDataPointNtNtCs8sCtDi7t2F4_4core3fmt5Debug3fmts0_13ScalarWrapperRyEBh_
FN:204,_RINvNvXs1L_NtNtNtNtCs2Zzx8WPYKXd_15otel_arrow_rust5proto13opentelemetry7metrics2v1NtB9_16SummaryDataPointNtNtCs8sCtDi7t2F4_4core3fmt5Debug3fmts1_13ScalarWrapperRdEBh_
FN:204,_RINvNvXs1L_NtNtNtNtCs2Zzx8WPYKXd_15otel_arrow_rust5proto13opentelemetry7metrics2v1NtB9_16SummaryDataPointNtNtCs8sCtDi7t2F4_4core3fmt5Debug3fmts2_13ScalarWrapperRmEBh_
FN:204,_RINvNvXs1L_NtNtNtNtCs2Zzx8WPYKXd_15otel_arrow_rust5proto13opentelemetry7metrics2v1NtB9_16SummaryDataPointNtNtCs8sCtDi7t2F4_4core3fmt5Debug3fmts_13ScalarWrapperRyEBh_
FN:235,_RINvNvXs1U_NtNtNtNtCs2Zzx8WPYKXd_15otel_arrow_rust5proto13opentelemetry7metrics2v1NtB9_8ExemplarNtNtCs8sCtDi7t2F4_4core3fmt5Debug3fmt13ScalarWrapperRyEBh_
FN:235,_RINvNvXs1U_NtNtNtNtCs2Zzx8WPYKXd_15otel_arrow_rust5proto13opentelemetry7metrics2v1NtB9_8ExemplarNtNtCs8sCtDi7t2F4_4core3fmt5Debug3fmts0_13ScalarWrapperRINtNtCshFLakfGc1jx_5alloc3vec3VechEEBh_
FN:235,_RINvNvXs1U_NtNtNtNtCs2Zzx8WPYKXd_15otel_arrow_rust5proto13opentelemetry7metrics2v1NtB9_8ExemplarNtNtCs8sCtDi7t2F4_4core3fmt5Debug3fmts_13ScalarWrapperRINtNtCshFLakfGc1jx_5alloc3vec3VechEEBh_
FN:132,_RINvNvXs1_NvXs1r_NtNtNtNtCs2Zzx8WPYKXd_15otel_arrow_rust5proto13opentelemetry7metrics2v1NtBf_18HistogramDataPointNtNtCs8sCtDi7t2F4_4core3fmt5Debug3fmtNtB8_s1_13ScalarWrapperB1N_3fmt5InnerRdEBn_
FN:105,_RINvNvXs1i_NtNtNtNtCs2Zzx8WPYKXd_15otel_arrow_rust5proto13opentelemetry7metrics2v1NtB9_15NumberDataPointNtNtCs8sCtDi7t2F4_4core3fmt5Debug3fmt13ScalarWrapperRyEBh_
FN:105,_RINvNvXs1i_NtNtNtNtCs2Zzx8WPYKXd_15otel_arrow_rust5proto13opentelemetry7metrics2v1NtB9_15NumberDataPointNtNtCs8sCtDi7t2F4_4core3fmt5Debug3fmts0_13ScalarWrapperRmEBh_
FN:105,_RINvNvXs1i_NtNtNtNtCs2Zzx8WPYKXd_15otel_arrow_rust5proto13opentelemetry7metrics2v1NtB9_15NumberDataPointNtNtCs8sCtDi7t2F4_4core3fmt5Debug3fmts_13ScalarWrapperRyEBh_
FN:132,_RINvNvXs1r_NtNtNtNtCs2Zzx8WPYKXd_15otel_arrow_rust5proto13opentelemetry7metrics2v1NtB9_18HistogramDataPointNtNtCs8sCtDi7t2F4_4core3fmt5Debug3fmt13ScalarWrapperRyEBh_
FN:132,_RINvNvXs1r_NtNtNtNtCs2Zzx8WPYKXd_15otel_arrow_rust5proto13opentelemetry7metrics2v1NtB9_18HistogramDataPointNtNtCs8sCtDi7t2F4_4core3fmt5Debug3fmts0_13ScalarWrapperRyEBh_
FN:132,_RINvNvXs1r_NtNtNtNtCs2Zzx8WPYKXd_15otel_arrow_rust5proto13opentelemetry7metrics2v1NtB9_18HistogramDataPointNtNtCs8sCtDi7t2F4_4core3fmt5Debug3fmts1_13ScalarWrapperRmEBh_
FN:132,_RINvNvXs1r_NtNtNtNtCs2Zzx8WPYKXd_15otel_arrow_rust5proto13opentelemetry7metrics2v1NtB9_18HistogramDataPointNtNtCs8sCtDi7t2F4_4core3fmt5Debug3fmts_13ScalarWrapperRyEBh_
FN:132,_RINvNvXs2_NvXs1r_NtNtNtNtCs2Zzx8WPYKXd_15otel_arrow_rust5proto13opentelemetry7metrics2v1NtBf_18HistogramDataPointNtNtCs8sCtDi7t2F4_4core3fmt5Debug3fmtNtB8_s2_13ScalarWrapperB1N_3fmt5InnerRdEBn_
FN:69,_RINvNvXsL_NtNtNtNtCs2Zzx8WPYKXd_15otel_arrow_rust5proto13opentelemetry7metrics2v1NtB8_3SumNtNtCs8sCtDi7t2F4_4core3fmt5Debug3fmt13ScalarWrapperRbEBg_
FN:159,_RINvNvXs_NvXs1B_NtNtNtNtCs2Zzx8WPYKXd_15otel_arrow_rust5proto13opentelemetry7metrics2v1NtBe_29ExponentialHistogramDataPointNtNtCs8sCtDi7t2F4_4core3fmt5Debug3fmtNtB7_s_13ScalarWrapperB1X_3fmt5InnerRdEBm_
FN:132,_RINvNvXs_NvXs1r_NtNtNtNtCs2Zzx8WPYKXd_15otel_arrow_rust5proto13opentelemetry7metrics2v1NtBe_18HistogramDataPointNtNtCs8sCtDi7t2F4_4core3fmt5Debug3fmtNtB7_s_13ScalarWrapperB1M_3fmt5InnerRyEBm_
FN:9,_RINvNvXsf_NtNtNtNtCs2Zzx8WPYKXd_15otel_arrow_rust5proto13opentelemetry7metrics2v1NtB8_15ResourceMetricsNtNtCs8sCtDi7t2F4_4core3fmt5Debug3fmt13ScalarWrapperRNtNtCshFLakfGc1jx_5alloc6string6StringEBg_
FN:20,_RINvNvXso_NtNtNtNtCs2Zzx8WPYKXd_15otel_arrow_rust5proto13opentelemetry7metrics2v1NtB8_12ScopeMetricsNtNtCs8sCtDi7t2F4_4core3fmt5Debug3fmt13ScalarWrapperRNtNtCshFLakfGc1jx_5alloc6string6StringEBg_
FN:31,_RINvNvXsx_NtNtNtNtCs2Zzx8WPYKXd_15otel_arrow_rust5proto13opentelemetry7metrics2v1NtB8_6MetricNtNtCs8sCtDi7t2F4_4core3fmt5Debug3fmt13ScalarWrapperRNtNtCshFLakfGc1jx_5alloc6string6StringEBg_
FN:31,_RINvNvXsx_NtNtNtNtCs2Zzx8WPYKXd_15otel_arrow_rust5proto13opentelemetry7metrics2v1NtB8_6MetricNtNtCs8sCtDi7t2F4_4core3fmt5Debug3fmts0_13ScalarWrapperRNtNtCshFLakfGc1jx_5alloc6string6StringEBg_
FN:31,_RINvNvXsx_NtNtNtNtCs2Zzx8WPYKXd_15otel_arrow_rust5proto13opentelemetry7metrics2v1NtB8_6MetricNtNtCs8sCtDi7t2F4_4core3fmt5Debug3fmts_13ScalarWrapperRNtNtCshFLakfGc1jx_5alloc6string6StringEBg_
FN:98,_RNCINvXs17_NtNtNtNtCs2Zzx8WPYKXd_15otel_arrow_rust5proto13opentelemetry7metrics2v1NtB9_7SummaryNtNtCs9ugllKyEvyV_5prost7message7Message11merge_fieldQQNtNtNtCs87Lp0jQnWEh_5tonic5codec6buffer9DecodeBufE0Bh_
FN:204,_RNCINvXs1J_NtNtNtNtCs2Zzx8WPYKXd_15otel_arrow_rust5proto13opentelemetry7metrics2v1NtB9_16SummaryDataPointNtNtCs9ugllKyEvyV_5prost7message7Message11merge_fieldQQNtNtNtCs87Lp0jQnWEh_5tonic5codec6buffer9DecodeBufE0Bh_
FN:204,_RNCINvXs1J_NtNtNtNtCs2Zzx8WPYKXd_15otel_arrow_rust5proto13opentelemetry7metrics2v1NtB9_16SummaryDataPointNtNtCs9ugllKyEvyV_5prost7message7Message11merge_fieldQQNtNtNtCs87Lp0jQnWEh_5tonic5codec6buffer9DecodeBufEs0_0Bh_
FN:204,_RNCINvXs1J_NtNtNtNtCs2Zzx8WPYKXd_15otel_arrow_rust5proto13opentelemetry7metrics2v1NtB9_16SummaryDataPointNtNtCs9ugllKyEvyV_5prost7message7Message11merge_fieldQQNtNtNtCs87Lp0jQnWEh_5tonic5codec6buffer9DecodeBufEs1_0Bh_
FN:204,_RNCINvXs1J_NtNtNtNtCs2Zzx8WPYKXd_15otel_arrow_rust5proto13opentelemetry7metrics2v1NtB9_16SummaryDataPointNtNtCs9ugllKyEvyV_5prost7message7Message11merge_fieldQQNtNtNtCs87Lp0jQnWEh_5tonic5codec6buffer9DecodeBufEs2_0Bh_
FN:204,_RNCINvXs1J_NtNtNtNtCs2Zzx8WPYKXd_15otel_arrow_rust5proto13opentelemetry7metrics2v1NtB9_16SummaryDataPointNtNtCs9ugllKyEvyV_5prost7message7Message11merge_fieldQQNtNtNtCs87Lp0jQnWEh_5tonic5codec6buffer9DecodeBufEs3_0Bh_
FN:204,_RNCINvXs1J_NtNtNtNtCs2Zzx8WPYKXd_15otel_arrow_rust5proto13opentelemetry7metrics2v1NtB9_16SummaryDataPointNtNtCs9ugllKyEvyV_5prost7message7Message11merge_fieldQQNtNtNtCs87Lp0jQnWEh_5tonic5codec6buffer9DecodeBufEs4_0Bh_
FN:204,_RNCINvXs1J_NtNtNtNtCs2Zzx8WPYKXd_15otel_arrow_rust5proto13opentelemetry7metrics2v1NtB9_16SummaryDataPointNtNtCs9ugllKyEvyV_5prost7message7Message11merge_fieldQQNtNtNtCs87Lp0jQnWEh_5tonic5codec6buffer9DecodeBufEs_0Bh_
FN:235,_RNCINvXs1S_NtNtNtNtCs2Zzx8WPYKXd_15otel_arrow_rust5proto13opentelemetry7metrics2v1NtB9_8ExemplarNtNtCs9ugllKyEvyV_5prost7message7Message11merge_fieldQQNtNtNtCs87Lp0jQnWEh_5tonic5codec6buffer9DecodeBufE0Bh_
FN:235,_RNCINvXs1S_NtNtNtNtCs2Zzx8WPYKXd_15otel_arrow_rust5proto13opentelemetry7metrics2v1NtB9_8ExemplarNtNtCs9ugllKyEvyV_5prost7message7Message11merge_fieldQQNtNtNtCs87Lp0jQnWEh_5tonic5codec6buffer9DecodeBufEs0_0Bh_
FN:235,_RNCINvXs1S_NtNtNtNtCs2Zzx8WPYKXd_15otel_arrow_rust5proto13opentelemetry7metrics2v1NtB9_8ExemplarNtNtCs9ugllKyEvyV_5prost7message7Message11merge_fieldQQNtNtNtCs87Lp0jQnWEh_5tonic5codec6buffer9DecodeBufEs1_0Bh_
FN:235,_RNCINvXs1S_NtNtNtNtCs2Zzx8WPYKXd_15otel_arrow_rust5proto13opentelemetry7metrics2v1NtB9_8ExemplarNtNtCs9ugllKyEvyV_5prost7message7Message11merge_fieldQQNtNtNtCs87Lp0jQnWEh_5tonic5codec6buffer9DecodeBufEs2_0Bh_
FN:235,_RNCINvXs1S_NtNtNtNtCs2Zzx8WPYKXd_15otel_arrow_rust5proto13opentelemetry7metrics2v1NtB9_8ExemplarNtNtCs9ugllKyEvyV_5prost7message7Message11merge_fieldQQNtNtNtCs87Lp0jQnWEh_5tonic5codec6buffer9DecodeBufEs_0Bh_
FN:105,_RNCINvXs1g_NtNtNtNtCs2Zzx8WPYKXd_15otel_arrow_rust5proto13opentelemetry7metrics2v1NtB9_15NumberDataPointNtNtCs9ugllKyEvyV_5prost7message7Message11merge_fieldQQNtNtNtCs87Lp0jQnWEh_5tonic5codec6buffer9DecodeBufE0Bh_
FN:105,_RNCINvXs1g_NtNtNtNtCs2Zzx8WPYKXd_15otel_arrow_rust5proto13opentelemetry7metrics2v1NtB9_15NumberDataPointNtNtCs9ugllKyEvyV_5prost7message7Message11merge_fieldQQNtNtNtCs87Lp0jQnWEh_5tonic5codec6buffer9DecodeBufEs0_0Bh_
FN:105,_RNCINvXs1g_NtNtNtNtCs2Zzx8WPYKXd_15otel_arrow_rust5proto13opentelemetry7metrics2v1NtB9_15NumberDataPointNtNtCs9ugllKyEvyV_5prost7message7Message11merge_fieldQQNtNtNtCs87Lp0jQnWEh_5tonic5codec6buffer9DecodeBufEs1_0Bh_
FN:105,_RNCINvXs1g_NtNtNtNtCs2Zzx8WPYKXd_15otel_arrow_rust5proto13opentelemetry7metrics2v1NtB9_15NumberDataPointNtNtCs9ugllKyEvyV_5prost7message7Message11merge_fieldQQNtNtNtCs87Lp0jQnWEh_5tonic5codec6buffer9DecodeBufEs2_0Bh_
FN:105,_RNCINvXs1g_NtNtNtNtCs2Zzx8WPYKXd_15otel_arrow_rust5proto13opentelemetry7metrics2v1NtB9_15NumberDataPointNtNtCs9ugllKyEvyV_5prost7message7Message11merge_fieldQQNtNtNtCs87Lp0jQnWEh_5tonic5codec6buffer9DecodeBufEs3_0Bh_
FN:105,_RNCINvXs1g_NtNtNtNtCs2Zzx8WPYKXd_15otel_arrow_rust5proto13opentelemetry7metrics2v1NtB9_15NumberDataPointNtNtCs9ugllKyEvyV_5prost7message7Message11merge_fieldQQNtNtNtCs87Lp0jQnWEh_5tonic5codec6buffer9DecodeBufEs_0Bh_
FN:132,_RNCINvXs1p_NtNtNtNtCs2Zzx8WPYKXd_15otel_arrow_rust5proto13opentelemetry7metrics2v1NtB9_18HistogramDataPointNtNtCs9ugllKyEvyV_5prost7message7Message11merge_fieldQQNtNtNtCs87Lp0jQnWEh_5tonic5codec6buffer9DecodeBufE0Bh_
FN:132,_RNCINvXs1p_NtNtNtNtCs2Zzx8WPYKXd_15otel_arrow_rust5proto13opentelemetry7metrics2v1NtB9_18HistogramDataPointNtNtCs9ugllKyEvyV_5prost7message7Message11merge_fieldQQNtNtNtCs87Lp0jQnWEh_5tonic5codec6buffer9DecodeBufEs0_0Bh_
FN:132,_RNCINvXs1p_NtNtNtNtCs2Zzx8WPYKXd_15otel_arrow_rust5proto13opentelemetry7metrics2v1NtB9_18HistogramDataPointNtNtCs9ugllKyEvyV_5prost7message7Message11merge_fieldQQNtNtNtCs87Lp0jQnWEh_5tonic5codec6buffer9DecodeBufEs1_0Bh_
FN:132,_RNCINvXs1p_NtNtNtNtCs2Zzx8WPYKXd_15otel_arrow_rust5proto13opentelemetry7metrics2v1NtB9_18HistogramDataPointNtNtCs9ugllKyEvyV_5prost7message7Message11merge_fieldQQNtNtNtCs87Lp0jQnWEh_5tonic5codec6buffer9DecodeBufEs2_0Bh_
FN:132,_RNCINvXs1p_NtNtNtNtCs2Zzx8WPYKXd_15otel_arrow_rust5proto13opentelemetry7metrics2v1NtB9_18HistogramDataPointNtNtCs9ugllKyEvyV_5prost7message7Message11merge_fieldQQNtNtNtCs87Lp0jQnWEh_5tonic5codec6buffer9DecodeBufEs3_0Bh_
FN:132,_RNCINvXs1p_NtNtNtNtCs2Zzx8WPYKXd_15otel_arrow_rust5proto13opentelemetry7metrics2v1NtB9_18HistogramDataPointNtNtCs9ugllKyEvyV_5prost7message7Message11merge_fieldQQNtNtNtCs87Lp0jQnWEh_5tonic5codec6buffer9DecodeBufEs4_0Bh_
FN:132,_RNCINvXs1p_NtNtNtNtCs2Zzx8WPYKXd_15otel_arrow_rust5proto13opentelemetry7metrics2v1NtB9_18HistogramDataPointNtNtCs9ugllKyEvyV_5prost7message7Message11merge_fieldQQNtNtNtCs87Lp0jQnWEh_5tonic5codec6buffer9DecodeBufEs5_0Bh_
FN:132,_RNCINvXs1p_NtNtNtNtCs2Zzx8WPYKXd_15otel_arrow_rust5proto13opentelemetry7metrics2v1NtB9_18HistogramDataPointNtNtCs9ugllKyEvyV_5prost7message7Message11merge_fieldQQNtNtNtCs87Lp0jQnWEh_5tonic5codec6buffer9DecodeBufEs6_0Bh_
FN:132,_RNCINvXs1p_NtNtNtNtCs2Zzx8WPYKXd_15otel_arrow_rust5proto13opentelemetry7metrics2v1NtB9_18HistogramDataPointNtNtCs9ugllKyEvyV_5prost7message7Message11merge_fieldQQNtNtNtCs87Lp0jQnWEh_5tonic5codec6buffer9DecodeBufEs7_0Bh_
FN:132,_RNCINvXs1p_NtNtNtNtCs2Zzx8WPYKXd_15otel_arrow_rust5proto13opentelemetry7metrics2v1NtB9_18HistogramDataPointNtNtCs9ugllKyEvyV_5prost7message7Message11merge_fieldQQNtNtNtCs87Lp0jQnWEh_5tonic5codec6buffer9DecodeBufEs8_0Bh_
FN:132,_RNCINvXs1p_NtNtNtNtCs2Zzx8WPYKXd_15otel_arrow_rust5proto13opentelemetry7metrics2v1NtB9_18HistogramDataPointNtNtCs9ugllKyEvyV_5prost7message7Message11merge_fieldQQNtNtNtCs87Lp0jQnWEh_5tonic5codec6buffer9DecodeBufEs_0Bh_
FN:159,_RNCINvXs1z_NtNtNtNtCs2Zzx8WPYKXd_15otel_arrow_rust5proto13opentelemetry7metrics2v1NtB9_29ExponentialHistogramDataPointNtNtCs9ugllKyEvyV_5prost7message7Message11merge_fieldQQNtNtNtCs87Lp0jQnWEh_5tonic5codec6buffer9DecodeBufE0Bh_
FN:159,_RNCINvXs1z_NtNtNtNtCs2Zzx8WPYKXd_15otel_arrow_rust5proto13opentelemetry7metrics2v1NtB9_29ExponentialHistogramDataPointNtNtCs9ugllKyEvyV_5prost7message7Message11merge_fieldQQNtNtNtCs87Lp0jQnWEh_5tonic5codec6buffer9DecodeBufEs0_0Bh_
FN:159,_RNCINvXs1z_NtNtNtNtCs2Zzx8WPYKXd_15otel_arrow_rust5proto13opentelemetry7metrics2v1NtB9_29ExponentialHistogramDataPointNtNtCs9ugllKyEvyV_5prost7message7Message11merge_fieldQQNtNtNtCs87Lp0jQnWEh_5tonic5codec6buffer9DecodeBufEs1_0Bh_
FN:159,_RNCINvXs1z_NtNtNtNtCs2Zzx8WPYKXd_15otel_arrow_rust5proto13opentelemetry7metrics2v1NtB9_29ExponentialHistogramDataPointNtNtCs9ugllKyEvyV_5prost7message7Message11merge_fieldQQNtNtNtCs87Lp0jQnWEh_5tonic5codec6buffer9DecodeBufEs2_0Bh_
FN:159,_RNCINvXs1z_NtNtNtNtCs2Zzx8WPYKXd_15otel_arrow_rust5proto13opentelemetry7metrics2v1NtB9_29ExponentialHistogramDataPointNtNtCs9ugllKyEvyV_5prost7message7Message11merge_fieldQQNtNtNtCs87Lp0jQnWEh_5tonic5codec6buffer9DecodeBufEs3_0Bh_
FN:159,_RNCINvXs1z_NtNtNtNtCs2Zzx8WPYKXd_15otel_arrow_rust5proto13opentelemetry7metrics2v1NtB9_29ExponentialHistogramDataPointNtNtCs9ugllKyEvyV_5prost7message7Message11merge_fieldQQNtNtNtCs87Lp0jQnWEh_5tonic5codec6buffer9DecodeBufEs4_0Bh_
FN:159,_RNCINvXs1z_NtNtNtNtCs2Zzx8WPYKXd_15otel_arrow_rust5proto13opentelemetry7metrics2v1NtB9_29ExponentialHistogramDataPointNtNtCs9ugllKyEvyV_5prost7message7Message11merge_fieldQQNtNtNtCs87Lp0jQnWEh_5tonic5codec6buffer9DecodeBufEs5_0Bh_
FN:159,_RNCINvXs1z_NtNtNtNtCs2Zzx8WPYKXd_15otel_arrow_rust5proto13opentelemetry7metrics2v1NtB9_29ExponentialHistogramDataPointNtNtCs9ugllKyEvyV_5prost7message7Message11merge_fieldQQNtNtNtCs87Lp0jQnWEh_5tonic5codec6buffer9DecodeBufEs6_0Bh_
FN:159,_RNCINvXs1z_NtNtNtNtCs2Zzx8WPYKXd_15otel_arrow_rust5proto13opentelemetry7metrics2v1NtB9_29ExponentialHistogramDataPointNtNtCs9ugllKyEvyV_5prost7message7Message11merge_fieldQQNtNtNtCs87Lp0jQnWEh_5tonic5codec6buffer9DecodeBufEs7_0Bh_
FN:159,_RNCINvXs1z_NtNtNtNtCs2Zzx8WPYKXd_15otel_arrow_rust5proto13opentelemetry7metrics2v1NtB9_29ExponentialHistogramDataPointNtNtCs9ugllKyEvyV_5prost7message7Message11merge_fieldQQNtNtNtCs87Lp0jQnWEh_5tonic5codec6buffer9DecodeBufEs8_0Bh_
FN:159,_RNCINvXs1z_NtNtNtNtCs2Zzx8WPYKXd_15otel_arrow_rust5proto13opentelemetry7metrics2v1NtB9_29ExponentialHistogramDataPointNtNtCs9ugllKyEvyV_5prost7message7Message11merge_fieldQQNtNtNtCs87Lp0jQnWEh_5tonic5codec6buffer9DecodeBufEs9_0Bh_
FN:159,_RNCINvXs1z_NtNtNtNtCs2Zzx8WPYKXd_15otel_arrow_rust5proto13opentelemetry7metrics2v1NtB9_29ExponentialHistogramDataPointNtNtCs9ugllKyEvyV_5prost7message7Message11merge_fieldQQNtNtNtCs87Lp0jQnWEh_5tonic5codec6buffer9DecodeBufEs_0Bh_
FN:159,_RNCINvXs1z_NtNtNtNtCs2Zzx8WPYKXd_15otel_arrow_rust5proto13opentelemetry7metrics2v1NtB9_29ExponentialHistogramDataPointNtNtCs9ugllKyEvyV_5prost7message7Message11merge_fieldQQNtNtNtCs87Lp0jQnWEh_5tonic5codec6buffer9DecodeBufEsa_0Bh_
FN:159,_RNCINvXs1z_NtNtNtNtCs2Zzx8WPYKXd_15otel_arrow_rust5proto13opentelemetry7metrics2v1NtB9_29ExponentialHistogramDataPointNtNtCs9ugllKyEvyV_5prost7message7Message11merge_fieldQQNtNtNtCs87Lp0jQnWEh_5tonic5codec6buffer9DecodeBufEsb_0Bh_
FN:62,_RNCINvXsC_NtNtNtNtCs2Zzx8WPYKXd_15otel_arrow_rust5proto13opentelemetry7metrics2v1NtB8_5GaugeNtNtCs9ugllKyEvyV_5prost7message7Message11merge_fieldQQNtNtNtCs87Lp0jQnWEh_5tonic5codec6buffer9DecodeBufE0Bg_
FN:69,_RNCINvXsJ_NtNtNtNtCs2Zzx8WPYKXd_15otel_arrow_rust5proto13opentelemetry7metrics2v1NtB8_3SumNtNtCs9ugllKyEvyV_5prost7message7Message11merge_fieldQQNtNtNtCs87Lp0jQnWEh_5tonic5codec6buffer9DecodeBufE0Bg_
FN:69,_RNCINvXsJ_NtNtNtNtCs2Zzx8WPYKXd_15otel_arrow_rust5proto13opentelemetry7metrics2v1NtB8_3SumNtNtCs9ugllKyEvyV_5prost7message7Message11merge_fieldQQNtNtNtCs87Lp0jQnWEh_5tonic5codec6buffer9DecodeBufEs0_0Bg_
FN:69,_RNCINvXsJ_NtNtNtNtCs2Zzx8WPYKXd_15otel_arrow_rust5proto13opentelemetry7metrics2v1NtB8_3SumNtNtCs9ugllKyEvyV_5prost7message7Message11merge_fieldQQNtNtNtCs87Lp0jQnWEh_5tonic5codec6buffer9DecodeBufEs_0Bg_
FN:80,_RNCINvXsR_NtNtNtNtCs2Zzx8WPYKXd_15otel_arrow_rust5proto13opentelemetry7metrics2v1NtB8_9HistogramNtNtCs9ugllKyEvyV_5prost7message7Message11merge_fieldQQNtNtNtCs87Lp0jQnWEh_5tonic5codec6buffer9DecodeBufE0Bg_
FN:80,_RNCINvXsR_NtNtNtNtCs2Zzx8WPYKXd_15otel_arrow_rust5proto13opentelemetry7metrics2v1NtB8_9HistogramNtNtCs9ugllKyEvyV_5prost7message7Message11merge_fieldQQNtNtNtCs87Lp0jQnWEh_5tonic5codec6buffer9DecodeBufEs_0Bg_
FN:89,_RNCINvXsZ_NtNtNtNtCs2Zzx8WPYKXd_15otel_arrow_rust5proto13opentelemetry7metrics2v1NtB8_20ExponentialHistogramNtNtCs9ugllKyEvyV_5prost7message7Message11merge_fieldQQNtNtNtCs87Lp0jQnWEh_5tonic5codec6buffer9DecodeBufE0Bg_
FN:89,_RNCINvXsZ_NtNtNtNtCs2Zzx8WPYKXd_15otel_arrow_rust5proto13opentelemetry7metrics2v1NtB8_20ExponentialHistogramNtNtCs9ugllKyEvyV_5prost7message7Message11merge_fieldQQNtNtNtCs87Lp0jQnWEh_5tonic5codec6buffer9DecodeBufEs_0Bg_
FN:9,_RNCINvXsd_NtNtNtNtCs2Zzx8WPYKXd_15otel_arrow_rust5proto13opentelemetry7metrics2v1NtB8_15ResourceMetricsNtNtCs9ugllKyEvyV_5prost7message7Message11merge_fieldQQNtNtNtCs87Lp0jQnWEh_5tonic5codec6buffer9DecodeBufE0Bg_
FN:9,_RNCINvXsd_NtNtNtNtCs2Zzx8WPYKXd_15otel_arrow_rust5proto13opentelemetry7metrics2v1NtB8_15ResourceMetricsNtNtCs9ugllKyEvyV_5prost7message7Message11merge_fieldQQNtNtNtCs87Lp0jQnWEh_5tonic5codec6buffer9DecodeBufEs0_0Bg_
FN:9,_RNCINvXsd_NtNtNtNtCs2Zzx8WPYKXd_15otel_arrow_rust5proto13opentelemetry7metrics2v1NtB8_15ResourceMetricsNtNtCs9ugllKyEvyV_5prost7message7Message11merge_fieldQQNtNtNtCs87Lp0jQnWEh_5tonic5codec6buffer9DecodeBufEs_0Bg_
FN:20,_RNCINvXsm_NtNtNtNtCs2Zzx8WPYKXd_15otel_arrow_rust5proto13opentelemetry7metrics2v1NtB8_12ScopeMetricsNtNtCs9ugllKyEvyV_5prost7message7Message11merge_fieldQQNtNtNtCs87Lp0jQnWEh_5tonic5codec6buffer9DecodeBufE0Bg_
FN:20,_RNCINvXsm_NtNtNtNtCs2Zzx8WPYKXd_15otel_arrow_rust5proto13opentelemetry7metrics2v1NtB8_12ScopeMetricsNtNtCs9ugllKyEvyV_5prost7message7Message11merge_fieldQQNtNtNtCs87Lp0jQnWEh_5tonic5codec6buffer9DecodeBufEs0_0Bg_
FN:20,_RNCINvXsm_NtNtNtNtCs2Zzx8WPYKXd_15otel_arrow_rust5proto13opentelemetry7metrics2v1NtB8_12ScopeMetricsNtNtCs9ugllKyEvyV_5prost7message7Message11merge_fieldQQNtNtNtCs87Lp0jQnWEh_5tonic5codec6buffer9DecodeBufEs_0Bg_
FN:31,_RNCINvXsv_NtNtNtNtCs2Zzx8WPYKXd_15otel_arrow_rust5proto13opentelemetry7metrics2v1NtB8_6MetricNtNtCs9ugllKyEvyV_5prost7message7Message11merge_fieldQQNtNtNtCs87Lp0jQnWEh_5tonic5codec6buffer9DecodeBufE0Bg_
FN:31,_RNCINvXsv_NtNtNtNtCs2Zzx8WPYKXd_15otel_arrow_rust5proto13opentelemetry7metrics2v1NtB8_6MetricNtNtCs9ugllKyEvyV_5prost7message7Message11merge_fieldQQNtNtNtCs87Lp0jQnWEh_5tonic5codec6buffer9DecodeBufEs0_0Bg_
FN:31,_RNCINvXsv_NtNtNtNtCs2Zzx8WPYKXd_15otel_arrow_rust5proto13opentelemetry7metrics2v1NtB8_6MetricNtNtCs9ugllKyEvyV_5prost7message7Message11merge_fieldQQNtNtNtCs87Lp0jQnWEh_5tonic5codec6buffer9DecodeBufEs1_0Bg_
FN:31,_RNCINvXsv_NtNtNtNtCs2Zzx8WPYKXd_15otel_arrow_rust5proto13opentelemetry7metrics2v1NtB8_6MetricNtNtCs9ugllKyEvyV_5prost7message7Message11merge_fieldQQNtNtNtCs87Lp0jQnWEh_5tonic5codec6buffer9DecodeBufEs2_0Bg_
FN:31,_RNCINvXsv_NtNtNtNtCs2Zzx8WPYKXd_15otel_arrow_rust5proto13opentelemetry7metrics2v1NtB8_6MetricNtNtCs9ugllKyEvyV_5prost7message7Message11merge_fieldQQNtNtNtCs87Lp0jQnWEh_5tonic5codec6buffer9DecodeBufEs_0Bg_
FN:132,_RNCNvXs1p_NtNtNtNtCs2Zzx8WPYKXd_15otel_arrow_rust5proto13opentelemetry7metrics2v1NtB8_18HistogramDataPointNtNtCs9ugllKyEvyV_5prost7message7Message11encoded_len0Bg_
FN:132,_RNCNvXs1p_NtNtNtNtCs2Zzx8WPYKXd_15otel_arrow_rust5proto13opentelemetry7metrics2v1NtB8_18HistogramDataPointNtNtCs9ugllKyEvyV_5prost7message7Message11encoded_lens0_0Bg_
FN:132,_RNCNvXs1p_NtNtNtNtCs2Zzx8WPYKXd_15otel_arrow_rust5proto13opentelemetry7metrics2v1NtB8_18HistogramDataPointNtNtCs9ugllKyEvyV_5prost7message7Message11encoded_lens_0Bg_
FN:159,_RNCNvXs1z_NtNtNtNtCs2Zzx8WPYKXd_15otel_arrow_rust5proto13opentelemetry7metrics2v1NtB8_29ExponentialHistogramDataPointNtNtCs9ugllKyEvyV_5prost7message7Message11encoded_len0Bg_
FN:159,_RNCNvXs1z_NtNtNtNtCs2Zzx8WPYKXd_15otel_arrow_rust5proto13opentelemetry7metrics2v1NtB8_29ExponentialHistogramDataPointNtNtCs9ugllKyEvyV_5prost7message7Message11encoded_lens0_0Bg_
FN:159,_RNCNvXs1z_NtNtNtNtCs2Zzx8WPYKXd_15otel_arrow_rust5proto13opentelemetry7metrics2v1NtB8_29ExponentialHistogramDataPointNtNtCs9ugllKyEvyV_5prost7message7Message11encoded_lens1_0Bg_
FN:159,_RNCNvXs1z_NtNtNtNtCs2Zzx8WPYKXd_15otel_arrow_rust5proto13opentelemetry7metrics2v1NtB8_29ExponentialHistogramDataPointNtNtCs9ugllKyEvyV_5prost7message7Message11encoded_lens2_0Bg_
FN:159,_RNCNvXs1z_NtNtNtNtCs2Zzx8WPYKXd_15otel_arrow_rust5proto13opentelemetry7metrics2v1NtB8_29ExponentialHistogramDataPointNtNtCs9ugllKyEvyV_5prost7message7Message11encoded_lens_0Bg_
FN:9,_RNCNvXsd_NtNtNtNtCs2Zzx8WPYKXd_15otel_arrow_rust5proto13opentelemetry7metrics2v1NtB7_15ResourceMetricsNtNtCs9ugllKyEvyV_5prost7message7Message11encoded_len0Bf_
FN:20,_RNCNvXsm_NtNtNtNtCs2Zzx8WPYKXd_15otel_arrow_rust5proto13opentelemetry7metrics2v1NtB7_12ScopeMetricsNtNtCs9ugllKyEvyV_5prost7message7Message11encoded_len0Bf_
FN:252,_RINvNvXs3_NtNtNtNtNtCs2Zzx8WPYKXd_15otel_arrow_rust5proto13opentelemetry7metrics2v18exemplarNtB8_5ValueNtNtCs8sCtDi7t2F4_4core3fmt5Debug3fmt13ScalarWrapperRdEBi_
FN:252,_RINvNvXs3_NtNtNtNtNtCs2Zzx8WPYKXd_15otel_arrow_rust5proto13opentelemetry7metrics2v18exemplarNtB8_5ValueNtNtCs8sCtDi7t2F4_4core3fmt5Debug3fmts_13ScalarWrapperRxEBi_
FN:252,_RNCINvMs2_NtNtNtNtNtCs2Zzx8WPYKXd_15otel_arrow_rust5proto13opentelemetry7metrics2v18exemplarNtB8_5Value5mergeQQNtNtNtCs87Lp0jQnWEh_5tonic5codec6buffer9DecodeBufE0Bi_
FN:252,_RNCINvMs2_NtNtNtNtNtCs2Zzx8WPYKXd_15otel_arrow_rust5proto13opentelemetry7metrics2v18exemplarNtB8_5Value5mergeQQNtNtNtCs87Lp0jQnWEh_5tonic5codec6buffer9DecodeBufEs_0Bi_
FN:194,_RNvXs3_NtNtNtNtNtCs2Zzx8WPYKXd_15otel_arrow_rust5proto13opentelemetry7metrics2v132exponential_histogram_data_pointNtB5_7BucketsNtNtCs8sCtDi7t2F4_4core7default7Default7default
FN:194,_RINvMNtNtNtNtNtCs2Zzx8WPYKXd_15otel_arrow_rust5proto13opentelemetry7metrics2v132exponential_histogram_data_pointNtB3_7Buckets3newlINtNtCshFLakfGc1jx_5alloc3vec3VecyEEBd_
FN:194,_RINvNvXNvXs4_NtNtNtNtNtCs2Zzx8WPYKXd_15otel_arrow_rust5proto13opentelemetry7metrics2v132exponential_histogram_data_pointNtBb_7BucketsNtNtCs8sCtDi7t2F4_4core3fmt5Debug3fmtNtB5_13ScalarWrapperB27_3fmt5InnerRyEBl_
FN:194,_RINvNvXs4_NtNtNtNtNtCs2Zzx8WPYKXd_15otel_arrow_rust5proto13opentelemetry7metrics2v132exponential_histogram_data_pointNtB8_7BucketsNtNtCs8sCtDi7t2F4_4core3fmt5Debug3fmt13ScalarWrapperRlEBi_
FN:194,_RNCINvXs2_NtNtNtNtNtCs2Zzx8WPYKXd_15otel_arrow_rust5proto13opentelemetry7metrics2v132exponential_histogram_data_pointNtB8_7BucketsNtNtCs9ugllKyEvyV_5prost7message7Message11merge_fieldQQNtNtNtCs87Lp0jQnWEh_5tonic5codec6buffer9DecodeBufE0Bi_
FN:194,_RNCINvXs2_NtNtNtNtNtCs2Zzx8WPYKXd_15otel_arrow_rust5proto13opentelemetry7metrics2v132exponential_histogram_data_pointNtB8_7BucketsNtNtCs9ugllKyEvyV_5prost7message7Message11merge_fieldQQNtNtNtCs87Lp0jQnWEh_5tonic5codec6buffer9DecodeBufEs_0Bi_
FN:225,_RINvMNtNtNtNtNtCs2Zzx8WPYKXd_15otel_arrow_rust5proto13opentelemetry7metrics2v118summary_data_pointNtB3_15ValueAtQuantile3newddEBd_
FN:225,_RINvNvXs5_NtNtNtNtNtCs2Zzx8WPYKXd_15otel_arrow_rust5proto13opentelemetry7metrics2v118summary_data_pointNtB8_15ValueAtQuantileNtNtCs8sCtDi7t2F4_4core3fmt5Debug3fmt13ScalarWrapperRdEBi_
FN:225,_RINvNvXs5_NtNtNtNtNtCs2Zzx8WPYKXd_15otel_arrow_rust5proto13opentelemetry7metrics2v118summary_data_pointNtB8_15ValueAtQuantileNtNtCs8sCtDi7t2F4_4core3fmt5Debug3fmts_13ScalarWrapperRdEBi_
FN:225,_RNCINvXs3_NtNtNtNtNtCs2Zzx8WPYKXd_15otel_arrow_rust5proto13opentelemetry7metrics2v118summary_data_pointNtB8_15ValueAtQuantileNtNtCs9ugllKyEvyV_5prost7message7Message11merge_fieldQQNtNtNtCs87Lp0jQnWEh_5tonic5codec6buffer9DecodeBufE0Bi_
FN:225,_RNCINvXs3_NtNtNtNtNtCs2Zzx8WPYKXd_15otel_arrow_rust5proto13opentelemetry7metrics2v118summary_data_pointNtB8_15ValueAtQuantileNtNtCs9ugllKyEvyV_5prost7message7Message11merge_fieldQQNtNtNtCs87Lp0jQnWEh_5tonic5codec6buffer9DecodeBufEs_0Bi_
FNDA:0,_RINvMs0_NtNtNtNtCs2Zzx8WPYKXd_15otel_arrow_rust5proto13opentelemetry7metrics2v1NtB6_11MetricsData3newpEBe_
FNDA:0,_RINvMs1E_NtNtNtNtCs2Zzx8WPYKXd_15otel_arrow_rust5proto13opentelemetry7metrics2v1NtB7_23SummaryDataPointBuilder10attributespEBf_
FNDA:0,_RINvMs1E_NtNtNtNtCs2Zzx8WPYKXd_15otel_arrow_rust5proto13opentelemetry7metrics2v1NtB7_23SummaryDataPointBuilder14time_unix_nanopEBf_
FNDA:0,_RINvMs1E_NtNtNtNtCs2Zzx8WPYKXd_15otel_arrow_rust5proto13opentelemetry7metrics2v1NtB7_23SummaryDataPointBuilder15quantile_valuespEBf_
FNDA:0,_RINvMs1E_NtNtNtNtCs2Zzx8WPYKXd_15otel_arrow_rust5proto13opentelemetry7metrics2v1NtB7_23SummaryDataPointBuilder5flagspEBf_
FNDA:0,_RINvMs1M_NtNtNtNtCs2Zzx8WPYKXd_15otel_arrow_rust5proto13opentelemetry7metrics2v1NtB7_8Exemplar7new_intppEBf_
FNDA:0,_RINvMs1M_NtNtNtNtCs2Zzx8WPYKXd_15otel_arrow_rust5proto13opentelemetry7metrics2v1NtB7_8Exemplar9build_intppEBf_
FNDA:0,_RINvMs1N_NtNtNtNtCs2Zzx8WPYKXd_15otel_arrow_rust5proto13opentelemetry7metrics2v1NtB7_15ExemplarBuilder14time_unix_nanopEBf_
FNDA:0,_RINvMs1N_NtNtNtNtCs2Zzx8WPYKXd_15otel_arrow_rust5proto13opentelemetry7metrics2v1NtB7_15ExemplarBuilder19filtered_attributespEBf_
FNDA:0,_RINvMs1a_NtNtNtNtCs2Zzx8WPYKXd_15otel_arrow_rust5proto13opentelemetry7metrics2v1NtB7_15NumberDataPoint9build_intppEBf_
FNDA:0,_RINvMs1b_NtNtNtNtCs2Zzx8WPYKXd_15otel_arrow_rust5proto13opentelemetry7metrics2v1NtB7_22NumberDataPointBuilder14time_unix_nanopEBf_
FNDA:0,_RINvMs1b_NtNtNtNtCs2Zzx8WPYKXd_15otel_arrow_rust5proto13opentelemetry7metrics2v1NtB7_22NumberDataPointBuilder5flagspEBf_
FNDA:0,_RINvMs1b_NtNtNtNtCs2Zzx8WPYKXd_15otel_arrow_rust5proto13opentelemetry7metrics2v1NtB7_22NumberDataPointBuilder9exemplarspEBf_
FNDA:0,_RINvMs1k_NtNtNtNtCs2Zzx8WPYKXd_15otel_arrow_rust5proto13opentelemetry7metrics2v1NtB7_25HistogramDataPointBuilder10attributespEBf_
FNDA:0,_RINvMs1k_NtNtNtNtCs2Zzx8WPYKXd_15otel_arrow_rust5proto13opentelemetry7metrics2v1NtB7_25HistogramDataPointBuilder13bucket_countspEBf_
FNDA:0,_RINvMs1k_NtNtNtNtCs2Zzx8WPYKXd_15otel_arrow_rust5proto13opentelemetry7metrics2v1NtB7_25HistogramDataPointBuilder14time_unix_nanopEBf_
FNDA:0,_RINvMs1k_NtNtNtNtCs2Zzx8WPYKXd_15otel_arrow_rust5proto13opentelemetry7metrics2v1NtB7_25HistogramDataPointBuilder15explicit_boundspEBf_
FNDA:0,_RINvMs1k_NtNtNtNtCs2Zzx8WPYKXd_15otel_arrow_rust5proto13opentelemetry7metrics2v1NtB7_25HistogramDataPointBuilder5flagspEBf_
FNDA:0,_RINvMs1u_NtNtNtNtCs2Zzx8WPYKXd_15otel_arrow_rust5proto13opentelemetry7metrics2v1NtB7_36ExponentialHistogramDataPointBuilder10attributespEBf_
FNDA:0,_RINvMs1u_NtNtNtNtCs2Zzx8WPYKXd_15otel_arrow_rust5proto13opentelemetry7metrics2v1NtB7_36ExponentialHistogramDataPointBuilder14time_unix_nanopEBf_
FNDA:0,_RINvMs1u_NtNtNtNtCs2Zzx8WPYKXd_15otel_arrow_rust5proto13opentelemetry7metrics2v1NtB7_36ExponentialHistogramDataPointBuilder14zero_thresholdpEBf_
FNDA:0,_RINvMs1u_NtNtNtNtCs2Zzx8WPYKXd_15otel_arrow_rust5proto13opentelemetry7metrics2v1NtB7_36ExponentialHistogramDataPointBuilder3maxpEBf_
FNDA:0,_RINvMs1u_NtNtNtNtCs2Zzx8WPYKXd_15otel_arrow_rust5proto13opentelemetry7metrics2v1NtB7_36ExponentialHistogramDataPointBuilder3minpEBf_
FNDA:0,_RINvMs1u_NtNtNtNtCs2Zzx8WPYKXd_15otel_arrow_rust5proto13opentelemetry7metrics2v1NtB7_36ExponentialHistogramDataPointBuilder3sumpEBf_
FNDA:0,_RINvMs1u_NtNtNtNtCs2Zzx8WPYKXd_15otel_arrow_rust5proto13opentelemetry7metrics2v1NtB7_36ExponentialHistogramDataPointBuilder5flagspEBf_
FNDA:0,_RINvMs1u_NtNtNtNtCs2Zzx8WPYKXd_15otel_arrow_rust5proto13opentelemetry7metrics2v1NtB7_36ExponentialHistogramDataPointBuilder5scalepEBf_
FNDA:0,_RINvMs1u_NtNtNtNtCs2Zzx8WPYKXd_15otel_arrow_rust5proto13opentelemetry7metrics2v1NtB7_36ExponentialHistogramDataPointBuilder8positivepEBf_
FNDA:0,_RINvMs1u_NtNtNtNtCs2Zzx8WPYKXd_15otel_arrow_rust5proto13opentelemetry7metrics2v1NtB7_36ExponentialHistogramDataPointBuilder9exemplarspEBf_
FNDA:0,_RINvMs8_NtNtNtNtCs2Zzx8WPYKXd_15otel_arrow_rust5proto13opentelemetry7metrics2v1NtB6_22ResourceMetricsBuilder10schema_urlpEBe_
FNDA:0,_RINvMs8_NtNtNtNtCs2Zzx8WPYKXd_15otel_arrow_rust5proto13opentelemetry7metrics2v1NtB6_22ResourceMetricsBuilder8resourcepEBe_
FNDA:0,_RINvMsh_NtNtNtNtCs2Zzx8WPYKXd_15otel_arrow_rust5proto13opentelemetry7metrics2v1NtB6_19ScopeMetricsBuilder10schema_urlpEBe_
FNDA:0,_RINvMsh_NtNtNtNtCs2Zzx8WPYKXd_15otel_arrow_rust5proto13opentelemetry7metrics2v1NtB6_19ScopeMetricsBuilder5scopepEBe_
FNDA:0,_RINvMsp_NtNtNtNtCs2Zzx8WPYKXd_15otel_arrow_rust5proto13opentelemetry7metrics2v1NtB6_6Metric13build_summaryppEBe_
FNDA:0,_RINvMsp_NtNtNtNtCs2Zzx8WPYKXd_15otel_arrow_rust5proto13opentelemetry7metrics2v1NtB6_6Metric15build_histogramppEBe_
FNDA:0,_RINvMsp_NtNtNtNtCs2Zzx8WPYKXd_15otel_arrow_rust5proto13opentelemetry7metrics2v1NtB6_6Metric27build_exponential_histogramppEBe_
FNDA:0,_RINvMsp_NtNtNtNtCs2Zzx8WPYKXd_15otel_arrow_rust5proto13opentelemetry7metrics2v1NtB6_6Metric9build_sumppEBe_
FNDA:0,_RINvMsq_NtNtNtNtCs2Zzx8WPYKXd_15otel_arrow_rust5proto13opentelemetry7metrics2v1NtB6_13MetricBuilder4namepEBe_
FNDA:0,_RINvMsq_NtNtNtNtCs2Zzx8WPYKXd_15otel_arrow_rust5proto13opentelemetry7metrics2v1NtB6_13MetricBuilder8metadatapEBe_
FNDA:0,_RNCINvXs4_NtNtNtNtCs2Zzx8WPYKXd_15otel_arrow_rust5proto13opentelemetry7metrics2v1NtB8_11MetricsDataNtNtCs9ugllKyEvyV_5prost7message7Message11merge_fieldpE0Bg_
FNDA:0,_RNvMNtNtNtNtCs2Zzx8WPYKXd_15otel_arrow_rust5proto13opentelemetry7metrics2v1NtB2_22AggregationTemporality11as_str_name
FNDA:0,_RNvMNtNtNtNtCs2Zzx8WPYKXd_15otel_arrow_rust5proto13opentelemetry7metrics2v1NtB2_22AggregationTemporality13from_str_name
FNDA:0,_RNvMs12_NtNtNtNtCs2Zzx8WPYKXd_15otel_arrow_rust5proto13opentelemetry7metrics2v1NtB6_20ExponentialHistogram23aggregation_temporality
FNDA:0,_RNvMs12_NtNtNtNtCs2Zzx8WPYKXd_15otel_arrow_rust5proto13opentelemetry7metrics2v1NtB6_20ExponentialHistogram27set_aggregation_temporality
FNDA:0,_RNvMsM_NtNtNtNtCs2Zzx8WPYKXd_15otel_arrow_rust5proto13opentelemetry7metrics2v1NtB5_3Sum23aggregation_temporality
FNDA:0,_RNvMsM_NtNtNtNtCs2Zzx8WPYKXd_15otel_arrow_rust5proto13opentelemetry7metrics2v1NtB5_3Sum27set_aggregation_temporality
FNDA:0,_RNvMsU_NtNtNtNtCs2Zzx8WPYKXd_15otel_arrow_rust5proto13opentelemetry7metrics2v1NtB5_9Histogram23aggregation_temporality
FNDA:0,_RNvMsU_NtNtNtNtCs2Zzx8WPYKXd_15otel_arrow_rust5proto13opentelemetry7metrics2v1NtB5_9Histogram27set_aggregation_temporality
FNDA:0,_RNvMs_NtNtNtNtCs2Zzx8WPYKXd_15otel_arrow_rust5proto13opentelemetry7metrics2v1NtB4_14DataPointFlags11as_str_name
FNDA:0,_RNvMs_NtNtNtNtCs2Zzx8WPYKXd_15otel_arrow_rust5proto13opentelemetry7metrics2v1NtB4_14DataPointFlags13from_str_name
FNDA:0,_RNvXs17_NtNtNtNtCs2Zzx8WPYKXd_15otel_arrow_rust5proto13opentelemetry7metrics2v1NtB6_7SummaryNtNtCs9ugllKyEvyV_5prost7message7Message5clear
FNDA:0,_RNvXs1F_NtNtNtNtCs2Zzx8WPYKXd_15otel_arrow_rust5proto13opentelemetry7metrics2v1NtB6_16SummaryDataPointINtNtCs8sCtDi7t2F4_4core7convert4FromNtB6_23SummaryDataPointBuilderE4from
FNDA:0,_RNvXs1J_NtNtNtNtCs2Zzx8WPYKXd_15otel_arrow_rust5proto13opentelemetry7metrics2v1NtB6_16SummaryDataPointNtNtCs9ugllKyEvyV_5prost7message7Message5clear
FNDA:0,_RNvXs1O_NtNtNtNtCs2Zzx8WPYKXd_15otel_arrow_rust5proto13opentelemetry7metrics2v1NtB6_8ExemplarINtNtCs8sCtDi7t2F4_4core7convert4FromNtB6_15ExemplarBuilderE4from
FNDA:0,_RNvXs1S_NtNtNtNtCs2Zzx8WPYKXd_15otel_arrow_rust5proto13opentelemetry7metrics2v1NtB6_8ExemplarNtNtCs9ugllKyEvyV_5prost7message7Message5clear
FNDA:0,_RNvXs1c_NtNtNtNtCs2Zzx8WPYKXd_15otel_arrow_rust5proto13opentelemetry7metrics2v1NtB6_15NumberDataPointINtNtCs8sCtDi7t2F4_4core7convert4FromNtB6_22NumberDataPointBuilderE4from
FNDA:0,_RNvXs1g_NtNtNtNtCs2Zzx8WPYKXd_15otel_arrow_rust5proto13opentelemetry7metrics2v1NtB6_15NumberDataPointNtNtCs9ugllKyEvyV_5prost7message7Message5clear
FNDA:0,_RNvXs1l_NtNtNtNtCs2Zzx8WPYKXd_15otel_arrow_rust5proto13opentelemetry7metrics2v1NtB6_18HistogramDataPointINtNtCs8sCtDi7t2F4_4core7convert4FromNtB6_25HistogramDataPointBuilderE4from
FNDA:0,_RNvXs1p_NtNtNtNtCs2Zzx8WPYKXd_15otel_arrow_rust5proto13opentelemetry7metrics2v1NtB6_18HistogramDataPointNtNtCs9ugllKyEvyV_5prost7message7Message5clear
FNDA:0,_RNvXs1v_NtNtNtNtCs2Zzx8WPYKXd_15otel_arrow_rust5proto13opentelemetry7metrics2v1NtB6_29ExponentialHistogramDataPointINtNtCs8sCtDi7t2F4_4core7convert4FromNtB6_36ExponentialHistogramDataPointBuilderE4from
FNDA:0,_RNvXs1z_NtNtNtNtCs2Zzx8WPYKXd_15otel_arrow_rust5proto13opentelemetry7metrics2v1NtB6_29ExponentialHistogramDataPointNtNtCs9ugllKyEvyV_5prost7message7Message5clear
FNDA:0,_RNvXs26_NtNtNtNtCs2Zzx8WPYKXd_15otel_arrow_rust5proto13opentelemetry7metrics2v1lINtNtCs8sCtDi7t2F4_4core7convert4FromNtB6_22AggregationTemporalityE4from
FNDA:0,_RNvXs2_NtNtNtNtNtCs2Zzx8WPYKXd_15otel_arrow_rust5proto13opentelemetry7metrics2v132exponential_histogram_data_pointNtB5_7BucketsNtNtCs9ugllKyEvyV_5prost7message7Message5clear
FNDA:0,_RNvXs2i_NtNtNtNtCs2Zzx8WPYKXd_15otel_arrow_rust5proto13opentelemetry7metrics2v1NtB6_14DataPointFlagsNtNtCs8sCtDi7t2F4_4core7default7Default7default
FNDA:0,_RNvXs2j_NtNtNtNtCs2Zzx8WPYKXd_15otel_arrow_rust5proto13opentelemetry7metrics2v1lINtNtCs8sCtDi7t2F4_4core7convert4FromNtB6_14DataPointFlagsE4from
FNDA:0,_RNvXs3_NtNtNtNtNtCs2Zzx8WPYKXd_15otel_arrow_rust5proto13opentelemetry7metrics2v118summary_data_pointNtB5_15ValueAtQuantileNtNtCs9ugllKyEvyV_5prost7message7Message5clear
FNDA:0,_RNvXs4_NtNtNtNtCs2Zzx8WPYKXd_15otel_arrow_rust5proto13opentelemetry7metrics2v1NtB5_11MetricsDataNtNtCs9ugllKyEvyV_5prost7message7Message11encoded_lenBd_
FNDA:0,_RNvXs4_NtNtNtNtCs2Zzx8WPYKXd_15otel_arrow_rust5proto13opentelemetry7metrics2v1NtB5_11MetricsDataNtNtCs9ugllKyEvyV_5prost7message7Message5clear
FNDA:0,_RNvXs5_NtNtNtNtCs2Zzx8WPYKXd_15otel_arrow_rust5proto13opentelemetry7metrics2v1NtB5_11MetricsDataNtNtCs8sCtDi7t2F4_4core7default7Default7default
FNDA:0,_RNvXs6_NtNtNtNtCs2Zzx8WPYKXd_15otel_arrow_rust5proto13opentelemetry7metrics2v1NtB5_11MetricsDataNtNtCs8sCtDi7t2F4_4core3fmt5Debug3fmt
FNDA:0,_RNvXs9_NtNtNtNtCs2Zzx8WPYKXd_15otel_arrow_rust5proto13opentelemetry7metrics2v1NtB5_15ResourceMetricsINtNtCs8sCtDi7t2F4_4core7convert4FromNtB5_22ResourceMetricsBuilderE4from
FNDA:0,_RNvXsC_NtNtNtNtCs2Zzx8WPYKXd_15otel_arrow_rust5proto13opentelemetry7metrics2v1NtB5_5GaugeNtNtCs9ugllKyEvyV_5prost7message7Message5clear
FNDA:0,_RNvXsJ_NtNtNtNtCs2Zzx8WPYKXd_15otel_arrow_rust5proto13opentelemetry7metrics2v1NtB5_3SumNtNtCs9ugllKyEvyV_5prost7message7Message5clear
FNDA:0,_RNvXsR_NtNtNtNtCs2Zzx8WPYKXd_15otel_arrow_rust5proto13opentelemetry7metrics2v1NtB5_9HistogramNtNtCs9ugllKyEvyV_5prost7message7Message5clear
FNDA:0,_RNvXsZ_NtNtNtNtCs2Zzx8WPYKXd_15otel_arrow_rust5proto13opentelemetry7metrics2v1NtB5_20ExponentialHistogramNtNtCs9ugllKyEvyV_5prost7message7Message5clear
FNDA:0,_RNvXsd_NtNtNtNtCs2Zzx8WPYKXd_15otel_arrow_rust5proto13opentelemetry7metrics2v1NtB5_15ResourceMetricsNtNtCs9ugllKyEvyV_5prost7message7Message5clear
FNDA:0,_RNvXsi_NtNtNtNtCs2Zzx8WPYKXd_15otel_arrow_rust5proto13opentelemetry7metrics2v1NtB5_12ScopeMetricsINtNtCs8sCtDi7t2F4_4core7convert4FromNtB5_19ScopeMetricsBuilderE4from
FNDA:0,_RNvXsm_NtNtNtNtCs2Zzx8WPYKXd_15otel_arrow_rust5proto13opentelemetry7metrics2v1NtB5_12ScopeMetricsNtNtCs9ugllKyEvyV_5prost7message7Message5clear
FNDA:0,_RNvXsr_NtNtNtNtCs2Zzx8WPYKXd_15otel_arrow_rust5proto13opentelemetry7metrics2v1NtB5_6MetricINtNtCs8sCtDi7t2F4_4core7convert4FromNtB5_13MetricBuilderE4from
FNDA:0,_RNvXsv_NtNtNtNtCs2Zzx8WPYKXd_15otel_arrow_rust5proto13opentelemetry7metrics2v1NtB5_6MetricNtNtCs9ugllKyEvyV_5prost7message7Message5clear
FNDA:2,_RNvMs1E_NtNtNtNtCs2Zzx8WPYKXd_15otel_arrow_rust5proto13opentelemetry7metrics2v1NtB6_23SummaryDataPointBuilder6finish
FNDA:2,_RNvMs1N_NtNtNtNtCs2Zzx8WPYKXd_15otel_arrow_rust5proto13opentelemetry7metrics2v1NtB6_15ExemplarBuilder6finish
FNDA:2,_RNvMs1b_NtNtNtNtCs2Zzx8WPYKXd_15otel_arrow_rust5proto13opentelemetry7metrics2v1NtB6_22NumberDataPointBuilder6finish
FNDA:2,_RNvMs1k_NtNtNtNtCs2Zzx8WPYKXd_15otel_arrow_rust5proto13opentelemetry7metrics2v1NtB6_25HistogramDataPointBuilder6finish
FNDA:1,_RNvMs1u_NtNtNtNtCs2Zzx8WPYKXd_15otel_arrow_rust5proto13opentelemetry7metrics2v1NtB6_36ExponentialHistogramDataPointBuilder6finish
FNDA:2,_RNvMs8_NtNtNtNtCs2Zzx8WPYKXd_15otel_arrow_rust5proto13opentelemetry7metrics2v1NtB5_22ResourceMetricsBuilder6finish
FNDA:2,_RNvMsh_NtNtNtNtCs2Zzx8WPYKXd_15otel_arrow_rust5proto13opentelemetry7metrics2v1NtB5_19ScopeMetricsBuilder6finish
FNDA:2,_RNvMsq_NtNtNtNtCs2Zzx8WPYKXd_15otel_arrow_rust5proto13opentelemetry7metrics2v1NtB5_13MetricBuilder6finish
FNDA:0,_RNvXs10_NtNtNtNtCs2Zzx8WPYKXd_15otel_arrow_rust5proto13opentelemetry7metrics2v1NtB6_20ExponentialHistogramNtNtCs8sCtDi7t2F4_4core7default7Default7default
FNDA:0,_RNvXs17_NtNtNtNtCs2Zzx8WPYKXd_15otel_arrow_rust5proto13opentelemetry7metrics2v1NtB6_7SummaryNtNtCs9ugllKyEvyV_5prost7message7Message11encoded_lenBe_
FNDA:0,_RNvXs18_NtNtNtNtCs2Zzx8WPYKXd_15otel_arrow_rust5proto13opentelemetry7metrics2v1NtB6_7SummaryNtNtCs8sCtDi7t2F4_4core7default7Default7default
FNDA:0,_RNvXs19_NtNtNtNtCs2Zzx8WPYKXd_15otel_arrow_rust5proto13opentelemetry7metrics2v1NtB6_7SummaryNtNtCs8sCtDi7t2F4_4core3fmt5Debug3fmt
FNDA:0,_RNvXs1A_NtNtNtNtCs2Zzx8WPYKXd_15otel_arrow_rust5proto13opentelemetry7metrics2v1NtB6_29ExponentialHistogramDataPointNtNtCs8sCtDi7t2F4_4core7default7Default7default
FNDA:0,_RNvXs1K_NtNtNtNtCs2Zzx8WPYKXd_15otel_arrow_rust5proto13opentelemetry7metrics2v1NtB6_16SummaryDataPointNtNtCs8sCtDi7t2F4_4core7default7Default7default
FNDA:0,_RNvXs1T_NtNtNtNtCs2Zzx8WPYKXd_15otel_arrow_rust5proto13opentelemetry7metrics2v1NtB6_8ExemplarNtNtCs8sCtDi7t2F4_4core7default7Default7default
FNDA:1,_RNvXs1h_NtNtNtNtCs2Zzx8WPYKXd_15otel_arrow_rust5proto13opentelemetry7metrics2v1NtB6_15NumberDataPointNtNtCs8sCtDi7t2F4_4core7default7Default7default
FNDA:0,_RNvXs1q_NtNtNtNtCs2Zzx8WPYKXd_15otel_arrow_rust5proto13opentelemetry7metrics2v1NtB6_18HistogramDataPointNtNtCs8sCtDi7t2F4_4core7default7Default7default
FNDA:0,_RNvXs25_NtNtNtNtCs2Zzx8WPYKXd_15otel_arrow_rust5proto13opentelemetry7metrics2v1NtB6_22AggregationTemporalityNtNtCs8sCtDi7t2F4_4core7default7Default7default
FNDA:10,_RNvXsC_NtNtNtNtCs2Zzx8WPYKXd_15otel_arrow_rust5proto13opentelemetry7metrics2v1NtB5_5GaugeNtNtCs9ugllKyEvyV_5prost7message7Message11encoded_lenBd_
FNDA:1,_RNvXsD_NtNtNtNtCs2Zzx8WPYKXd_15otel_arrow_rust5proto13opentelemetry7metrics2v1NtB5_5GaugeNtNtCs8sCtDi7t2F4_4core7default7Default7default
FNDA:0,_RNvXsE_NtNtNtNtCs2Zzx8WPYKXd_15otel_arrow_rust5proto13opentelemetry7metrics2v1NtB5_5GaugeNtNtCs8sCtDi7t2F4_4core3fmt5Debug3fmt
FNDA:0,_RNvXsK_NtNtNtNtCs2Zzx8WPYKXd_15otel_arrow_rust5proto13opentelemetry7metrics2v1NtB5_3SumNtNtCs8sCtDi7t2F4_4core7default7Default7default
FNDA:0,_RNvXsS_NtNtNtNtCs2Zzx8WPYKXd_15otel_arrow_rust5proto13opentelemetry7metrics2v1NtB5_9HistogramNtNtCs8sCtDi7t2F4_4core7default7Default7default
FNDA:2,_RNvXse_NtNtNtNtCs2Zzx8WPYKXd_15otel_arrow_rust5proto13opentelemetry7metrics2v1NtB5_15ResourceMetricsNtNtCs8sCtDi7t2F4_4core7default7Default7default
FNDA:2,_RNvXsn_NtNtNtNtCs2Zzx8WPYKXd_15otel_arrow_rust5proto13opentelemetry7metrics2v1NtB5_12ScopeMetricsNtNtCs8sCtDi7t2F4_4core7default7Default7default
FNDA:2,_RNvXsw_NtNtNtNtCs2Zzx8WPYKXd_15otel_arrow_rust5proto13opentelemetry7metrics2v1NtB5_6MetricNtNtCs8sCtDi7t2F4_4core7default7Default7default
FNDA:1,_RNCINvMs1_NtNtNtNtNtCs2Zzx8WPYKXd_15otel_arrow_rust5proto13opentelemetry7metrics2v16metricNtB8_4Data5mergeQQNtNtNtCs87Lp0jQnWEh_5tonic5codec6buffer9DecodeBufE0Bi_
FNDA:0,_RNCINvMs1_NtNtNtNtNtCs2Zzx8WPYKXd_15otel_arrow_rust5proto13opentelemetry7metrics2v16metricNtB8_4Data5mergeQQNtNtNtCs87Lp0jQnWEh_5tonic5codec6buffer9DecodeBufEs0_0Bi_
FNDA:0,_RNCINvMs1_NtNtNtNtNtCs2Zzx8WPYKXd_15otel_arrow_rust5proto13opentelemetry7metrics2v16metricNtB8_4Data5mergeQQNtNtNtCs87Lp0jQnWEh_5tonic5codec6buffer9DecodeBufEs1_0Bi_
FNDA:0,_RNCINvMs1_NtNtNtNtNtCs2Zzx8WPYKXd_15otel_arrow_rust5proto13opentelemetry7metrics2v16metricNtB8_4Data5mergeQQNtNtNtCs87Lp0jQnWEh_5tonic5codec6buffer9DecodeBufEs2_0Bi_
FNDA:0,_RNCINvMs1_NtNtNtNtNtCs2Zzx8WPYKXd_15otel_arrow_rust5proto13opentelemetry7metrics2v16metricNtB8_4Data5mergeQQNtNtNtCs87Lp0jQnWEh_5tonic5codec6buffer9DecodeBufEs_0Bi_
FNDA:0,_RINvNvXs3_NtNtNtNtNtCs2Zzx8WPYKXd_15otel_arrow_rust5proto13opentelemetry7metrics2v117number_data_pointNtB8_5ValueNtNtCs8sCtDi7t2F4_4core3fmt5Debug3fmt13ScalarWrapperRdEBi_
FNDA:0,_RINvNvXs3_NtNtNtNtNtCs2Zzx8WPYKXd_15otel_arrow_rust5proto13opentelemetry7metrics2v117number_data_pointNtB8_5ValueNtNtCs8sCtDi7t2F4_4core3fmt5Debug3fmts_13ScalarWrapperRxEBi_
FNDA:1,_RNCINvMs2_NtNtNtNtNtCs2Zzx8WPYKXd_15otel_arrow_rust5proto13opentelemetry7metrics2v117number_data_pointNtB8_5Value5mergeQQNtNtNtCs87Lp0jQnWEh_5tonic5codec6buffer9DecodeBufE0Bi_
FNDA:0,_RNCINvMs2_NtNtNtNtNtCs2Zzx8WPYKXd_15otel_arrow_rust5proto13opentelemetry7metrics2v117number_data_pointNtB8_5Value5mergeQQNtNtNtCs87Lp0jQnWEh_5tonic5codec6buffer9DecodeBufEs_0Bi_
FNDA:0,_RNvXs4_NtNtNtNtNtCs2Zzx8WPYKXd_15otel_arrow_rust5proto13opentelemetry7metrics2v118summary_data_pointNtB5_15ValueAtQuantileNtNtCs8sCtDi7t2F4_4core7default7Default7default
FNDA:1,_RINvMs13_NtNtNtNtCs2Zzx8WPYKXd_15otel_arrow_rust5proto13opentelemetry7metrics2v1NtB7_7Summary3newINtNtCshFLakfGc1jx_5alloc3vec3VecNtB7_16SummaryDataPointEEBf_
FNDA:2,_RINvMs1D_NtNtNtNtCs2Zzx8WPYKXd_15otel_arrow_rust5proto13opentelemetry7metrics2v1NtB7_16SummaryDataPoint3newyINtNtCshFLakfGc1jx_5alloc3vec3VecNtNtB7_18summary_data_point15ValueAtQuantileEEBf_
FNDA:2,_RINvMs1D_NtNtNtNtCs2Zzx8WPYKXd_15otel_arrow_rust5proto13opentelemetry7metrics2v1NtB7_16SummaryDataPoint5buildyINtNtCshFLakfGc1jx_5alloc3vec3VecNtNtB7_18summary_data_point15ValueAtQuantileEEBf_
FNDA:2,_RINvMs1E_NtNtNtNtCs2Zzx8WPYKXd_15otel_arrow_rust5proto13opentelemetry7metrics2v1NtB7_23SummaryDataPointBuilder20start_time_unix_nanoyEBf_
FNDA:2,_RINvMs1E_NtNtNtNtCs2Zzx8WPYKXd_15otel_arrow_rust5proto13opentelemetry7metrics2v1NtB7_23SummaryDataPointBuilder3sumdEBf_
FNDA:2,_RINvMs1E_NtNtNtNtCs2Zzx8WPYKXd_15otel_arrow_rust5proto13opentelemetry7metrics2v1NtB7_23SummaryDataPointBuilder5countyEBf_
FNDA:2,_RINvMs1M_NtNtNtNtCs2Zzx8WPYKXd_15otel_arrow_rust5proto13opentelemetry7metrics2v1NtB7_8Exemplar10new_doubleydEBf_
FNDA:2,_RINvMs1M_NtNtNtNtCs2Zzx8WPYKXd_15otel_arrow_rust5proto13opentelemetry7metrics2v1NtB7_8Exemplar12build_doubleydEBf_
FNDA:2,_RINvMs1N_NtNtNtNtCs2Zzx8WPYKXd_15otel_arrow_rust5proto13opentelemetry7metrics2v1NtB7_15ExemplarBuilder7span_idNtNtBf_5pdata6SpanIDEBf_
FNDA:2,_RINvMs1N_NtNtNtNtCs2Zzx8WPYKXd_15otel_arrow_rust5proto13opentelemetry7metrics2v1NtB7_15ExemplarBuilder8trace_idNtNtBf_5pdata7TraceIDEBf_
FNDA:4,_RINvMs1a_NtNtNtNtCs2Zzx8WPYKXd_15otel_arrow_rust5proto13opentelemetry7metrics2v1NtB7_15NumberDataPoint10new_doubleydEBf_
FNDA:2,_RINvMs1a_NtNtNtNtCs2Zzx8WPYKXd_15otel_arrow_rust5proto13opentelemetry7metrics2v1NtB7_15NumberDataPoint12build_doubleydEBf_
FNDA:2,_RINvMs1a_NtNtNtNtCs2Zzx8WPYKXd_15otel_arrow_rust5proto13opentelemetry7metrics2v1NtB7_15NumberDataPoint7new_intyxEBf_
FNDA:2,_RINvMs1b_NtNtNtNtCs2Zzx8WPYKXd_15otel_arrow_rust5proto13opentelemetry7metrics2v1NtB7_22NumberDataPointBuilder10attributesINtNtCshFLakfGc1jx_5alloc3vec3VecNtNtNtBb_6common2v18KeyValueEEBf_
FNDA:2,_RINvMs1b_NtNtNtNtCs2Zzx8WPYKXd_15otel_arrow_rust5proto13opentelemetry7metrics2v1NtB7_22NumberDataPointBuilder20start_time_unix_nanoyEBf_
FNDA:2,_RINvMs1j_NtNtNtNtCs2Zzx8WPYKXd_15otel_arrow_rust5proto13opentelemetry7metrics2v1NtB7_18HistogramDataPoint3newyAyj3_Adj2_EBf_
FNDA:2,_RINvMs1j_NtNtNtNtCs2Zzx8WPYKXd_15otel_arrow_rust5proto13opentelemetry7metrics2v1NtB7_18HistogramDataPoint5buildyAyj3_Adj2_EBf_
FNDA:2,_RINvMs1k_NtNtNtNtCs2Zzx8WPYKXd_15otel_arrow_rust5proto13opentelemetry7metrics2v1NtB7_25HistogramDataPointBuilder20start_time_unix_nanoyEBf_
FNDA:1,_RINvMs1k_NtNtNtNtCs2Zzx8WPYKXd_15otel_arrow_rust5proto13opentelemetry7metrics2v1NtB7_25HistogramDataPointBuilder3maxdEBf_
FNDA:1,_RINvMs1k_NtNtNtNtCs2Zzx8WPYKXd_15otel_arrow_rust5proto13opentelemetry7metrics2v1NtB7_25HistogramDataPointBuilder3mindEBf_
FNDA:1,_RINvMs1k_NtNtNtNtCs2Zzx8WPYKXd_15otel_arrow_rust5proto13opentelemetry7metrics2v1NtB7_25HistogramDataPointBuilder3sumdEBf_
FNDA:1,_RINvMs1k_NtNtNtNtCs2Zzx8WPYKXd_15otel_arrow_rust5proto13opentelemetry7metrics2v1NtB7_25HistogramDataPointBuilder5countyEBf_
FNDA:1,_RINvMs1k_NtNtNtNtCs2Zzx8WPYKXd_15otel_arrow_rust5proto13opentelemetry7metrics2v1NtB7_25HistogramDataPointBuilder9exemplarsINtNtCshFLakfGc1jx_5alloc3vec3VecNtB7_8ExemplarEEBf_
FNDA:1,_RINvMs1t_NtNtNtNtCs2Zzx8WPYKXd_15otel_arrow_rust5proto13opentelemetry7metrics2v1NtB7_29ExponentialHistogramDataPoint3newylNtNtB7_32exponential_histogram_data_point7BucketsEBf_
FNDA:1,_RINvMs1t_NtNtNtNtCs2Zzx8WPYKXd_15otel_arrow_rust5proto13opentelemetry7metrics2v1NtB7_29ExponentialHistogramDataPoint5buildylNtNtB7_32exponential_histogram_data_point7BucketsEBf_
FNDA:1,_RINvMs1u_NtNtNtNtCs2Zzx8WPYKXd_15otel_arrow_rust5proto13opentelemetry7metrics2v1NtB7_36ExponentialHistogramDataPointBuilder10zero_countyEBf_
FNDA:1,_RINvMs1u_NtNtNtNtCs2Zzx8WPYKXd_15otel_arrow_rust5proto13opentelemetry7metrics2v1NtB7_36ExponentialHistogramDataPointBuilder20start_time_unix_nanoyEBf_
FNDA:1,_RINvMs1u_NtNtNtNtCs2Zzx8WPYKXd_15otel_arrow_rust5proto13opentelemetry7metrics2v1NtB7_36ExponentialHistogramDataPointBuilder5countyEBf_
FNDA:1,_RINvMs1u_NtNtNtNtCs2Zzx8WPYKXd_15otel_arrow_rust5proto13opentelemetry7metrics2v1NtB7_36ExponentialHistogramDataPointBuilder8negativeNtNtB7_32exponential_histogram_data_point7BucketsEBf_
FNDA:2,_RINvMs7_NtNtNtNtCs2Zzx8WPYKXd_15otel_arrow_rust5proto13opentelemetry7metrics2v1NtB6_15ResourceMetrics3newNtNtNtBa_8resource2v18ResourceEBe_
FNDA:2,_RINvMs7_NtNtNtNtCs2Zzx8WPYKXd_15otel_arrow_rust5proto13opentelemetry7metrics2v1NtB6_15ResourceMetrics5buildNtNtNtBa_8resource2v18ResourceEBe_
FNDA:2,_RINvMs8_NtNtNtNtCs2Zzx8WPYKXd_15otel_arrow_rust5proto13opentelemetry7metrics2v1NtB6_22ResourceMetricsBuilder13scope_metricsINtNtCshFLakfGc1jx_5alloc3vec3VecNtB6_12ScopeMetricsEEBe_
FNDA:1,_RINvMsF_NtNtNtNtCs2Zzx8WPYKXd_15otel_arrow_rust5proto13opentelemetry7metrics2v1NtB6_3Sum3newNtB6_22AggregationTemporalitybINtNtCshFLakfGc1jx_5alloc3vec3VecNtB6_15NumberDataPointEEBe_
FNDA:1,_RINvMsN_NtNtNtNtCs2Zzx8WPYKXd_15otel_arrow_rust5proto13opentelemetry7metrics2v1NtB6_9Histogram3newNtB6_22AggregationTemporalityINtNtCshFLakfGc1jx_5alloc3vec3VecNtB6_18HistogramDataPointEEBe_
FNDA:1,_RINvMsV_NtNtNtNtCs2Zzx8WPYKXd_15otel_arrow_rust5proto13opentelemetry7metrics2v1NtB6_20ExponentialHistogram3newNtB6_22AggregationTemporalityINtNtCshFLakfGc1jx_5alloc3vec3VecNtB6_29ExponentialHistogramDataPointEEBe_
FNDA:2,_RINvMsg_NtNtNtNtCs2Zzx8WPYKXd_15otel_arrow_rust5proto13opentelemetry7metrics2v1NtB6_12ScopeMetrics3newNtNtNtBa_6common2v120InstrumentationScopeEBe_
FNDA:2,_RINvMsg_NtNtNtNtCs2Zzx8WPYKXd_15otel_arrow_rust5proto13opentelemetry7metrics2v1NtB6_12ScopeMetrics5buildNtNtNtBa_6common2v120InstrumentationScopeEBe_
FNDA:2,_RINvMsh_NtNtNtNtCs2Zzx8WPYKXd_15otel_arrow_rust5proto13opentelemetry7metrics2v1NtB6_19ScopeMetricsBuilder7metricsINtNtCshFLakfGc1jx_5alloc3vec3VecNtB6_6MetricEEBe_
FNDA:2,_RINvMsp_NtNtNtNtCs2Zzx8WPYKXd_15otel_arrow_rust5proto13opentelemetry7metrics2v1NtB6_6Metric11build_gaugeReNtB6_5GaugeEBe_
FNDA:1,_RINvMsp_NtNtNtNtCs2Zzx8WPYKXd_15otel_arrow_rust5proto13opentelemetry7metrics2v1NtB6_6Metric11new_summaryReNtB6_7SummaryEBe_
FNDA:1,_RINvMsp_NtNtNtNtCs2Zzx8WPYKXd_15otel_arrow_rust5proto13opentelemetry7metrics2v1NtB6_6Metric13new_histogramReNtB6_9HistogramEBe_
FNDA:1,_RINvMsp_NtNtNtNtCs2Zzx8WPYKXd_15otel_arrow_rust5proto13opentelemetry7metrics2v1NtB6_6Metric25new_exponential_histogramReNtB6_20ExponentialHistogramEBe_
FNDA:1,_RINvMsp_NtNtNtNtCs2Zzx8WPYKXd_15otel_arrow_rust5proto13opentelemetry7metrics2v1NtB6_6Metric7new_sumReNtB6_3SumEBe_
FNDA:3,_RINvMsp_NtNtNtNtCs2Zzx8WPYKXd_15otel_arrow_rust5proto13opentelemetry7metrics2v1NtB6_6Metric9new_gaugeReNtB6_5GaugeEBe_
FNDA:2,_RINvMsq_NtNtNtNtCs2Zzx8WPYKXd_15otel_arrow_rust5proto13opentelemetry7metrics2v1NtB6_13MetricBuilder11descriptionNtNtCshFLakfGc1jx_5alloc6string6StringEBe_
FNDA:2,_RINvMsq_NtNtNtNtCs2Zzx8WPYKXd_15otel_arrow_rust5proto13opentelemetry7metrics2v1NtB6_13MetricBuilder4unitReEBe_
FNDA:3,_RINvMsy_NtNtNtNtCs2Zzx8WPYKXd_15otel_arrow_rust5proto13opentelemetry7metrics2v1NtB6_5Gauge3newINtNtCshFLakfGc1jx_5alloc3vec3VecNtB6_15NumberDataPointEEBe_
FNDA:0,_RINvNvXNvXs1B_NtNtNtNtCs2Zzx8WPYKXd_15otel_arrow_rust5proto13opentelemetry7metrics2v1NtBc_29ExponentialHistogramDataPointNtNtCs8sCtDi7t2F4_4core3fmt5Debug3fmtNtB5_13ScalarWrapperB1V_3fmt5InnerRdEBk_
FNDA:0,_RINvNvXNvXs1r_NtNtNtNtCs2Zzx8WPYKXd_15otel_arrow_rust5proto13opentelemetry7metrics2v1NtBc_18HistogramDataPointNtNtCs8sCtDi7t2F4_4core3fmt5Debug3fmtNtB5_13ScalarWrapperB1K_3fmt5InnerRdEBk_
FNDA:0,_RINvNvXs0_NvXs1B_NtNtNtNtCs2Zzx8WPYKXd_15otel_arrow_rust5proto13opentelemetry7metrics2v1NtBf_29ExponentialHistogramDataPointNtNtCs8sCtDi7t2F4_4core3fmt5Debug3fmtNtB8_s0_13ScalarWrapperB1Y_3fmt5InnerRdEBn_
FNDA:0,_RINvNvXs0_NvXs1r_NtNtNtNtCs2Zzx8WPYKXd_15otel_arrow_rust5proto13opentelemetry7metrics2v1NtBf_18HistogramDataPointNtNtCs8sCtDi7t2F4_4core3fmt5Debug3fmtNtB8_s0_13ScalarWrapperB1N_3fmt5InnerRdEBn_
FNDA:0,_RINvNvXs1B_NtNtNtNtCs2Zzx8WPYKXd_15otel_arrow_rust5proto13opentelemetry7metrics2v1NtB9_29ExponentialHistogramDataPointNtNtCs8sCtDi7t2F4_4core3fmt5Debug3fmt13ScalarWrapperRyEBh_
FNDA:0,_RINvNvXs1B_NtNtNtNtCs2Zzx8WPYKXd_15otel_arrow_rust5proto13opentelemetry7metrics2v1NtB9_29ExponentialHistogramDataPointNtNtCs8sCtDi7t2F4_4core3fmt5Debug3fmts0_13ScalarWrapperRyEBh_
FNDA:0,_RINvNvXs1B_NtNtNtNtCs2Zzx8WPYKXd_15otel_arrow_rust5proto13opentelemetry7metrics2v1NtB9_29ExponentialHistogramDataPointNtNtCs8sCtDi7t2F4_4core3fmt5Debug3fmts1_13ScalarWrapperRlEBh_
FNDA:0,_RINvNvXs1B_NtNtNtNtCs2Zzx8WPYKXd_15otel_arrow_rust5proto13opentelemetry7metrics2v1NtB9_29ExponentialHistogramDataPointNtNtCs8sCtDi7t2F4_4core3fmt5Debug3fmts2_13ScalarWrapperRyEBh_
FNDA:0,_RINvNvXs1B_NtNtNtNtCs2Zzx8WPYKXd_15otel_arrow_rust5proto13opentelemetry7metrics2v1NtB9_29ExponentialHistogramDataPointNtNtCs8sCtDi7t2F4_4core3fmt5Debug3fmts3_13ScalarWrapperRmEBh_
FNDA:0,_RINvNvXs1B_NtNtNtNtCs2Zzx8WPYKXd_15otel_arrow_rust5proto13opentelemetry7metrics2v1NtB9_29ExponentialHistogramDataPointNtNtCs8sCtDi7t2F4_4core3fmt5Debug3fmts4_13ScalarWrapperRdEBh_
FNDA:0,_RINvNvXs1B_NtNtNtNtCs2Zzx8WPYKXd_15otel_arrow_rust5proto13opentelemetry7metrics2v1NtB9_29ExponentialHistogramDataPointNtNtCs8sCtDi7t2F4_4core3fmt5Debug3fmts_13ScalarWrapperRyEBh_
FNDA:0,_RINvNvXs1L_NtNtNtNtCs2Zzx8WPYKXd_15otel_arrow_rust5proto13opentelemetry7metrics2v1NtB9_16SummaryDataPointNtNtCs8sCtDi7t2F4_4core3fmt5Debug3fmt13ScalarWrapperRyEBh_
FNDA:0,_RINvNvXs1L_NtNtNtNtCs2Zzx8WPYKXd_15otel_arrow_rust5proto13opentelemetry7metrics2v1NtB9_16SummaryDataPointNtNtCs8sCtDi7t2F4_4core3fmt5Debug3fmts0_13ScalarWrapperRyEBh_
FNDA:0,_RINvNvXs1L_NtNtNtNtCs2Zzx8WPYKXd_15otel_arrow_rust5proto13opentelemetry7metrics2v1NtB9_16SummaryDataPointNtNtCs8sCtDi7t2F4_4core3fmt5Debug3fmts1_13ScalarWrapperRdEBh_
FNDA:0,_RINvNvXs1L_NtNtNtNtCs2Zzx8WPYKXd_15otel_arrow_rust5proto13opentelemetry7metrics2v1NtB9_16SummaryDataPointNtNtCs8sCtDi7t2F4_4core3fmt5Debug3fmts2_13ScalarWrapperRmEBh_
FNDA:0,_RINvNvXs1L_NtNtNtNtCs2Zzx8WPYKXd_15otel_arrow_rust5proto13opentelemetry7metrics2v1NtB9_16SummaryDataPointNtNtCs8sCtDi7t2F4_4core3fmt5Debug3fmts_13ScalarWrapperRyEBh_
FNDA:0,_RINvNvXs1U_NtNtNtNtCs2Zzx8WPYKXd_15otel_arrow_rust5proto13opentelemetry7metrics2v1NtB9_8ExemplarNtNtCs8sCtDi7t2F4_4core3fmt5Debug3fmt13ScalarWrapperRyEBh_
FNDA:0,_RINvNvXs1U_NtNtNtNtCs2Zzx8WPYKXd_15otel_arrow_rust5proto13opentelemetry7metrics2v1NtB9_8ExemplarNtNtCs8sCtDi7t2F4_4core3fmt5Debug3fmts0_13ScalarWrapperRINtNtCshFLakfGc1jx_5alloc3vec3VechEEBh_
FNDA:0,_RINvNvXs1U_NtNtNtNtCs2Zzx8WPYKXd_15otel_arrow_rust5proto13opentelemetry7metrics2v1NtB9_8ExemplarNtNtCs8sCtDi7t2F4_4core3fmt5Debug3fmts_13ScalarWrapperRINtNtCshFLakfGc1jx_5alloc3vec3VechEEBh_
FNDA:0,_RINvNvXs1_NvXs1r_NtNtNtNtCs2Zzx8WPYKXd_15otel_arrow_rust5proto13opentelemetry7metrics2v1NtBf_18HistogramDataPointNtNtCs8sCtDi7t2F4_4core3fmt5Debug3fmtNtB8_s1_13ScalarWrapperB1N_3fmt5InnerRdEBn_
FNDA:0,_RINvNvXs1i_NtNtNtNtCs2Zzx8WPYKXd_15otel_arrow_rust5proto13opentelemetry7metrics2v1NtB9_15NumberDataPointNtNtCs8sCtDi7t2F4_4core3fmt5Debug3fmt13ScalarWrapperRyEBh_
FNDA:0,_RINvNvXs1i_NtNtNtNtCs2Zzx8WPYKXd_15otel_arrow_rust5proto13opentelemetry7metrics2v1NtB9_15NumberDataPointNtNtCs8sCtDi7t2F4_4core3fmt5Debug3fmts0_13ScalarWrapperRmEBh_
FNDA:0,_RINvNvXs1i_NtNtNtNtCs2Zzx8WPYKXd_15otel_arrow_rust5proto13opentelemetry7metrics2v1NtB9_15NumberDataPointNtNtCs8sCtDi7t2F4_4core3fmt5Debug3fmts_13ScalarWrapperRyEBh_
FNDA:0,_RINvNvXs1r_NtNtNtNtCs2Zzx8WPYKXd_15otel_arrow_rust5proto13opentelemetry7metrics2v1NtB9_18HistogramDataPointNtNtCs8sCtDi7t2F4_4core3fmt5Debug3fmt13ScalarWrapperRyEBh_
FNDA:0,_RINvNvXs1r_NtNtNtNtCs2Zzx8WPYKXd_15otel_arrow_rust5proto13opentelemetry7metrics2v1NtB9_18HistogramDataPointNtNtCs8sCtDi7t2F4_4core3fmt5Debug3fmts0_13ScalarWrapperRyEBh_
FNDA:0,_RINvNvXs1r_NtNtNtNtCs2Zzx8WPYKXd_15otel_arrow_rust5proto13opentelemetry7metrics2v1NtB9_18HistogramDataPointNtNtCs8sCtDi7t2F4_4core3fmt5Debug3fmts1_13ScalarWrapperRmEBh_
FNDA:0,_RINvNvXs1r_NtNtNtNtCs2Zzx8WPYKXd_15otel_arrow_rust5proto13opentelemetry7metrics2v1NtB9_18HistogramDataPointNtNtCs8sCtDi7t2F4_4core3fmt5Debug3fmts_13ScalarWrapperRyEBh_
FNDA:0,_RINvNvXs2_NvXs1r_NtNtNtNtCs2Zzx8WPYKXd_15otel_arrow_rust5proto13opentelemetry7metrics2v1NtBf_18HistogramDataPointNtNtCs8sCtDi7t2F4_4core3fmt5Debug3fmtNtB8_s2_13ScalarWrapperB1N_3fmt5InnerRdEBn_
FNDA:0,_RINvNvXsL_NtNtNtNtCs2Zzx8WPYKXd_15otel_arrow_rust5proto13opentelemetry7metrics2v1NtB8_3SumNtNtCs8sCtDi7t2F4_4core3fmt5Debug3fmt13ScalarWrapperRbEBg_
FNDA:0,_RINvNvXs_NvXs1B_NtNtNtNtCs2Zzx8WPYKXd_15otel_arrow_rust5proto13opentelemetry7metrics2v1NtBe_29ExponentialHistogramDataPointNtNtCs8sCtDi7t2F4_4core3fmt5Debug3fmtNtB7_s_13ScalarWrapperB1X_3fmt5InnerRdEBm_
FNDA:0,_RINvNvXs_NvXs1r_NtNtNtNtCs2Zzx8WPYKXd_15otel_arrow_rust5proto13opentelemetry7metrics2v1NtBe_18HistogramDataPointNtNtCs8sCtDi7t2F4_4core3fmt5Debug3fmtNtB7_s_13ScalarWrapperB1M_3fmt5InnerRyEBm_
FNDA:0,_RINvNvXsf_NtNtNtNtCs2Zzx8WPYKXd_15otel_arrow_rust5proto13opentelemetry7metrics2v1NtB8_15ResourceMetricsNtNtCs8sCtDi7t2F4_4core3fmt5Debug3fmt13ScalarWrapperRNtNtCshFLakfGc1jx_5alloc6string6StringEBg_
FNDA:0,_RINvNvXso_NtNtNtNtCs2Zzx8WPYKXd_15otel_arrow_rust5proto13opentelemetry7metrics2v1NtB8_12ScopeMetricsNtNtCs8sCtDi7t2F4_4core3fmt5Debug3fmt13ScalarWrapperRNtNtCshFLakfGc1jx_5alloc6string6StringEBg_
FNDA:0,_RINvNvXsx_NtNtNtNtCs2Zzx8WPYKXd_15otel_arrow_rust5proto13opentelemetry7metrics2v1NtB8_6MetricNtNtCs8sCtDi7t2F4_4core3fmt5Debug3fmt13ScalarWrapperRNtNtCshFLakfGc1jx_5alloc6string6StringEBg_
FNDA:0,_RINvNvXsx_NtNtNtNtCs2Zzx8WPYKXd_15otel_arrow_rust5proto13opentelemetry7metrics2v1NtB8_6MetricNtNtCs8sCtDi7t2F4_4core3fmt5Debug3fmts0_13ScalarWrapperRNtNtCshFLakfGc1jx_5alloc6string6StringEBg_
FNDA:0,_RINvNvXsx_NtNtNtNtCs2Zzx8WPYKXd_15otel_arrow_rust5proto13opentelemetry7metrics2v1NtB8_6MetricNtNtCs8sCtDi7t2F4_4core3fmt5Debug3fmts_13ScalarWrapperRNtNtCshFLakfGc1jx_5alloc6string6StringEBg_
FNDA:0,_RNCINvXs17_NtNtNtNtCs2Zzx8WPYKXd_15otel_arrow_rust5proto13opentelemetry7metrics2v1NtB9_7SummaryNtNtCs9ugllKyEvyV_5prost7message7Message11merge_fieldQQNtNtNtCs87Lp0jQnWEh_5tonic5codec6buffer9DecodeBufE0Bh_
FNDA:0,_RNCINvXs1J_NtNtNtNtCs2Zzx8WPYKXd_15otel_arrow_rust5proto13opentelemetry7metrics2v1NtB9_16SummaryDataPointNtNtCs9ugllKyEvyV_5prost7message7Message11merge_fieldQQNtNtNtCs87Lp0jQnWEh_5tonic5codec6buffer9DecodeBufE0Bh_
FNDA:0,_RNCINvXs1J_NtNtNtNtCs2Zzx8WPYKXd_15otel_arrow_rust5proto13opentelemetry7metrics2v1NtB9_16SummaryDataPointNtNtCs9ugllKyEvyV_5prost7message7Message11merge_fieldQQNtNtNtCs87Lp0jQnWEh_5tonic5codec6buffer9DecodeBufEs0_0Bh_
FNDA:0,_RNCINvXs1J_NtNtNtNtCs2Zzx8WPYKXd_15otel_arrow_rust5proto13opentelemetry7metrics2v1NtB9_16SummaryDataPointNtNtCs9ugllKyEvyV_5prost7message7Message11merge_fieldQQNtNtNtCs87Lp0jQnWEh_5tonic5codec6buffer9DecodeBufEs1_0Bh_
FNDA:0,_RNCINvXs1J_NtNtNtNtCs2Zzx8WPYKXd_15otel_arrow_rust5proto13opentelemetry7metrics2v1NtB9_16SummaryDataPointNtNtCs9ugllKyEvyV_5prost7message7Message11merge_fieldQQNtNtNtCs87Lp0jQnWEh_5tonic5codec6buffer9DecodeBufEs2_0Bh_
FNDA:0,_RNCINvXs1J_NtNtNtNtCs2Zzx8WPYKXd_15otel_arrow_rust5proto13opentelemetry7metrics2v1NtB9_16SummaryDataPointNtNtCs9ugllKyEvyV_5prost7message7Message11merge_fieldQQNtNtNtCs87Lp0jQnWEh_5tonic5codec6buffer9DecodeBufEs3_0Bh_
FNDA:0,_RNCINvXs1J_NtNtNtNtCs2Zzx8WPYKXd_15otel_arrow_rust5proto13opentelemetry7metrics2v1NtB9_16SummaryDataPointNtNtCs9ugllKyEvyV_5prost7message7Message11merge_fieldQQNtNtNtCs87Lp0jQnWEh_5tonic5codec6buffer9DecodeBufEs4_0Bh_
FNDA:0,_RNCINvXs1J_NtNtNtNtCs2Zzx8WPYKXd_15otel_arrow_rust5proto13opentelemetry7metrics2v1NtB9_16SummaryDataPointNtNtCs9ugllKyEvyV_5prost7message7Message11merge_fieldQQNtNtNtCs87Lp0jQnWEh_5tonic5codec6buffer9DecodeBufEs_0Bh_
FNDA:0,_RNCINvXs1S_NtNtNtNtCs2Zzx8WPYKXd_15otel_arrow_rust5proto13opentelemetry7metrics2v1NtB9_8ExemplarNtNtCs9ugllKyEvyV_5prost7message7Message11merge_fieldQQNtNtNtCs87Lp0jQnWEh_5tonic5codec6buffer9DecodeBufE0Bh_
FNDA:0,_RNCINvXs1S_NtNtNtNtCs2Zzx8WPYKXd_15otel_arrow_rust5proto13opentelemetry7metrics2v1NtB9_8ExemplarNtNtCs9ugllKyEvyV_5prost7message7Message11merge_fieldQQNtNtNtCs87Lp0jQnWEh_5tonic5codec6buffer9DecodeBufEs0_0Bh_
FNDA:0,_RNCINvXs1S_NtNtNtNtCs2Zzx8WPYKXd_15otel_arrow_rust5proto13opentelemetry7metrics2v1NtB9_8ExemplarNtNtCs9ugllKyEvyV_5prost7message7Message11merge_fieldQQNtNtNtCs87Lp0jQnWEh_5tonic5codec6buffer9DecodeBufEs1_0Bh_
FNDA:0,_RNCINvXs1S_NtNtNtNtCs2Zzx8WPYKXd_15otel_arrow_rust5proto13opentelemetry7metrics2v1NtB9_8ExemplarNtNtCs9ugllKyEvyV_5prost7message7Message11merge_fieldQQNtNtNtCs87Lp0jQnWEh_5tonic5codec6buffer9DecodeBufEs2_0Bh_
FNDA:0,_RNCINvXs1S_NtNtNtNtCs2Zzx8WPYKXd_15otel_arrow_rust5proto13opentelemetry7metrics2v1NtB9_8ExemplarNtNtCs9ugllKyEvyV_5prost7message7Message11merge_fieldQQNtNtNtCs87Lp0jQnWEh_5tonic5codec6buffer9DecodeBufEs_0Bh_
FNDA:0,_RNCINvXs1g_NtNtNtNtCs2Zzx8WPYKXd_15otel_arrow_rust5proto13opentelemetry7metrics2v1NtB9_15NumberDataPointNtNtCs9ugllKyEvyV_5prost7message7Message11merge_fieldQQNtNtNtCs87Lp0jQnWEh_5tonic5codec6buffer9DecodeBufE0Bh_
FNDA:0,_RNCINvXs1g_NtNtNtNtCs2Zzx8WPYKXd_15otel_arrow_rust5proto13opentelemetry7metrics2v1NtB9_15NumberDataPointNtNtCs9ugllKyEvyV_5prost7message7Message11merge_fieldQQNtNtNtCs87Lp0jQnWEh_5tonic5codec6buffer9DecodeBufEs0_0Bh_
FNDA:0,_RNCINvXs1g_NtNtNtNtCs2Zzx8WPYKXd_15otel_arrow_rust5proto13opentelemetry7metrics2v1NtB9_15NumberDataPointNtNtCs9ugllKyEvyV_5prost7message7Message11merge_fieldQQNtNtNtCs87Lp0jQnWEh_5tonic5codec6buffer9DecodeBufEs1_0Bh_
FNDA:0,_RNCINvXs1g_NtNtNtNtCs2Zzx8WPYKXd_15otel_arrow_rust5proto13opentelemetry7metrics2v1NtB9_15NumberDataPointNtNtCs9ugllKyEvyV_5prost7message7Message11merge_fieldQQNtNtNtCs87Lp0jQnWEh_5tonic5codec6buffer9DecodeBufEs2_0Bh_
FNDA:0,_RNCINvXs1g_NtNtNtNtCs2Zzx8WPYKXd_15otel_arrow_rust5proto13opentelemetry7metrics2v1NtB9_15NumberDataPointNtNtCs9ugllKyEvyV_5prost7message7Message11merge_fieldQQNtNtNtCs87Lp0jQnWEh_5tonic5codec6buffer9DecodeBufEs3_0Bh_
FNDA:0,_RNCINvXs1g_NtNtNtNtCs2Zzx8WPYKXd_15otel_arrow_rust5proto13opentelemetry7metrics2v1NtB9_15NumberDataPointNtNtCs9ugllKyEvyV_5prost7message7Message11merge_fieldQQNtNtNtCs87Lp0jQnWEh_5tonic5codec6buffer9DecodeBufEs_0Bh_
FNDA:0,_RNCINvXs1p_NtNtNtNtCs2Zzx8WPYKXd_15otel_arrow_rust5proto13opentelemetry7metrics2v1NtB9_18HistogramDataPointNtNtCs9ugllKyEvyV_5prost7message7Message11merge_fieldQQNtNtNtCs87Lp0jQnWEh_5tonic5codec6buffer9DecodeBufE0Bh_
FNDA:0,_RNCINvXs1p_NtNtNtNtCs2Zzx8WPYKXd_15otel_arrow_rust5proto13opentelemetry7metrics2v1NtB9_18HistogramDataPointNtNtCs9ugllKyEvyV_5prost7message7Message11merge_fieldQQNtNtNtCs87Lp0jQnWEh_5tonic5codec6buffer9DecodeBufEs0_0Bh_
FNDA:0,_RNCINvXs1p_NtNtNtNtCs2Zzx8WPYKXd_15otel_arrow_rust5proto13opentelemetry7metrics2v1NtB9_18HistogramDataPointNtNtCs9ugllKyEvyV_5prost7message7Message11merge_fieldQQNtNtNtCs87Lp0jQnWEh_5tonic5codec6buffer9DecodeBufEs1_0Bh_
FNDA:0,_RNCINvXs1p_NtNtNtNtCs2Zzx8WPYKXd_15otel_arrow_rust5proto13opentelemetry7metrics2v1NtB9_18HistogramDataPointNtNtCs9ugllKyEvyV_5prost7message7Message11merge_fieldQQNtNtNtCs87Lp0jQnWEh_5tonic5codec6buffer9DecodeBufEs2_0Bh_
FNDA:0,_RNCINvXs1p_NtNtNtNtCs2Zzx8WPYKXd_15otel_arrow_rust5proto13opentelemetry7metrics2v1NtB9_18HistogramDataPointNtNtCs9ugllKyEvyV_5prost7message7Message11merge_fieldQQNtNtNtCs87Lp0jQnWEh_5tonic5codec6buffer9DecodeBufEs3_0Bh_
FNDA:0,_RNCINvXs1p_NtNtNtNtCs2Zzx8WPYKXd_15otel_arrow_rust5proto13opentelemetry7metrics2v1NtB9_18HistogramDataPointNtNtCs9ugllKyEvyV_5prost7message7Message11merge_fieldQQNtNtNtCs87Lp0jQnWEh_5tonic5codec6buffer9DecodeBufEs4_0Bh_
FNDA:0,_RNCINvXs1p_NtNtNtNtCs2Zzx8WPYKXd_15otel_arrow_rust5proto13opentelemetry7metrics2v1NtB9_18HistogramDataPointNtNtCs9ugllKyEvyV_5prost7message7Message11merge_fieldQQNtNtNtCs87Lp0jQnWEh_5tonic5codec6buffer9DecodeBufEs5_0Bh_
FNDA:0,_RNCINvXs1p_NtNtNtNtCs2Zzx8WPYKXd_15otel_arrow_rust5proto13opentelemetry7metrics2v1NtB9_18HistogramDataPointNtNtCs9ugllKyEvyV_5prost7message7Message11merge_fieldQQNtNtNtCs87Lp0jQnWEh_5tonic5codec6buffer9DecodeBufEs6_0Bh_
FNDA:0,_RNCINvXs1p_NtNtNtNtCs2Zzx8WPYKXd_15otel_arrow_rust5proto13opentelemetry7metrics2v1NtB9_18HistogramDataPointNtNtCs9ugllKyEvyV_5prost7message7Message11merge_fieldQQNtNtNtCs87Lp0jQnWEh_5tonic5codec6buffer9DecodeBufEs7_0Bh_
FNDA:0,_RNCINvXs1p_NtNtNtNtCs2Zzx8WPYKXd_15otel_arrow_rust5proto13opentelemetry7metrics2v1NtB9_18HistogramDataPointNtNtCs9ugllKyEvyV_5prost7message7Message11merge_fieldQQNtNtNtCs87Lp0jQnWEh_5tonic5codec6buffer9DecodeBufEs8_0Bh_
FNDA:0,_RNCINvXs1p_NtNtNtNtCs2Zzx8WPYKXd_15otel_arrow_rust5proto13opentelemetry7metrics2v1NtB9_18HistogramDataPointNtNtCs9ugllKyEvyV_5prost7message7Message11merge_fieldQQNtNtNtCs87Lp0jQnWEh_5tonic5codec6buffer9DecodeBufEs_0Bh_
FNDA:0,_RNCINvXs1z_NtNtNtNtCs2Zzx8WPYKXd_15otel_arrow_rust5proto13opentelemetry7metrics2v1NtB9_29ExponentialHistogramDataPointNtNtCs9ugllKyEvyV_5prost7message7Message11merge_fieldQQNtNtNtCs87Lp0jQnWEh_5tonic5codec6buffer9DecodeBufE0Bh_
FNDA:0,_RNCINvXs1z_NtNtNtNtCs2Zzx8WPYKXd_15otel_arrow_rust5proto13opentelemetry7metrics2v1NtB9_29ExponentialHistogramDataPointNtNtCs9ugllKyEvyV_5prost7message7Message11merge_fieldQQNtNtNtCs87Lp0jQnWEh_5tonic5codec6buffer9DecodeBufEs0_0Bh_
FNDA:0,_RNCINvXs1z_NtNtNtNtCs2Zzx8WPYKXd_15otel_arrow_rust5proto13opentelemetry7metrics2v1NtB9_29ExponentialHistogramDataPointNtNtCs9ugllKyEvyV_5prost7message7Message11merge_fieldQQNtNtNtCs87Lp0jQnWEh_5tonic5codec6buffer9DecodeBufEs1_0Bh_
FNDA:0,_RNCINvXs1z_NtNtNtNtCs2Zzx8WPYKXd_15otel_arrow_rust5proto13opentelemetry7metrics2v1NtB9_29ExponentialHistogramDataPointNtNtCs9ugllKyEvyV_5prost7message7Message11merge_fieldQQNtNtNtCs87Lp0jQnWEh_5tonic5codec6buffer9DecodeBufEs2_0Bh_
FNDA:0,_RNCINvXs1z_NtNtNtNtCs2Zzx8WPYKXd_15otel_arrow_rust5proto13opentelemetry7metrics2v1NtB9_29ExponentialHistogramDataPointNtNtCs9ugllKyEvyV_5prost7message7Message11merge_fieldQQNtNtNtCs87Lp0jQnWEh_5tonic5codec6buffer9DecodeBufEs3_0Bh_
FNDA:0,_RNCINvXs1z_NtNtNtNtCs2Zzx8WPYKXd_15otel_arrow_rust5proto13opentelemetry7metrics2v1NtB9_29ExponentialHistogramDataPointNtNtCs9ugllKyEvyV_5prost7message7Message11merge_fieldQQNtNtNtCs87Lp0jQnWEh_5tonic5codec6buffer9DecodeBufEs4_0Bh_
FNDA:0,_RNCINvXs1z_NtNtNtNtCs2Zzx8WPYKXd_15otel_arrow_rust5proto13opentelemetry7metrics2v1NtB9_29ExponentialHistogramDataPointNtNtCs9ugllKyEvyV_5prost7message7Message11merge_fieldQQNtNtNtCs87Lp0jQnWEh_5tonic5codec6buffer9DecodeBufEs5_0Bh_
FNDA:0,_RNCINvXs1z_NtNtNtNtCs2Zzx8WPYKXd_15otel_arrow_rust5proto13opentelemetry7metrics2v1NtB9_29ExponentialHistogramDataPointNtNtCs9ugllKyEvyV_5prost7message7Message11merge_fieldQQNtNtNtCs87Lp0jQnWEh_5tonic5codec6buffer9DecodeBufEs6_0Bh_
FNDA:0,_RNCINvXs1z_NtNtNtNtCs2Zzx8WPYKXd_15otel_arrow_rust5proto13opentelemetry7metrics2v1NtB9_29ExponentialHistogramDataPointNtNtCs9ugllKyEvyV_5prost7message7Message11merge_fieldQQNtNtNtCs87Lp0jQnWEh_5tonic5codec6buffer9DecodeBufEs7_0Bh_
FNDA:0,_RNCINvXs1z_NtNtNtNtCs2Zzx8WPYKXd_15otel_arrow_rust5proto13opentelemetry7metrics2v1NtB9_29ExponentialHistogramDataPointNtNtCs9ugllKyEvyV_5prost7message7Message11merge_fieldQQNtNtNtCs87Lp0jQnWEh_5tonic5codec6buffer9DecodeBufEs8_0Bh_
FNDA:0,_RNCINvXs1z_NtNtNtNtCs2Zzx8WPYKXd_15otel_arrow_rust5proto13opentelemetry7metrics2v1NtB9_29ExponentialHistogramDataPointNtNtCs9ugllKyEvyV_5prost7message7Message11merge_fieldQQNtNtNtCs87Lp0jQnWEh_5tonic5codec6buffer9DecodeBufEs9_0Bh_
FNDA:0,_RNCINvXs1z_NtNtNtNtCs2Zzx8WPYKXd_15otel_arrow_rust5proto13opentelemetry7metrics2v1NtB9_29ExponentialHistogramDataPointNtNtCs9ugllKyEvyV_5prost7message7Message11merge_fieldQQNtNtNtCs87Lp0jQnWEh_5tonic5codec6buffer9DecodeBufEs_0Bh_
FNDA:0,_RNCINvXs1z_NtNtNtNtCs2Zzx8WPYKXd_15otel_arrow_rust5proto13opentelemetry7metrics2v1NtB9_29ExponentialHistogramDataPointNtNtCs9ugllKyEvyV_5prost7message7Message11merge_fieldQQNtNtNtCs87Lp0jQnWEh_5tonic5codec6buffer9DecodeBufEsa_0Bh_
FNDA:0,_RNCINvXs1z_NtNtNtNtCs2Zzx8WPYKXd_15otel_arrow_rust5proto13opentelemetry7metrics2v1NtB9_29ExponentialHistogramDataPointNtNtCs9ugllKyEvyV_5prost7message7Message11merge_fieldQQNtNtNtCs87Lp0jQnWEh_5tonic5codec6buffer9DecodeBufEsb_0Bh_
FNDA:0,_RNCINvXsC_NtNtNtNtCs2Zzx8WPYKXd_15otel_arrow_rust5proto13opentelemetry7metrics2v1NtB8_5GaugeNtNtCs9ugllKyEvyV_5prost7message7Message11merge_fieldQQNtNtNtCs87Lp0jQnWEh_5tonic5codec6buffer9DecodeBufE0Bg_
FNDA:0,_RNCINvXsJ_NtNtNtNtCs2Zzx8WPYKXd_15otel_arrow_rust5proto13opentelemetry7metrics2v1NtB8_3SumNtNtCs9ugllKyEvyV_5prost7message7Message11merge_fieldQQNtNtNtCs87Lp0jQnWEh_5tonic5codec6buffer9DecodeBufE0Bg_
FNDA:0,_RNCINvXsJ_NtNtNtNtCs2Zzx8WPYKXd_15otel_arrow_rust5proto13opentelemetry7metrics2v1NtB8_3SumNtNtCs9ugllKyEvyV_5prost7message7Message11merge_fieldQQNtNtNtCs87Lp0jQnWEh_5tonic5codec6buffer9DecodeBufEs0_0Bg_
FNDA:0,_RNCINvXsJ_NtNtNtNtCs2Zzx8WPYKXd_15otel_arrow_rust5proto13opentelemetry7metrics2v1NtB8_3SumNtNtCs9ugllKyEvyV_5prost7message7Message11merge_fieldQQNtNtNtCs87Lp0jQnWEh_5tonic5codec6buffer9DecodeBufEs_0Bg_
FNDA:0,_RNCINvXsR_NtNtNtNtCs2Zzx8WPYKXd_15otel_arrow_rust5proto13opentelemetry7metrics2v1NtB8_9HistogramNtNtCs9ugllKyEvyV_5prost7message7Message11merge_fieldQQNtNtNtCs87Lp0jQnWEh_5tonic5codec6buffer9DecodeBufE0Bg_
FNDA:0,_RNCINvXsR_NtNtNtNtCs2Zzx8WPYKXd_15otel_arrow_rust5proto13opentelemetry7metrics2v1NtB8_9HistogramNtNtCs9ugllKyEvyV_5prost7message7Message11merge_fieldQQNtNtNtCs87Lp0jQnWEh_5tonic5codec6buffer9DecodeBufEs_0Bg_
FNDA:0,_RNCINvXsZ_NtNtNtNtCs2Zzx8WPYKXd_15otel_arrow_rust5proto13opentelemetry7metrics2v1NtB8_20ExponentialHistogramNtNtCs9ugllKyEvyV_5prost7message7Message11merge_fieldQQNtNtNtCs87Lp0jQnWEh_5tonic5codec6buffer9DecodeBufE0Bg_
FNDA:0,_RNCINvXsZ_NtNtNtNtCs2Zzx8WPYKXd_15otel_arrow_rust5proto13opentelemetry7metrics2v1NtB8_20ExponentialHistogramNtNtCs9ugllKyEvyV_5prost7message7Message11merge_fieldQQNtNtNtCs87Lp0jQnWEh_5tonic5codec6buffer9DecodeBufEs_0Bg_
FNDA:0,_RNCINvXsd_NtNtNtNtCs2Zzx8WPYKXd_15otel_arrow_rust5proto13opentelemetry7metrics2v1NtB8_15ResourceMetricsNtNtCs9ugllKyEvyV_5prost7message7Message11merge_fieldQQNtNtNtCs87Lp0jQnWEh_5tonic5codec6buffer9DecodeBufE0Bg_
FNDA:0,_RNCINvXsd_NtNtNtNtCs2Zzx8WPYKXd_15otel_arrow_rust5proto13opentelemetry7metrics2v1NtB8_15ResourceMetricsNtNtCs9ugllKyEvyV_5prost7message7Message11merge_fieldQQNtNtNtCs87Lp0jQnWEh_5tonic5codec6buffer9DecodeBufEs0_0Bg_
FNDA:0,_RNCINvXsd_NtNtNtNtCs2Zzx8WPYKXd_15otel_arrow_rust5proto13opentelemetry7metrics2v1NtB8_15ResourceMetricsNtNtCs9ugllKyEvyV_5prost7message7Message11merge_fieldQQNtNtNtCs87Lp0jQnWEh_5tonic5codec6buffer9DecodeBufEs_0Bg_
FNDA:0,_RNCINvXsm_NtNtNtNtCs2Zzx8WPYKXd_15otel_arrow_rust5proto13opentelemetry7metrics2v1NtB8_12ScopeMetricsNtNtCs9ugllKyEvyV_5prost7message7Message11merge_fieldQQNtNtNtCs87Lp0jQnWEh_5tonic5codec6buffer9DecodeBufE0Bg_
FNDA:0,_RNCINvXsm_NtNtNtNtCs2Zzx8WPYKXd_15otel_arrow_rust5proto13opentelemetry7metrics2v1NtB8_12ScopeMetricsNtNtCs9ugllKyEvyV_5prost7message7Message11merge_fieldQQNtNtNtCs87Lp0jQnWEh_5tonic5codec6buffer9DecodeBufEs0_0Bg_
FNDA:0,_RNCINvXsm_NtNtNtNtCs2Zzx8WPYKXd_15otel_arrow_rust5proto13opentelemetry7metrics2v1NtB8_12ScopeMetricsNtNtCs9ugllKyEvyV_5prost7message7Message11merge_fieldQQNtNtNtCs87Lp0jQnWEh_5tonic5codec6buffer9DecodeBufEs_0Bg_
FNDA:0,_RNCINvXsv_NtNtNtNtCs2Zzx8WPYKXd_15otel_arrow_rust5proto13opentelemetry7metrics2v1NtB8_6MetricNtNtCs9ugllKyEvyV_5prost7message7Message11merge_fieldQQNtNtNtCs87Lp0jQnWEh_5tonic5codec6buffer9DecodeBufE0Bg_
FNDA:0,_RNCINvXsv_NtNtNtNtCs2Zzx8WPYKXd_15otel_arrow_rust5proto13opentelemetry7metrics2v1NtB8_6MetricNtNtCs9ugllKyEvyV_5prost7message7Message11merge_fieldQQNtNtNtCs87Lp0jQnWEh_5tonic5codec6buffer9DecodeBufEs0_0Bg_
FNDA:0,_RNCINvXsv_NtNtNtNtCs2Zzx8WPYKXd_15otel_arrow_rust5proto13opentelemetry7metrics2v1NtB8_6MetricNtNtCs9ugllKyEvyV_5prost7message7Message11merge_fieldQQNtNtNtCs87Lp0jQnWEh_5tonic5codec6buffer9DecodeBufEs1_0Bg_
FNDA:0,_RNCINvXsv_NtNtNtNtCs2Zzx8WPYKXd_15otel_arrow_rust5proto13opentelemetry7metrics2v1NtB8_6MetricNtNtCs9ugllKyEvyV_5prost7message7Message11merge_fieldQQNtNtNtCs87Lp0jQnWEh_5tonic5codec6buffer9DecodeBufEs2_0Bg_
FNDA:0,_RNCINvXsv_NtNtNtNtCs2Zzx8WPYKXd_15otel_arrow_rust5proto13opentelemetry7metrics2v1NtB8_6MetricNtNtCs9ugllKyEvyV_5prost7message7Message11merge_fieldQQNtNtNtCs87Lp0jQnWEh_5tonic5codec6buffer9DecodeBufEs_0Bg_
FNDA:0,_RNCNvXs1p_NtNtNtNtCs2Zzx8WPYKXd_15otel_arrow_rust5proto13opentelemetry7metrics2v1NtB8_18HistogramDataPointNtNtCs9ugllKyEvyV_5prost7message7Message11encoded_len0Bg_
FNDA:0,_RNCNvXs1p_NtNtNtNtCs2Zzx8WPYKXd_15otel_arrow_rust5proto13opentelemetry7metrics2v1NtB8_18HistogramDataPointNtNtCs9ugllKyEvyV_5prost7message7Message11encoded_lens0_0Bg_
FNDA:0,_RNCNvXs1p_NtNtNtNtCs2Zzx8WPYKXd_15otel_arrow_rust5proto13opentelemetry7metrics2v1NtB8_18HistogramDataPointNtNtCs9ugllKyEvyV_5prost7message7Message11encoded_lens_0Bg_
FNDA:0,_RNCNvXs1z_NtNtNtNtCs2Zzx8WPYKXd_15otel_arrow_rust5proto13opentelemetry7metrics2v1NtB8_29ExponentialHistogramDataPointNtNtCs9ugllKyEvyV_5prost7message7Message11encoded_len0Bg_
FNDA:0,_RNCNvXs1z_NtNtNtNtCs2Zzx8WPYKXd_15otel_arrow_rust5proto13opentelemetry7metrics2v1NtB8_29ExponentialHistogramDataPointNtNtCs9ugllKyEvyV_5prost7message7Message11encoded_lens0_0Bg_
FNDA:0,_RNCNvXs1z_NtNtNtNtCs2Zzx8WPYKXd_15otel_arrow_rust5proto13opentelemetry7metrics2v1NtB8_29ExponentialHistogramDataPointNtNtCs9ugllKyEvyV_5prost7message7Message11encoded_lens1_0Bg_
FNDA:0,_RNCNvXs1z_NtNtNtNtCs2Zzx8WPYKXd_15otel_arrow_rust5proto13opentelemetry7metrics2v1NtB8_29ExponentialHistogramDataPointNtNtCs9ugllKyEvyV_5prost7message7Message11encoded_lens2_0Bg_
FNDA:0,_RNCNvXs1z_NtNtNtNtCs2Zzx8WPYKXd_15otel_arrow_rust5proto13opentelemetry7metrics2v1NtB8_29ExponentialHistogramDataPointNtNtCs9ugllKyEvyV_5prost7message7Message11encoded_lens_0Bg_
FNDA:4,_RNCNvXsd_NtNtNtNtCs2Zzx8WPYKXd_15otel_arrow_rust5proto13opentelemetry7metrics2v1NtB7_15ResourceMetricsNtNtCs9ugllKyEvyV_5prost7message7Message11encoded_len0Bf_
FNDA:6,_RNCNvXsm_NtNtNtNtCs2Zzx8WPYKXd_15otel_arrow_rust5proto13opentelemetry7metrics2v1NtB7_12ScopeMetricsNtNtCs9ugllKyEvyV_5prost7message7Message11encoded_len0Bf_
FNDA:0,_RINvNvXs3_NtNtNtNtNtCs2Zzx8WPYKXd_15otel_arrow_rust5proto13opentelemetry7metrics2v18exemplarNtB8_5ValueNtNtCs8sCtDi7t2F4_4core3fmt5Debug3fmt13ScalarWrapperRdEBi_
FNDA:0,_RINvNvXs3_NtNtNtNtNtCs2Zzx8WPYKXd_15otel_arrow_rust5proto13opentelemetry7metrics2v18exemplarNtB8_5ValueNtNtCs8sCtDi7t2F4_4core3fmt5Debug3fmts_13ScalarWrapperRxEBi_
FNDA:0,_RNCINvMs2_NtNtNtNtNtCs2Zzx8WPYKXd_15otel_arrow_rust5proto13opentelemetry7metrics2v18exemplarNtB8_5Value5mergeQQNtNtNtCs87Lp0jQnWEh_5tonic5codec6buffer9DecodeBufE0Bi_
FNDA:0,_RNCINvMs2_NtNtNtNtNtCs2Zzx8WPYKXd_15otel_arrow_rust5proto13opentelemetry7metrics2v18exemplarNtB8_5Value5mergeQQNtNtNtCs87Lp0jQnWEh_5tonic5codec6buffer9DecodeBufEs_0Bi_
FNDA:0,_RNvXs3_NtNtNtNtNtCs2Zzx8WPYKXd_15otel_arrow_rust5proto13opentelemetry7metrics2v132exponential_histogram_data_pointNtB5_7BucketsNtNtCs8sCtDi7t2F4_4core7default7Default7default
FNDA:2,_RINvMNtNtNtNtNtCs2Zzx8WPYKXd_15otel_arrow_rust5proto13opentelemetry7metrics2v132exponential_histogram_data_pointNtB3_7Buckets3newlINtNtCshFLakfGc1jx_5alloc3vec3VecyEEBd_
FNDA:0,_RINvNvXNvXs4_NtNtNtNtNtCs2Zzx8WPYKXd_15otel_arrow_rust5proto13opentelemetry7metrics2v132exponential_histogram_data_pointNtBb_7BucketsNtNtCs8sCtDi7t2F4_4core3fmt5Debug3fmtNtB5_13ScalarWrapperB27_3fmt5InnerRyEBl_
FNDA:0,_RINvNvXs4_NtNtNtNtNtCs2Zzx8WPYKXd_15otel_arrow_rust5proto13opentelemetry7metrics2v132exponential_histogram_data_pointNtB8_7BucketsNtNtCs8sCtDi7t2F4_4core3fmt5Debug3fmt13ScalarWrapperRlEBi_
FNDA:0,_RNCINvXs2_NtNtNtNtNtCs2Zzx8WPYKXd_15otel_arrow_rust5proto13opentelemetry7metrics2v132exponential_histogram_data_pointNtB8_7BucketsNtNtCs9ugllKyEvyV_5prost7message7Message11merge_fieldQQNtNtNtCs87Lp0jQnWEh_5tonic5codec6buffer9DecodeBufE0Bi_
FNDA:0,_RNCINvXs2_NtNtNtNtNtCs2Zzx8WPYKXd_15otel_arrow_rust5proto13opentelemetry7metrics2v132exponential_histogram_data_pointNtB8_7BucketsNtNtCs9ugllKyEvyV_5prost7message7Message11merge_fieldQQNtNtNtCs87Lp0jQnWEh_5tonic5codec6buffer9DecodeBufEs_0Bi_
FNDA:6,_RINvMNtNtNtNtNtCs2Zzx8WPYKXd_15otel_arrow_rust5proto13opentelemetry7metrics2v118summary_data_pointNtB3_15ValueAtQuantile3newddEBd_
FNDA:0,_RINvNvXs5_NtNtNtNtNtCs2Zzx8WPYKXd_15otel_arrow_rust5proto13opentelemetry7metrics2v118summary_data_pointNtB8_15ValueAtQuantileNtNtCs8sCtDi7t2F4_4core3fmt5Debug3fmt13ScalarWrapperRdEBi_
FNDA:0,_RINvNvXs5_NtNtNtNtNtCs2Zzx8WPYKXd_15otel_arrow_rust5proto13opentelemetry7metrics2v118summary_data_pointNtB8_15ValueAtQuantileNtNtCs8sCtDi7t2F4_4core3fmt5Debug3fmts_13ScalarWrapperRdEBi_
FNDA:0,_RNCINvXs3_NtNtNtNtNtCs2Zzx8WPYKXd_15otel_arrow_rust5proto13opentelemetry7metrics2v118summary_data_pointNtB8_15ValueAtQuantileNtNtCs9ugllKyEvyV_5prost7message7Message11merge_fieldQQNtNtNtCs87Lp0jQnWEh_5tonic5codec6buffer9DecodeBufE0Bi_
FNDA:0,_RNCINvXs3_NtNtNtNtNtCs2Zzx8WPYKXd_15otel_arrow_rust5proto13opentelemetry7metrics2v118summary_data_pointNtB8_15ValueAtQuantileNtNtCs9ugllKyEvyV_5prost7message7Message11merge_fieldQQNtNtNtCs87Lp0jQnWEh_5tonic5codec6buffer9DecodeBufEs_0Bi_
FNF:25
FNH:17
DA:2,0
DA:9,14
DA:20,16
DA:31,17
DA:48,1
DA:62,14
DA:69,1
DA:80,1
DA:89,1
DA:98,1
DA:105,15
DA:124,1
DA:132,13
DA:159,7
DA:194,2
DA:204,12
DA:225,6
DA:235,10
DA:252,0
DA:260,0
DA:272,0
DA:273,0
DA:274,0
DA:275,0
DA:276,0
DA:278,0
DA:280,0
DA:281,0
DA:282,0
DA:283,0
DA:284,0
DA:285,0
DA:287,0
DA:289,0
DA:300,0
DA:301,0
DA:302,0
DA:303,0
DA:305,0
DA:307,0
DA:308,0
DA:309,0
DA:310,0
DA:311,0
DA:313,0
BRF:0
BRH:0
LF:45
LH:17
end_of_record
SF:/Users/d.dahl/code/otel-arrow/rust/otel-arrow-rust/src/proto/opentelemetry.proto.resource.v1.rs
FN:2,_RINvMs_NtNtNtNtCs2Zzx8WPYKXd_15otel_arrow_rust5proto13opentelemetry8resource2v1NtB5_15ResourceBuilder10attributespEBd_
FN:2,_RINvMs_NtNtNtNtCs2Zzx8WPYKXd_15otel_arrow_rust5proto13opentelemetry8resource2v1NtB5_15ResourceBuilder24dropped_attributes_countpEBd_
FN:2,_RNvXs0_NtNtNtNtCs2Zzx8WPYKXd_15otel_arrow_rust5proto13opentelemetry8resource2v1NtB5_8ResourceINtNtCs8sCtDi7t2F4_4core7convert4FromNtB5_15ResourceBuilderE4from
FN:2,_RNvXs4_NtNtNtNtCs2Zzx8WPYKXd_15otel_arrow_rust5proto13opentelemetry8resource2v1NtB5_8ResourceNtNtCs9ugllKyEvyV_5prost7message7Message5clear
FN:2,_RINvMNtNtNtNtCs2Zzx8WPYKXd_15otel_arrow_rust5proto13opentelemetry8resource2v1NtB3_8Resource3newINtNtCshFLakfGc1jx_5alloc3vec3VecNtNtNtB7_6common2v18KeyValueEEBb_
FN:2,_RINvMNtNtNtNtCs2Zzx8WPYKXd_15otel_arrow_rust5proto13opentelemetry8resource2v1NtB3_8Resource3newRANtNtNtB7_6common2v18KeyValuej1_EBb_
FN:2,_RINvMNtNtNtNtCs2Zzx8WPYKXd_15otel_arrow_rust5proto13opentelemetry8resource2v1NtB3_8Resource5buildRANtNtNtB7_6common2v18KeyValuej1_EBb_
FN:2,_RINvMs_NtNtNtNtCs2Zzx8WPYKXd_15otel_arrow_rust5proto13opentelemetry8resource2v1NtB5_15ResourceBuilder11entity_refsINtNtCshFLakfGc1jx_5alloc3vec3VecNtNtNtB9_6common2v19EntityRefEEBd_
FN:2,_RINvNvXs6_NtNtNtNtCs2Zzx8WPYKXd_15otel_arrow_rust5proto13opentelemetry8resource2v1NtB8_8ResourceNtNtCs8sCtDi7t2F4_4core3fmt5Debug3fmt13ScalarWrapperRmEBg_
FN:2,_RNCINvXs4_NtNtNtNtCs2Zzx8WPYKXd_15otel_arrow_rust5proto13opentelemetry8resource2v1NtB8_8ResourceNtNtCs9ugllKyEvyV_5prost7message7Message11merge_fieldQQNtNtNtCs87Lp0jQnWEh_5tonic5codec6buffer9DecodeBufE0Bg_
FN:2,_RNCINvXs4_NtNtNtNtCs2Zzx8WPYKXd_15otel_arrow_rust5proto13opentelemetry8resource2v1NtB8_8ResourceNtNtCs9ugllKyEvyV_5prost7message7Message11merge_fieldQQNtNtNtCs87Lp0jQnWEh_5tonic5codec6buffer9DecodeBufEs0_0Bg_
FN:2,_RNCINvXs4_NtNtNtNtCs2Zzx8WPYKXd_15otel_arrow_rust5proto13opentelemetry8resource2v1NtB8_8ResourceNtNtCs9ugllKyEvyV_5prost7message7Message11merge_fieldQQNtNtNtCs87Lp0jQnWEh_5tonic5codec6buffer9DecodeBufEs_0Bg_
FN:2,_RNvMs_NtNtNtNtCs2Zzx8WPYKXd_15otel_arrow_rust5proto13opentelemetry8resource2v1NtB4_15ResourceBuilder6finish
FN:2,_RNvXs5_NtNtNtNtCs2Zzx8WPYKXd_15otel_arrow_rust5proto13opentelemetry8resource2v1NtB5_8ResourceNtNtCs8sCtDi7t2F4_4core7default7Default7default
FNDA:0,_RINvMs_NtNtNtNtCs2Zzx8WPYKXd_15otel_arrow_rust5proto13opentelemetry8resource2v1NtB5_15ResourceBuilder10attributespEBd_
FNDA:0,_RINvMs_NtNtNtNtCs2Zzx8WPYKXd_15otel_arrow_rust5proto13opentelemetry8resource2v1NtB5_15ResourceBuilder24dropped_attributes_countpEBd_
FNDA:0,_RNvXs0_NtNtNtNtCs2Zzx8WPYKXd_15otel_arrow_rust5proto13opentelemetry8resource2v1NtB5_8ResourceINtNtCs8sCtDi7t2F4_4core7convert4FromNtB5_15ResourceBuilderE4from
FNDA:0,_RNvXs4_NtNtNtNtCs2Zzx8WPYKXd_15otel_arrow_rust5proto13opentelemetry8resource2v1NtB5_8ResourceNtNtCs9ugllKyEvyV_5prost7message7Message5clear
FNDA:2,_RINvMNtNtNtNtCs2Zzx8WPYKXd_15otel_arrow_rust5proto13opentelemetry8resource2v1NtB3_8Resource3newINtNtCshFLakfGc1jx_5alloc3vec3VecNtNtNtB7_6common2v18KeyValueEEBb_
FNDA:1,_RINvMNtNtNtNtCs2Zzx8WPYKXd_15otel_arrow_rust5proto13opentelemetry8resource2v1NtB3_8Resource3newRANtNtNtB7_6common2v18KeyValuej1_EBb_
FNDA:1,_RINvMNtNtNtNtCs2Zzx8WPYKXd_15otel_arrow_rust5proto13opentelemetry8resource2v1NtB3_8Resource5buildRANtNtNtB7_6common2v18KeyValuej1_EBb_
FNDA:1,_RINvMs_NtNtNtNtCs2Zzx8WPYKXd_15otel_arrow_rust5proto13opentelemetry8resource2v1NtB5_15ResourceBuilder11entity_refsINtNtCshFLakfGc1jx_5alloc3vec3VecNtNtNtB9_6common2v19EntityRefEEBd_
FNDA:0,_RINvNvXs6_NtNtNtNtCs2Zzx8WPYKXd_15otel_arrow_rust5proto13opentelemetry8resource2v1NtB8_8ResourceNtNtCs8sCtDi7t2F4_4core3fmt5Debug3fmt13ScalarWrapperRmEBg_
FNDA:0,_RNCINvXs4_NtNtNtNtCs2Zzx8WPYKXd_15otel_arrow_rust5proto13opentelemetry8resource2v1NtB8_8ResourceNtNtCs9ugllKyEvyV_5prost7message7Message11merge_fieldQQNtNtNtCs87Lp0jQnWEh_5tonic5codec6buffer9DecodeBufE0Bg_
FNDA:0,_RNCINvXs4_NtNtNtNtCs2Zzx8WPYKXd_15otel_arrow_rust5proto13opentelemetry8resource2v1NtB8_8ResourceNtNtCs9ugllKyEvyV_5prost7message7Message11merge_fieldQQNtNtNtCs87Lp0jQnWEh_5tonic5codec6buffer9DecodeBufEs0_0Bg_
FNDA:0,_RNCINvXs4_NtNtNtNtCs2Zzx8WPYKXd_15otel_arrow_rust5proto13opentelemetry8resource2v1NtB8_8ResourceNtNtCs9ugllKyEvyV_5prost7message7Message11merge_fieldQQNtNtNtCs87Lp0jQnWEh_5tonic5codec6buffer9DecodeBufEs_0Bg_
FNDA:1,_RNvMs_NtNtNtNtCs2Zzx8WPYKXd_15otel_arrow_rust5proto13opentelemetry8resource2v1NtB4_15ResourceBuilder6finish
FNDA:12,_RNvXs5_NtNtNtNtCs2Zzx8WPYKXd_15otel_arrow_rust5proto13opentelemetry8resource2v1NtB5_8ResourceNtNtCs8sCtDi7t2F4_4core7default7Default7default
FNF:1
FNH:1
DA:2,18
BRF:0
BRH:0
LF:1
LH:1
end_of_record
SF:/Users/d.dahl/code/otel-arrow/rust/otel-arrow-rust/src/proto/opentelemetry.proto.trace.v1.rs
FN:70,_RINvMs0_NtNtNtNtNtCs2Zzx8WPYKXd_15otel_arrow_rust5proto13opentelemetry5trace2v14spanNtB6_12EventBuilder10attributespEBg_
FN:70,_RINvMs0_NtNtNtNtNtCs2Zzx8WPYKXd_15otel_arrow_rust5proto13opentelemetry5trace2v14spanNtB6_12EventBuilder14time_unix_nanopEBg_
FN:70,_RINvMs0_NtNtNtNtNtCs2Zzx8WPYKXd_15otel_arrow_rust5proto13opentelemetry5trace2v14spanNtB6_12EventBuilder24dropped_attributes_countpEBg_
FN:70,_RINvMs0_NtNtNtNtNtCs2Zzx8WPYKXd_15otel_arrow_rust5proto13opentelemetry5trace2v14spanNtB6_12EventBuilder4namepEBg_
FN:9,_RINvMs7_NtNtNtNtCs2Zzx8WPYKXd_15otel_arrow_rust5proto13opentelemetry5trace2v1NtB6_20ResourceSpansBuilder10schema_urlpEBe_
FN:9,_RINvMs7_NtNtNtNtCs2Zzx8WPYKXd_15otel_arrow_rust5proto13opentelemetry5trace2v1NtB6_20ResourceSpansBuilder8resourcepEBe_
FN:83,_RINvMs8_NtNtNtNtNtCs2Zzx8WPYKXd_15otel_arrow_rust5proto13opentelemetry5trace2v14spanNtB6_4Link5buildppEBg_
FN:83,_RINvMs9_NtNtNtNtNtCs2Zzx8WPYKXd_15otel_arrow_rust5proto13opentelemetry5trace2v14spanNtB6_11LinkBuilder10attributespEBg_
FN:83,_RINvMs9_NtNtNtNtNtCs2Zzx8WPYKXd_15otel_arrow_rust5proto13opentelemetry5trace2v14spanNtB6_11LinkBuilder11trace_statepEBg_
FN:83,_RINvMs9_NtNtNtNtNtCs2Zzx8WPYKXd_15otel_arrow_rust5proto13opentelemetry5trace2v14spanNtB6_11LinkBuilder24dropped_attributes_countpEBg_
FN:83,_RINvMs9_NtNtNtNtNtCs2Zzx8WPYKXd_15otel_arrow_rust5proto13opentelemetry5trace2v14spanNtB6_11LinkBuilder5flagspEBg_
FN:83,_RINvMs9_NtNtNtNtNtCs2Zzx8WPYKXd_15otel_arrow_rust5proto13opentelemetry5trace2v14spanNtB6_11LinkBuilder7span_idpEBg_
FN:83,_RINvMs9_NtNtNtNtNtCs2Zzx8WPYKXd_15otel_arrow_rust5proto13opentelemetry5trace2v14spanNtB6_11LinkBuilder8trace_idpEBg_
FN:70,_RINvMs_NtNtNtNtNtCs2Zzx8WPYKXd_15otel_arrow_rust5proto13opentelemetry5trace2v14spanNtB5_5Event5buildppEBf_
FN:20,_RINvMsg_NtNtNtNtCs2Zzx8WPYKXd_15otel_arrow_rust5proto13opentelemetry5trace2v1NtB6_17ScopeSpansBuilder10schema_urlpEBe_
FN:20,_RINvMsg_NtNtNtNtCs2Zzx8WPYKXd_15otel_arrow_rust5proto13opentelemetry5trace2v1NtB6_17ScopeSpansBuilder5scopepEBe_
FN:31,_RINvMsp_NtNtNtNtCs2Zzx8WPYKXd_15otel_arrow_rust5proto13opentelemetry5trace2v1NtB6_11SpanBuilder20start_time_unix_nanopEBe_
FN:31,_RINvMsp_NtNtNtNtCs2Zzx8WPYKXd_15otel_arrow_rust5proto13opentelemetry5trace2v1NtB6_11SpanBuilder4namepEBe_
FN:31,_RINvMsp_NtNtNtNtCs2Zzx8WPYKXd_15otel_arrow_rust5proto13opentelemetry5trace2v1NtB6_11SpanBuilder7span_idpEBe_
FN:31,_RINvMsp_NtNtNtNtCs2Zzx8WPYKXd_15otel_arrow_rust5proto13opentelemetry5trace2v1NtB6_11SpanBuilder8trace_idpEBe_
FN:2,_RNCINvXs3_NtNtNtNtCs2Zzx8WPYKXd_15otel_arrow_rust5proto13opentelemetry5trace2v1NtB8_10TracesDataNtNtCs9ugllKyEvyV_5prost7message7Message11merge_fieldpE0Bg_
FN:193,_RNvMNtNtNtNtCs2Zzx8WPYKXd_15otel_arrow_rust5proto13opentelemetry5trace2v1NtB2_9SpanFlags11as_str_name
FN:202,_RNvMNtNtNtNtCs2Zzx8WPYKXd_15otel_arrow_rust5proto13opentelemetry5trace2v1NtB2_9SpanFlags13from_str_name
FN:115,_RNvMNtNtNtNtNtCs2Zzx8WPYKXd_15otel_arrow_rust5proto13opentelemetry5trace2v14spanNtB2_8SpanKind11as_str_name
FN:126,_RNvMNtNtNtNtNtCs2Zzx8WPYKXd_15otel_arrow_rust5proto13opentelemetry5trace2v14spanNtB2_8SpanKind13from_str_name
FN:162,_RNvMNtNtNtNtNtCs2Zzx8WPYKXd_15otel_arrow_rust5proto13opentelemetry5trace2v16statusNtB2_10StatusCode11as_str_name
FN:170,_RNvMNtNtNtNtNtCs2Zzx8WPYKXd_15otel_arrow_rust5proto13opentelemetry5trace2v16statusNtB2_10StatusCode13from_str_name
FN:70,_RNvMs0_NtNtNtNtNtCs2Zzx8WPYKXd_15otel_arrow_rust5proto13opentelemetry5trace2v14spanNtB5_12EventBuilder6finish
FN:83,_RNvMs9_NtNtNtNtNtCs2Zzx8WPYKXd_15otel_arrow_rust5proto13opentelemetry5trace2v14spanNtB5_11LinkBuilder6finish
FN:139,_RNvMsF_NtNtNtNtCs2Zzx8WPYKXd_15otel_arrow_rust5proto13opentelemetry5trace2v1NtB5_6Status4code
FN:139,_RNvMsF_NtNtNtNtCs2Zzx8WPYKXd_15otel_arrow_rust5proto13opentelemetry5trace2v1NtB5_6Status8set_code
FN:31,_RNvMsx_NtNtNtNtCs2Zzx8WPYKXd_15otel_arrow_rust5proto13opentelemetry5trace2v1NtB5_4Span4kind
FN:31,_RNvMsx_NtNtNtNtCs2Zzx8WPYKXd_15otel_arrow_rust5proto13opentelemetry5trace2v1NtB5_4Span8set_kind
FN:70,_RNvXs1_NtNtNtNtNtCs2Zzx8WPYKXd_15otel_arrow_rust5proto13opentelemetry5trace2v14spanNtB5_5EventINtNtCs8sCtDi7t2F4_4core7convert4FromNtB5_12EventBuilderE4from
FN:2,_RNvXs3_NtNtNtNtCs2Zzx8WPYKXd_15otel_arrow_rust5proto13opentelemetry5trace2v1NtB5_10TracesDataNtNtCs9ugllKyEvyV_5prost7message7Message11encoded_lenBd_
FN:2,_RNvXs3_NtNtNtNtCs2Zzx8WPYKXd_15otel_arrow_rust5proto13opentelemetry5trace2v1NtB5_10TracesDataNtNtCs9ugllKyEvyV_5prost7message7Message5clear
FN:2,_RNvXs4_NtNtNtNtCs2Zzx8WPYKXd_15otel_arrow_rust5proto13opentelemetry5trace2v1NtB5_10TracesDataNtNtCs8sCtDi7t2F4_4core7default7Default7default
FN:70,_RNvXs5_NtNtNtNtNtCs2Zzx8WPYKXd_15otel_arrow_rust5proto13opentelemetry5trace2v14spanNtB5_5EventNtNtCs9ugllKyEvyV_5prost7message7Message5clear
FN:9,_RNvXs8_NtNtNtNtCs2Zzx8WPYKXd_15otel_arrow_rust5proto13opentelemetry5trace2v1NtB5_13ResourceSpansINtNtCs8sCtDi7t2F4_4core7convert4FromNtB5_20ResourceSpansBuilderE4from
FN:139,_RNvXsC_NtNtNtNtCs2Zzx8WPYKXd_15otel_arrow_rust5proto13opentelemetry5trace2v1NtB5_6StatusNtNtCs9ugllKyEvyV_5prost7message7Message5clear
FN:180,_RNvXsQ_NtNtNtNtCs2Zzx8WPYKXd_15otel_arrow_rust5proto13opentelemetry5trace2v1NtB5_9SpanFlagsNtNtCs8sCtDi7t2F4_4core7default7Default7default
FN:180,_RNvXsR_NtNtNtNtCs2Zzx8WPYKXd_15otel_arrow_rust5proto13opentelemetry5trace2v1lINtNtCs8sCtDi7t2F4_4core7convert4FromNtB5_9SpanFlagsE4from
FN:83,_RNvXsa_NtNtNtNtNtCs2Zzx8WPYKXd_15otel_arrow_rust5proto13opentelemetry5trace2v14spanNtB5_4LinkINtNtCs8sCtDi7t2F4_4core7convert4FromNtB5_11LinkBuilderE4from
FN:150,_RNvXsa_NtNtNtNtNtCs2Zzx8WPYKXd_15otel_arrow_rust5proto13opentelemetry5trace2v16statuslINtNtCs8sCtDi7t2F4_4core7convert4FromNtB5_10StatusCodeE4from
FN:9,_RNvXsc_NtNtNtNtCs2Zzx8WPYKXd_15otel_arrow_rust5proto13opentelemetry5trace2v1NtB5_13ResourceSpansNtNtCs9ugllKyEvyV_5prost7message7Message5clear
FN:83,_RNvXse_NtNtNtNtNtCs2Zzx8WPYKXd_15otel_arrow_rust5proto13opentelemetry5trace2v14spanNtB5_4LinkNtNtCs9ugllKyEvyV_5prost7message7Message5clear
FN:20,_RNvXsh_NtNtNtNtCs2Zzx8WPYKXd_15otel_arrow_rust5proto13opentelemetry5trace2v1NtB5_10ScopeSpansINtNtCs8sCtDi7t2F4_4core7convert4FromNtB5_17ScopeSpansBuilderE4from
FN:20,_RNvXsl_NtNtNtNtCs2Zzx8WPYKXd_15otel_arrow_rust5proto13opentelemetry5trace2v1NtB5_10ScopeSpansNtNtCs9ugllKyEvyV_5prost7message7Message5clear
FN:31,_RNvXsq_NtNtNtNtCs2Zzx8WPYKXd_15otel_arrow_rust5proto13opentelemetry5trace2v1NtB5_4SpanINtNtCs8sCtDi7t2F4_4core7convert4FromNtB5_11SpanBuilderE4from
FN:100,_RNvXss_NtNtNtNtNtCs2Zzx8WPYKXd_15otel_arrow_rust5proto13opentelemetry5trace2v14spanlINtNtCs8sCtDi7t2F4_4core7convert4FromNtB5_8SpanKindE4from
FN:31,_RNvXsu_NtNtNtNtCs2Zzx8WPYKXd_15otel_arrow_rust5proto13opentelemetry5trace2v1NtB5_4SpanNtNtCs9ugllKyEvyV_5prost7message7Message5clear
FN:70,_RNvXs6_NtNtNtNtNtCs2Zzx8WPYKXd_15otel_arrow_rust5proto13opentelemetry5trace2v14spanNtB5_5EventNtNtCs8sCtDi7t2F4_4core7default7Default7default
FN:83,_RNvXsf_NtNtNtNtNtCs2Zzx8WPYKXd_15otel_arrow_rust5proto13opentelemetry5trace2v14spanNtB5_4LinkNtNtCs8sCtDi7t2F4_4core7default7Default7default
FN:100,_RNvXsr_NtNtNtNtNtCs2Zzx8WPYKXd_15otel_arrow_rust5proto13opentelemetry5trace2v14spanNtB5_8SpanKindNtNtCs8sCtDi7t2F4_4core7default7Default7default
FN:83,_RINvMs8_NtNtNtNtNtCs2Zzx8WPYKXd_15otel_arrow_rust5proto13opentelemetry5trace2v14spanNtB6_4Link3newNtNtBg_5pdata7TraceIDNtB1A_6SpanIDEBg_
FN:70,_RINvMs_NtNtNtNtNtCs2Zzx8WPYKXd_15otel_arrow_rust5proto13opentelemetry5trace2v14spanNtB5_5Event3newReyEBf_
FN:70,_RINvNvXs7_NtNtNtNtNtCs2Zzx8WPYKXd_15otel_arrow_rust5proto13opentelemetry5trace2v14spanNtB8_5EventNtNtCs8sCtDi7t2F4_4core3fmt5Debug3fmt13ScalarWrapperRyEBi_
FN:70,_RINvNvXs7_NtNtNtNtNtCs2Zzx8WPYKXd_15otel_arrow_rust5proto13opentelemetry5trace2v14spanNtB8_5EventNtNtCs8sCtDi7t2F4_4core3fmt5Debug3fmts0_13ScalarWrapperRmEBi_
FN:70,_RINvNvXs7_NtNtNtNtNtCs2Zzx8WPYKXd_15otel_arrow_rust5proto13opentelemetry5trace2v14spanNtB8_5EventNtNtCs8sCtDi7t2F4_4core3fmt5Debug3fmts_13ScalarWrapperRNtNtCshFLakfGc1jx_5alloc6string6StringEBi_
FN:83,_RINvNvXsg_NtNtNtNtNtCs2Zzx8WPYKXd_15otel_arrow_rust5proto13opentelemetry5trace2v14spanNtB8_4LinkNtNtCs8sCtDi7t2F4_4core3fmt5Debug3fmt13ScalarWrapperRINtNtCshFLakfGc1jx_5alloc3vec3VechEEBi_
FN:83,_RINvNvXsg_NtNtNtNtNtCs2Zzx8WPYKXd_15otel_arrow_rust5proto13opentelemetry5trace2v14spanNtB8_4LinkNtNtCs8sCtDi7t2F4_4core3fmt5Debug3fmts0_13ScalarWrapperRNtNtCshFLakfGc1jx_5alloc6string6StringEBi_
FN:83,_RINvNvXsg_NtNtNtNtNtCs2Zzx8WPYKXd_15otel_arrow_rust5proto13opentelemetry5trace2v14spanNtB8_4LinkNtNtCs8sCtDi7t2F4_4core3fmt5Debug3fmts1_13ScalarWrapperRmEBi_
FN:83,_RINvNvXsg_NtNtNtNtNtCs2Zzx8WPYKXd_15otel_arrow_rust5proto13opentelemetry5trace2v14spanNtB8_4LinkNtNtCs8sCtDi7t2F4_4core3fmt5Debug3fmts2_13ScalarWrapperRmEBi_
FN:83,_RINvNvXsg_NtNtNtNtNtCs2Zzx8WPYKXd_15otel_arrow_rust5proto13opentelemetry5trace2v14spanNtB8_4LinkNtNtCs8sCtDi7t2F4_4core3fmt5Debug3fmts_13ScalarWrapperRINtNtCshFLakfGc1jx_5alloc3vec3VechEEBi_
FN:70,_RNCINvXs5_NtNtNtNtNtCs2Zzx8WPYKXd_15otel_arrow_rust5proto13opentelemetry5trace2v14spanNtB8_5EventNtNtCs9ugllKyEvyV_5prost7message7Message11merge_fieldQQNtNtNtCs87Lp0jQnWEh_5tonic5codec6buffer9DecodeBufE0Bi_
FN:70,_RNCINvXs5_NtNtNtNtNtCs2Zzx8WPYKXd_15otel_arrow_rust5proto13opentelemetry5trace2v14spanNtB8_5EventNtNtCs9ugllKyEvyV_5prost7message7Message11merge_fieldQQNtNtNtCs87Lp0jQnWEh_5tonic5codec6buffer9DecodeBufEs0_0Bi_
FN:70,_RNCINvXs5_NtNtNtNtNtCs2Zzx8WPYKXd_15otel_arrow_rust5proto13opentelemetry5trace2v14spanNtB8_5EventNtNtCs9ugllKyEvyV_5prost7message7Message11merge_fieldQQNtNtNtCs87Lp0jQnWEh_5tonic5codec6buffer9DecodeBufEs1_0Bi_
FN:70,_RNCINvXs5_NtNtNtNtNtCs2Zzx8WPYKXd_15otel_arrow_rust5proto13opentelemetry5trace2v14spanNtB8_5EventNtNtCs9ugllKyEvyV_5prost7message7Message11merge_fieldQQNtNtNtCs87Lp0jQnWEh_5tonic5codec6buffer9DecodeBufEs_0Bi_
FN:83,_RNCINvXse_NtNtNtNtNtCs2Zzx8WPYKXd_15otel_arrow_rust5proto13opentelemetry5trace2v14spanNtB8_4LinkNtNtCs9ugllKyEvyV_5prost7message7Message11merge_fieldQQNtNtNtCs87Lp0jQnWEh_5tonic5codec6buffer9DecodeBufE0Bi_
FN:83,_RNCINvXse_NtNtNtNtNtCs2Zzx8WPYKXd_15otel_arrow_rust5proto13opentelemetry5trace2v14spanNtB8_4LinkNtNtCs9ugllKyEvyV_5prost7message7Message11merge_fieldQQNtNtNtCs87Lp0jQnWEh_5tonic5codec6buffer9DecodeBufEs0_0Bi_
FN:83,_RNCINvXse_NtNtNtNtNtCs2Zzx8WPYKXd_15otel_arrow_rust5proto13opentelemetry5trace2v14spanNtB8_4LinkNtNtCs9ugllKyEvyV_5prost7message7Message11merge_fieldQQNtNtNtCs87Lp0jQnWEh_5tonic5codec6buffer9DecodeBufEs1_0Bi_
FN:83,_RNCINvXse_NtNtNtNtNtCs2Zzx8WPYKXd_15otel_arrow_rust5proto13opentelemetry5trace2v14spanNtB8_4LinkNtNtCs9ugllKyEvyV_5prost7message7Message11merge_fieldQQNtNtNtCs87Lp0jQnWEh_5tonic5codec6buffer9DecodeBufEs2_0Bi_
FN:83,_RNCINvXse_NtNtNtNtNtCs2Zzx8WPYKXd_15otel_arrow_rust5proto13opentelemetry5trace2v14spanNtB8_4LinkNtNtCs9ugllKyEvyV_5prost7message7Message11merge_fieldQQNtNtNtCs87Lp0jQnWEh_5tonic5codec6buffer9DecodeBufEs3_0Bi_
FN:83,_RNCINvXse_NtNtNtNtNtCs2Zzx8WPYKXd_15otel_arrow_rust5proto13opentelemetry5trace2v14spanNtB8_4LinkNtNtCs9ugllKyEvyV_5prost7message7Message11merge_fieldQQNtNtNtCs87Lp0jQnWEh_5tonic5codec6buffer9DecodeBufEs_0Bi_
FN:150,_RNvXs9_NtNtNtNtNtCs2Zzx8WPYKXd_15otel_arrow_rust5proto13opentelemetry5trace2v16statusNtB5_10StatusCodeNtNtCs8sCtDi7t2F4_4core7default7Default7default
FN:9,_RINvMs6_NtNtNtNtCs2Zzx8WPYKXd_15otel_arrow_rust5proto13opentelemetry5trace2v1NtB6_13ResourceSpans3newNtNtNtBa_8resource2v18ResourceEBe_
FN:9,_RINvMs6_NtNtNtNtCs2Zzx8WPYKXd_15otel_arrow_rust5proto13opentelemetry5trace2v1NtB6_13ResourceSpans5buildNtNtNtBa_8resource2v18ResourceEBe_
FN:9,_RINvMs7_NtNtNtNtCs2Zzx8WPYKXd_15otel_arrow_rust5proto13opentelemetry5trace2v1NtB6_20ResourceSpansBuilder11scope_spansINtNtCshFLakfGc1jx_5alloc3vec3VecNtB6_10ScopeSpansEEBe_
FN:2,_RINvMs_NtNtNtNtCs2Zzx8WPYKXd_15otel_arrow_rust5proto13opentelemetry5trace2v1NtB5_10TracesData3newINtNtCshFLakfGc1jx_5alloc3vec3VecNtB5_13ResourceSpansEEBd_
FN:20,_RINvMsf_NtNtNtNtCs2Zzx8WPYKXd_15otel_arrow_rust5proto13opentelemetry5trace2v1NtB6_10ScopeSpans3newNtNtNtBa_6common2v120InstrumentationScopeEBe_
FN:20,_RINvMsf_NtNtNtNtCs2Zzx8WPYKXd_15otel_arrow_rust5proto13opentelemetry5trace2v1NtB6_10ScopeSpans5buildNtNtNtBa_6common2v120InstrumentationScopeEBe_
FN:20,_RINvMsg_NtNtNtNtCs2Zzx8WPYKXd_15otel_arrow_rust5proto13opentelemetry5trace2v1NtB6_17ScopeSpansBuilder5spansINtNtCshFLakfGc1jx_5alloc3vec3VecNtB6_4SpanEEBe_
FN:31,_RINvMso_NtNtNtNtCs2Zzx8WPYKXd_15otel_arrow_rust5proto13opentelemetry5trace2v1NtB6_4Span3newNtNtBe_5pdata7TraceIDNtB1t_6SpanIDReyEBe_
FN:31,_RINvMso_NtNtNtNtCs2Zzx8WPYKXd_15otel_arrow_rust5proto13opentelemetry5trace2v1NtB6_4Span5buildNtNtBe_5pdata7TraceIDNtB1v_6SpanIDReyEBe_
FN:31,_RINvMsp_NtNtNtNtCs2Zzx8WPYKXd_15otel_arrow_rust5proto13opentelemetry5trace2v1NtB6_11SpanBuilder10attributesINtNtCshFLakfGc1jx_5alloc3vec3VecNtNtNtBa_6common2v18KeyValueEEBe_
FN:31,_RINvMsp_NtNtNtNtCs2Zzx8WPYKXd_15otel_arrow_rust5proto13opentelemetry5trace2v1NtB6_11SpanBuilder11trace_stateReEBe_
FN:31,_RINvMsp_NtNtNtNtCs2Zzx8WPYKXd_15otel_arrow_rust5proto13opentelemetry5trace2v1NtB6_11SpanBuilder14parent_span_idNtNtBe_5pdata6SpanIDEBe_
FN:31,_RINvMsp_NtNtNtNtCs2Zzx8WPYKXd_15otel_arrow_rust5proto13opentelemetry5trace2v1NtB6_11SpanBuilder18end_time_unix_nanoyEBe_
FN:31,_RINvMsp_NtNtNtNtCs2Zzx8WPYKXd_15otel_arrow_rust5proto13opentelemetry5trace2v1NtB6_11SpanBuilder19dropped_links_countmEBe_
FN:31,_RINvMsp_NtNtNtNtCs2Zzx8WPYKXd_15otel_arrow_rust5proto13opentelemetry5trace2v1NtB6_11SpanBuilder20dropped_events_countmEBe_
FN:31,_RINvMsp_NtNtNtNtCs2Zzx8WPYKXd_15otel_arrow_rust5proto13opentelemetry5trace2v1NtB6_11SpanBuilder24dropped_attributes_countmEBe_
FN:31,_RINvMsp_NtNtNtNtCs2Zzx8WPYKXd_15otel_arrow_rust5proto13opentelemetry5trace2v1NtB6_11SpanBuilder4kindNtNtB6_4span8SpanKindEBe_
FN:31,_RINvMsp_NtNtNtNtCs2Zzx8WPYKXd_15otel_arrow_rust5proto13opentelemetry5trace2v1NtB6_11SpanBuilder5flagsNtB6_9SpanFlagsEBe_
FN:31,_RINvMsp_NtNtNtNtCs2Zzx8WPYKXd_15otel_arrow_rust5proto13opentelemetry5trace2v1NtB6_11SpanBuilder5linksINtNtCshFLakfGc1jx_5alloc3vec3VecNtNtB6_4span4LinkEEBe_
FN:31,_RINvMsp_NtNtNtNtCs2Zzx8WPYKXd_15otel_arrow_rust5proto13opentelemetry5trace2v1NtB6_11SpanBuilder6eventsINtNtCshFLakfGc1jx_5alloc3vec3VecNtNtB6_4span5EventEEBe_
FN:31,_RINvMsp_NtNtNtNtCs2Zzx8WPYKXd_15otel_arrow_rust5proto13opentelemetry5trace2v1NtB6_11SpanBuilder6statusNtB6_6StatusEBe_
FN:139,_RINvMsy_NtNtNtNtCs2Zzx8WPYKXd_15otel_arrow_rust5proto13opentelemetry5trace2v1NtB6_6Status3newReNtNtB6_6status10StatusCodeEBe_
FN:139,_RINvNvXsE_NtNtNtNtCs2Zzx8WPYKXd_15otel_arrow_rust5proto13opentelemetry5trace2v1NtB8_6StatusNtNtCs8sCtDi7t2F4_4core3fmt5Debug3fmt13ScalarWrapperRNtNtCshFLakfGc1jx_5alloc6string6StringEBg_
FN:9,_RINvNvXse_NtNtNtNtCs2Zzx8WPYKXd_15otel_arrow_rust5proto13opentelemetry5trace2v1NtB8_13ResourceSpansNtNtCs8sCtDi7t2F4_4core3fmt5Debug3fmt13ScalarWrapperRNtNtCshFLakfGc1jx_5alloc6string6StringEBg_
FN:20,_RINvNvXsn_NtNtNtNtCs2Zzx8WPYKXd_15otel_arrow_rust5proto13opentelemetry5trace2v1NtB8_10ScopeSpansNtNtCs8sCtDi7t2F4_4core3fmt5Debug3fmt13ScalarWrapperRNtNtCshFLakfGc1jx_5alloc6string6StringEBg_
FN:31,_RINvNvXsw_NtNtNtNtCs2Zzx8WPYKXd_15otel_arrow_rust5proto13opentelemetry5trace2v1NtB8_4SpanNtNtCs8sCtDi7t2F4_4core3fmt5Debug3fmt13ScalarWrapperRINtNtCshFLakfGc1jx_5alloc3vec3VechEEBg_
FN:31,_RINvNvXsw_NtNtNtNtCs2Zzx8WPYKXd_15otel_arrow_rust5proto13opentelemetry5trace2v1NtB8_4SpanNtNtCs8sCtDi7t2F4_4core3fmt5Debug3fmts0_13ScalarWrapperRNtNtCshFLakfGc1jx_5alloc6string6StringEBg_
FN:31,_RINvNvXsw_NtNtNtNtCs2Zzx8WPYKXd_15otel_arrow_rust5proto13opentelemetry5trace2v1NtB8_4SpanNtNtCs8sCtDi7t2F4_4core3fmt5Debug3fmts1_13ScalarWrapperRINtNtCshFLakfGc1jx_5alloc3vec3VechEEBg_
FN:31,_RINvNvXsw_NtNtNtNtCs2Zzx8WPYKXd_15otel_arrow_rust5proto13opentelemetry5trace2v1NtB8_4SpanNtNtCs8sCtDi7t2F4_4core3fmt5Debug3fmts2_13ScalarWrapperRmEBg_
FN:31,_RINvNvXsw_NtNtNtNtCs2Zzx8WPYKXd_15otel_arrow_rust5proto13opentelemetry5trace2v1NtB8_4SpanNtNtCs8sCtDi7t2F4_4core3fmt5Debug3fmts3_13ScalarWrapperRNtNtCshFLakfGc1jx_5alloc6string6StringEBg_
FN:31,_RINvNvXsw_NtNtNtNtCs2Zzx8WPYKXd_15otel_arrow_rust5proto13opentelemetry5trace2v1NtB8_4SpanNtNtCs8sCtDi7t2F4_4core3fmt5Debug3fmts4_13ScalarWrapperRyEBg_
FN:31,_RINvNvXsw_NtNtNtNtCs2Zzx8WPYKXd_15otel_arrow_rust5proto13opentelemetry5trace2v1NtB8_4SpanNtNtCs8sCtDi7t2F4_4core3fmt5Debug3fmts5_13ScalarWrapperRyEBg_
FN:31,_RINvNvXsw_NtNtNtNtCs2Zzx8WPYKXd_15otel_arrow_rust5proto13opentelemetry5trace2v1NtB8_4SpanNtNtCs8sCtDi7t2F4_4core3fmt5Debug3fmts6_13ScalarWrapperRmEBg_
FN:31,_RINvNvXsw_NtNtNtNtCs2Zzx8WPYKXd_15otel_arrow_rust5proto13opentelemetry5trace2v1NtB8_4SpanNtNtCs8sCtDi7t2F4_4core3fmt5Debug3fmts7_13ScalarWrapperRmEBg_
FN:31,_RINvNvXsw_NtNtNtNtCs2Zzx8WPYKXd_15otel_arrow_rust5proto13opentelemetry5trace2v1NtB8_4SpanNtNtCs8sCtDi7t2F4_4core3fmt5Debug3fmts8_13ScalarWrapperRmEBg_
FN:31,_RINvNvXsw_NtNtNtNtCs2Zzx8WPYKXd_15otel_arrow_rust5proto13opentelemetry5trace2v1NtB8_4SpanNtNtCs8sCtDi7t2F4_4core3fmt5Debug3fmts_13ScalarWrapperRINtNtCshFLakfGc1jx_5alloc3vec3VechEEBg_
FN:139,_RNCINvXsC_NtNtNtNtCs2Zzx8WPYKXd_15otel_arrow_rust5proto13opentelemetry5trace2v1NtB8_6StatusNtNtCs9ugllKyEvyV_5prost7message7Message11merge_fieldQQNtNtNtCs87Lp0jQnWEh_5tonic5codec6buffer9DecodeBufE0Bg_
FN:139,_RNCINvXsC_NtNtNtNtCs2Zzx8WPYKXd_15otel_arrow_rust5proto13opentelemetry5trace2v1NtB8_6StatusNtNtCs9ugllKyEvyV_5prost7message7Message11merge_fieldQQNtNtNtCs87Lp0jQnWEh_5tonic5codec6buffer9DecodeBufEs_0Bg_
FN:9,_RNCINvXsc_NtNtNtNtCs2Zzx8WPYKXd_15otel_arrow_rust5proto13opentelemetry5trace2v1NtB8_13ResourceSpansNtNtCs9ugllKyEvyV_5prost7message7Message11merge_fieldQQNtNtNtCs87Lp0jQnWEh_5tonic5codec6buffer9DecodeBufE0Bg_
FN:9,_RNCINvXsc_NtNtNtNtCs2Zzx8WPYKXd_15otel_arrow_rust5proto13opentelemetry5trace2v1NtB8_13ResourceSpansNtNtCs9ugllKyEvyV_5prost7message7Message11merge_fieldQQNtNtNtCs87Lp0jQnWEh_5tonic5codec6buffer9DecodeBufEs0_0Bg_
FN:9,_RNCINvXsc_NtNtNtNtCs2Zzx8WPYKXd_15otel_arrow_rust5proto13opentelemetry5trace2v1NtB8_13ResourceSpansNtNtCs9ugllKyEvyV_5prost7message7Message11merge_fieldQQNtNtNtCs87Lp0jQnWEh_5tonic5codec6buffer9DecodeBufEs_0Bg_
FN:20,_RNCINvXsl_NtNtNtNtCs2Zzx8WPYKXd_15otel_arrow_rust5proto13opentelemetry5trace2v1NtB8_10ScopeSpansNtNtCs9ugllKyEvyV_5prost7message7Message11merge_fieldQQNtNtNtCs87Lp0jQnWEh_5tonic5codec6buffer9DecodeBufE0Bg_
FN:20,_RNCINvXsl_NtNtNtNtCs2Zzx8WPYKXd_15otel_arrow_rust5proto13opentelemetry5trace2v1NtB8_10ScopeSpansNtNtCs9ugllKyEvyV_5prost7message7Message11merge_fieldQQNtNtNtCs87Lp0jQnWEh_5tonic5codec6buffer9DecodeBufEs0_0Bg_
FN:20,_RNCINvXsl_NtNtNtNtCs2Zzx8WPYKXd_15otel_arrow_rust5proto13opentelemetry5trace2v1NtB8_10ScopeSpansNtNtCs9ugllKyEvyV_5prost7message7Message11merge_fieldQQNtNtNtCs87Lp0jQnWEh_5tonic5codec6buffer9DecodeBufEs_0Bg_
FN:31,_RNCINvXsu_NtNtNtNtCs2Zzx8WPYKXd_15otel_arrow_rust5proto13opentelemetry5trace2v1NtB8_4SpanNtNtCs9ugllKyEvyV_5prost7message7Message11merge_fieldQQNtNtNtCs87Lp0jQnWEh_5tonic5codec6buffer9DecodeBufE0Bg_
FN:31,_RNCINvXsu_NtNtNtNtCs2Zzx8WPYKXd_15otel_arrow_rust5proto13opentelemetry5trace2v1NtB8_4SpanNtNtCs9ugllKyEvyV_5prost7message7Message11merge_fieldQQNtNtNtCs87Lp0jQnWEh_5tonic5codec6buffer9DecodeBufEs0_0Bg_
FN:31,_RNCINvXsu_NtNtNtNtCs2Zzx8WPYKXd_15otel_arrow_rust5proto13opentelemetry5trace2v1NtB8_4SpanNtNtCs9ugllKyEvyV_5prost7message7Message11merge_fieldQQNtNtNtCs87Lp0jQnWEh_5tonic5codec6buffer9DecodeBufEs1_0Bg_
FN:31,_RNCINvXsu_NtNtNtNtCs2Zzx8WPYKXd_15otel_arrow_rust5proto13opentelemetry5trace2v1NtB8_4SpanNtNtCs9ugllKyEvyV_5prost7message7Message11merge_fieldQQNtNtNtCs87Lp0jQnWEh_5tonic5codec6buffer9DecodeBufEs2_0Bg_
FN:31,_RNCINvXsu_NtNtNtNtCs2Zzx8WPYKXd_15otel_arrow_rust5proto13opentelemetry5trace2v1NtB8_4SpanNtNtCs9ugllKyEvyV_5prost7message7Message11merge_fieldQQNtNtNtCs87Lp0jQnWEh_5tonic5codec6buffer9DecodeBufEs3_0Bg_
FN:31,_RNCINvXsu_NtNtNtNtCs2Zzx8WPYKXd_15otel_arrow_rust5proto13opentelemetry5trace2v1NtB8_4SpanNtNtCs9ugllKyEvyV_5prost7message7Message11merge_fieldQQNtNtNtCs87Lp0jQnWEh_5tonic5codec6buffer9DecodeBufEs4_0Bg_
FN:31,_RNCINvXsu_NtNtNtNtCs2Zzx8WPYKXd_15otel_arrow_rust5proto13opentelemetry5trace2v1NtB8_4SpanNtNtCs9ugllKyEvyV_5prost7message7Message11merge_fieldQQNtNtNtCs87Lp0jQnWEh_5tonic5codec6buffer9DecodeBufEs5_0Bg_
FN:31,_RNCINvXsu_NtNtNtNtCs2Zzx8WPYKXd_15otel_arrow_rust5proto13opentelemetry5trace2v1NtB8_4SpanNtNtCs9ugllKyEvyV_5prost7message7Message11merge_fieldQQNtNtNtCs87Lp0jQnWEh_5tonic5codec6buffer9DecodeBufEs6_0Bg_
FN:31,_RNCINvXsu_NtNtNtNtCs2Zzx8WPYKXd_15otel_arrow_rust5proto13opentelemetry5trace2v1NtB8_4SpanNtNtCs9ugllKyEvyV_5prost7message7Message11merge_fieldQQNtNtNtCs87Lp0jQnWEh_5tonic5codec6buffer9DecodeBufEs7_0Bg_
FN:31,_RNCINvXsu_NtNtNtNtCs2Zzx8WPYKXd_15otel_arrow_rust5proto13opentelemetry5trace2v1NtB8_4SpanNtNtCs9ugllKyEvyV_5prost7message7Message11merge_fieldQQNtNtNtCs87Lp0jQnWEh_5tonic5codec6buffer9DecodeBufEs8_0Bg_
FN:31,_RNCINvXsu_NtNtNtNtCs2Zzx8WPYKXd_15otel_arrow_rust5proto13opentelemetry5trace2v1NtB8_4SpanNtNtCs9ugllKyEvyV_5prost7message7Message11merge_fieldQQNtNtNtCs87Lp0jQnWEh_5tonic5codec6buffer9DecodeBufEs9_0Bg_
FN:31,_RNCINvXsu_NtNtNtNtCs2Zzx8WPYKXd_15otel_arrow_rust5proto13opentelemetry5trace2v1NtB8_4SpanNtNtCs9ugllKyEvyV_5prost7message7Message11merge_fieldQQNtNtNtCs87Lp0jQnWEh_5tonic5codec6buffer9DecodeBufEs_0Bg_
FN:31,_RNCINvXsu_NtNtNtNtCs2Zzx8WPYKXd_15otel_arrow_rust5proto13opentelemetry5trace2v1NtB8_4SpanNtNtCs9ugllKyEvyV_5prost7message7Message11merge_fieldQQNtNtNtCs87Lp0jQnWEh_5tonic5codec6buffer9DecodeBufEsa_0Bg_
FN:31,_RNCINvXsu_NtNtNtNtCs2Zzx8WPYKXd_15otel_arrow_rust5proto13opentelemetry5trace2v1NtB8_4SpanNtNtCs9ugllKyEvyV_5prost7message7Message11merge_fieldQQNtNtNtCs87Lp0jQnWEh_5tonic5codec6buffer9DecodeBufEsb_0Bg_
FN:31,_RNCINvXsu_NtNtNtNtCs2Zzx8WPYKXd_15otel_arrow_rust5proto13opentelemetry5trace2v1NtB8_4SpanNtNtCs9ugllKyEvyV_5prost7message7Message11merge_fieldQQNtNtNtCs87Lp0jQnWEh_5tonic5codec6buffer9DecodeBufEsc_0Bg_
FN:31,_RNCINvXsu_NtNtNtNtCs2Zzx8WPYKXd_15otel_arrow_rust5proto13opentelemetry5trace2v1NtB8_4SpanNtNtCs9ugllKyEvyV_5prost7message7Message11merge_fieldQQNtNtNtCs87Lp0jQnWEh_5tonic5codec6buffer9DecodeBufEsd_0Bg_
FN:9,_RNCNvXsc_NtNtNtNtCs2Zzx8WPYKXd_15otel_arrow_rust5proto13opentelemetry5trace2v1NtB7_13ResourceSpansNtNtCs9ugllKyEvyV_5prost7message7Message11encoded_len0Bf_
FN:20,_RNCNvXsl_NtNtNtNtCs2Zzx8WPYKXd_15otel_arrow_rust5proto13opentelemetry5trace2v1NtB7_10ScopeSpansNtNtCs9ugllKyEvyV_5prost7message7Message11encoded_len0Bf_
FN:31,_RNCNvXsu_NtNtNtNtCs2Zzx8WPYKXd_15otel_arrow_rust5proto13opentelemetry5trace2v1NtB7_4SpanNtNtCs9ugllKyEvyV_5prost7message7Message11encoded_len0Bf_
FN:9,_RNvMs7_NtNtNtNtCs2Zzx8WPYKXd_15otel_arrow_rust5proto13opentelemetry5trace2v1NtB5_20ResourceSpansBuilder6finish
FN:20,_RNvMsg_NtNtNtNtCs2Zzx8WPYKXd_15otel_arrow_rust5proto13opentelemetry5trace2v1NtB5_17ScopeSpansBuilder6finish
FN:31,_RNvMsp_NtNtNtNtCs2Zzx8WPYKXd_15otel_arrow_rust5proto13opentelemetry5trace2v1NtB5_11SpanBuilder6finish
FN:2,_RNvXs5_NtNtNtNtCs2Zzx8WPYKXd_15otel_arrow_rust5proto13opentelemetry5trace2v1NtB5_10TracesDataNtNtCs8sCtDi7t2F4_4core3fmt5Debug3fmt
FN:139,_RNvXsD_NtNtNtNtCs2Zzx8WPYKXd_15otel_arrow_rust5proto13opentelemetry5trace2v1NtB5_6StatusNtNtCs8sCtDi7t2F4_4core7default7Default7default
FN:9,_RNvXsd_NtNtNtNtCs2Zzx8WPYKXd_15otel_arrow_rust5proto13opentelemetry5trace2v1NtB5_13ResourceSpansNtNtCs8sCtDi7t2F4_4core7default7Default7default
FN:20,_RNvXsm_NtNtNtNtCs2Zzx8WPYKXd_15otel_arrow_rust5proto13opentelemetry5trace2v1NtB5_10ScopeSpansNtNtCs8sCtDi7t2F4_4core7default7Default7default
FN:31,_RNvXsv_NtNtNtNtCs2Zzx8WPYKXd_15otel_arrow_rust5proto13opentelemetry5trace2v1NtB5_4SpanNtNtCs8sCtDi7t2F4_4core7default7Default7default
FNDA:0,_RINvMs0_NtNtNtNtNtCs2Zzx8WPYKXd_15otel_arrow_rust5proto13opentelemetry5trace2v14spanNtB6_12EventBuilder10attributespEBg_
FNDA:0,_RINvMs0_NtNtNtNtNtCs2Zzx8WPYKXd_15otel_arrow_rust5proto13opentelemetry5trace2v14spanNtB6_12EventBuilder14time_unix_nanopEBg_
FNDA:0,_RINvMs0_NtNtNtNtNtCs2Zzx8WPYKXd_15otel_arrow_rust5proto13opentelemetry5trace2v14spanNtB6_12EventBuilder24dropped_attributes_countpEBg_
FNDA:0,_RINvMs0_NtNtNtNtNtCs2Zzx8WPYKXd_15otel_arrow_rust5proto13opentelemetry5trace2v14spanNtB6_12EventBuilder4namepEBg_
FNDA:0,_RINvMs7_NtNtNtNtCs2Zzx8WPYKXd_15otel_arrow_rust5proto13opentelemetry5trace2v1NtB6_20ResourceSpansBuilder10schema_urlpEBe_
FNDA:0,_RINvMs7_NtNtNtNtCs2Zzx8WPYKXd_15otel_arrow_rust5proto13opentelemetry5trace2v1NtB6_20ResourceSpansBuilder8resourcepEBe_
FNDA:0,_RINvMs8_NtNtNtNtNtCs2Zzx8WPYKXd_15otel_arrow_rust5proto13opentelemetry5trace2v14spanNtB6_4Link5buildppEBg_
FNDA:0,_RINvMs9_NtNtNtNtNtCs2Zzx8WPYKXd_15otel_arrow_rust5proto13opentelemetry5trace2v14spanNtB6_11LinkBuilder10attributespEBg_
FNDA:0,_RINvMs9_NtNtNtNtNtCs2Zzx8WPYKXd_15otel_arrow_rust5proto13opentelemetry5trace2v14spanNtB6_11LinkBuilder11trace_statepEBg_
FNDA:0,_RINvMs9_NtNtNtNtNtCs2Zzx8WPYKXd_15otel_arrow_rust5proto13opentelemetry5trace2v14spanNtB6_11LinkBuilder24dropped_attributes_countpEBg_
FNDA:0,_RINvMs9_NtNtNtNtNtCs2Zzx8WPYKXd_15otel_arrow_rust5proto13opentelemetry5trace2v14spanNtB6_11LinkBuilder5flagspEBg_
FNDA:0,_RINvMs9_NtNtNtNtNtCs2Zzx8WPYKXd_15otel_arrow_rust5proto13opentelemetry5trace2v14spanNtB6_11LinkBuilder7span_idpEBg_
FNDA:0,_RINvMs9_NtNtNtNtNtCs2Zzx8WPYKXd_15otel_arrow_rust5proto13opentelemetry5trace2v14spanNtB6_11LinkBuilder8trace_idpEBg_
FNDA:0,_RINvMs_NtNtNtNtNtCs2Zzx8WPYKXd_15otel_arrow_rust5proto13opentelemetry5trace2v14spanNtB5_5Event5buildppEBf_
FNDA:0,_RINvMsg_NtNtNtNtCs2Zzx8WPYKXd_15otel_arrow_rust5proto13opentelemetry5trace2v1NtB6_17ScopeSpansBuilder10schema_urlpEBe_
FNDA:0,_RINvMsg_NtNtNtNtCs2Zzx8WPYKXd_15otel_arrow_rust5proto13opentelemetry5trace2v1NtB6_17ScopeSpansBuilder5scopepEBe_
FNDA:0,_RINvMsp_NtNtNtNtCs2Zzx8WPYKXd_15otel_arrow_rust5proto13opentelemetry5trace2v1NtB6_11SpanBuilder20start_time_unix_nanopEBe_
FNDA:0,_RINvMsp_NtNtNtNtCs2Zzx8WPYKXd_15otel_arrow_rust5proto13opentelemetry5trace2v1NtB6_11SpanBuilder4namepEBe_
FNDA:0,_RINvMsp_NtNtNtNtCs2Zzx8WPYKXd_15otel_arrow_rust5proto13opentelemetry5trace2v1NtB6_11SpanBuilder7span_idpEBe_
FNDA:0,_RINvMsp_NtNtNtNtCs2Zzx8WPYKXd_15otel_arrow_rust5proto13opentelemetry5trace2v1NtB6_11SpanBuilder8trace_idpEBe_
FNDA:0,_RNCINvXs3_NtNtNtNtCs2Zzx8WPYKXd_15otel_arrow_rust5proto13opentelemetry5trace2v1NtB8_10TracesDataNtNtCs9ugllKyEvyV_5prost7message7Message11merge_fieldpE0Bg_
FNDA:0,_RNvMNtNtNtNtCs2Zzx8WPYKXd_15otel_arrow_rust5proto13opentelemetry5trace2v1NtB2_9SpanFlags11as_str_name
FNDA:0,_RNvMNtNtNtNtCs2Zzx8WPYKXd_15otel_arrow_rust5proto13opentelemetry5trace2v1NtB2_9SpanFlags13from_str_name
FNDA:0,_RNvMNtNtNtNtNtCs2Zzx8WPYKXd_15otel_arrow_rust5proto13opentelemetry5trace2v14spanNtB2_8SpanKind11as_str_name
FNDA:0,_RNvMNtNtNtNtNtCs2Zzx8WPYKXd_15otel_arrow_rust5proto13opentelemetry5trace2v14spanNtB2_8SpanKind13from_str_name
FNDA:0,_RNvMNtNtNtNtNtCs2Zzx8WPYKXd_15otel_arrow_rust5proto13opentelemetry5trace2v16statusNtB2_10StatusCode11as_str_name
FNDA:0,_RNvMNtNtNtNtNtCs2Zzx8WPYKXd_15otel_arrow_rust5proto13opentelemetry5trace2v16statusNtB2_10StatusCode13from_str_name
FNDA:0,_RNvMs0_NtNtNtNtNtCs2Zzx8WPYKXd_15otel_arrow_rust5proto13opentelemetry5trace2v14spanNtB5_12EventBuilder6finish
FNDA:0,_RNvMs9_NtNtNtNtNtCs2Zzx8WPYKXd_15otel_arrow_rust5proto13opentelemetry5trace2v14spanNtB5_11LinkBuilder6finish
FNDA:0,_RNvMsF_NtNtNtNtCs2Zzx8WPYKXd_15otel_arrow_rust5proto13opentelemetry5trace2v1NtB5_6Status4code
FNDA:0,_RNvMsF_NtNtNtNtCs2Zzx8WPYKXd_15otel_arrow_rust5proto13opentelemetry5trace2v1NtB5_6Status8set_code
FNDA:0,_RNvMsx_NtNtNtNtCs2Zzx8WPYKXd_15otel_arrow_rust5proto13opentelemetry5trace2v1NtB5_4Span4kind
FNDA:0,_RNvMsx_NtNtNtNtCs2Zzx8WPYKXd_15otel_arrow_rust5proto13opentelemetry5trace2v1NtB5_4Span8set_kind
FNDA:0,_RNvXs1_NtNtNtNtNtCs2Zzx8WPYKXd_15otel_arrow_rust5proto13opentelemetry5trace2v14spanNtB5_5EventINtNtCs8sCtDi7t2F4_4core7convert4FromNtB5_12EventBuilderE4from
FNDA:0,_RNvXs3_NtNtNtNtCs2Zzx8WPYKXd_15otel_arrow_rust5proto13opentelemetry5trace2v1NtB5_10TracesDataNtNtCs9ugllKyEvyV_5prost7message7Message11encoded_lenBd_
FNDA:0,_RNvXs3_NtNtNtNtCs2Zzx8WPYKXd_15otel_arrow_rust5proto13opentelemetry5trace2v1NtB5_10TracesDataNtNtCs9ugllKyEvyV_5prost7message7Message5clear
FNDA:0,_RNvXs4_NtNtNtNtCs2Zzx8WPYKXd_15otel_arrow_rust5proto13opentelemetry5trace2v1NtB5_10TracesDataNtNtCs8sCtDi7t2F4_4core7default7Default7default
FNDA:0,_RNvXs5_NtNtNtNtNtCs2Zzx8WPYKXd_15otel_arrow_rust5proto13opentelemetry5trace2v14spanNtB5_5EventNtNtCs9ugllKyEvyV_5prost7message7Message5clear
FNDA:0,_RNvXs8_NtNtNtNtCs2Zzx8WPYKXd_15otel_arrow_rust5proto13opentelemetry5trace2v1NtB5_13ResourceSpansINtNtCs8sCtDi7t2F4_4core7convert4FromNtB5_20ResourceSpansBuilderE4from
FNDA:0,_RNvXsC_NtNtNtNtCs2Zzx8WPYKXd_15otel_arrow_rust5proto13opentelemetry5trace2v1NtB5_6StatusNtNtCs9ugllKyEvyV_5prost7message7Message5clear
FNDA:0,_RNvXsQ_NtNtNtNtCs2Zzx8WPYKXd_15otel_arrow_rust5proto13opentelemetry5trace2v1NtB5_9SpanFlagsNtNtCs8sCtDi7t2F4_4core7default7Default7default
FNDA:0,_RNvXsR_NtNtNtNtCs2Zzx8WPYKXd_15otel_arrow_rust5proto13opentelemetry5trace2v1lINtNtCs8sCtDi7t2F4_4core7convert4FromNtB5_9SpanFlagsE4from
FNDA:0,_RNvXsa_NtNtNtNtNtCs2Zzx8WPYKXd_15otel_arrow_rust5proto13opentelemetry5trace2v14spanNtB5_4LinkINtNtCs8sCtDi7t2F4_4core7convert4FromNtB5_11LinkBuilderE4from
FNDA:0,_RNvXsa_NtNtNtNtNtCs2Zzx8WPYKXd_15otel_arrow_rust5proto13opentelemetry5trace2v16statuslINtNtCs8sCtDi7t2F4_4core7convert4FromNtB5_10StatusCodeE4from
FNDA:0,_RNvXsc_NtNtNtNtCs2Zzx8WPYKXd_15otel_arrow_rust5proto13opentelemetry5trace2v1NtB5_13ResourceSpansNtNtCs9ugllKyEvyV_5prost7message7Message5clear
FNDA:0,_RNvXse_NtNtNtNtNtCs2Zzx8WPYKXd_15otel_arrow_rust5proto13opentelemetry5trace2v14spanNtB5_4LinkNtNtCs9ugllKyEvyV_5prost7message7Message5clear
FNDA:0,_RNvXsh_NtNtNtNtCs2Zzx8WPYKXd_15otel_arrow_rust5proto13opentelemetry5trace2v1NtB5_10ScopeSpansINtNtCs8sCtDi7t2F4_4core7convert4FromNtB5_17ScopeSpansBuilderE4from
FNDA:0,_RNvXsl_NtNtNtNtCs2Zzx8WPYKXd_15otel_arrow_rust5proto13opentelemetry5trace2v1NtB5_10ScopeSpansNtNtCs9ugllKyEvyV_5prost7message7Message5clear
FNDA:0,_RNvXsq_NtNtNtNtCs2Zzx8WPYKXd_15otel_arrow_rust5proto13opentelemetry5trace2v1NtB5_4SpanINtNtCs8sCtDi7t2F4_4core7convert4FromNtB5_11SpanBuilderE4from
FNDA:0,_RNvXss_NtNtNtNtNtCs2Zzx8WPYKXd_15otel_arrow_rust5proto13opentelemetry5trace2v14spanlINtNtCs8sCtDi7t2F4_4core7convert4FromNtB5_8SpanKindE4from
FNDA:0,_RNvXsu_NtNtNtNtCs2Zzx8WPYKXd_15otel_arrow_rust5proto13opentelemetry5trace2v1NtB5_4SpanNtNtCs9ugllKyEvyV_5prost7message7Message5clear
FNDA:0,_RNvXs6_NtNtNtNtNtCs2Zzx8WPYKXd_15otel_arrow_rust5proto13opentelemetry5trace2v14spanNtB5_5EventNtNtCs8sCtDi7t2F4_4core7default7Default7default
FNDA:0,_RNvXsf_NtNtNtNtNtCs2Zzx8WPYKXd_15otel_arrow_rust5proto13opentelemetry5trace2v14spanNtB5_4LinkNtNtCs8sCtDi7t2F4_4core7default7Default7default
FNDA:6,_RNvXsr_NtNtNtNtNtCs2Zzx8WPYKXd_15otel_arrow_rust5proto13opentelemetry5trace2v14spanNtB5_8SpanKindNtNtCs8sCtDi7t2F4_4core7default7Default7default
FNDA:1,_RINvMs8_NtNtNtNtNtCs2Zzx8WPYKXd_15otel_arrow_rust5proto13opentelemetry5trace2v14spanNtB6_4Link3newNtNtBg_5pdata7TraceIDNtB1A_6SpanIDEBg_
FNDA:1,_RINvMs_NtNtNtNtNtCs2Zzx8WPYKXd_15otel_arrow_rust5proto13opentelemetry5trace2v14spanNtB5_5Event3newReyEBf_
FNDA:0,_RINvNvXs7_NtNtNtNtNtCs2Zzx8WPYKXd_15otel_arrow_rust5proto13opentelemetry5trace2v14spanNtB8_5EventNtNtCs8sCtDi7t2F4_4core3fmt5Debug3fmt13ScalarWrapperRyEBi_
FNDA:0,_RINvNvXs7_NtNtNtNtNtCs2Zzx8WPYKXd_15otel_arrow_rust5proto13opentelemetry5trace2v14spanNtB8_5EventNtNtCs8sCtDi7t2F4_4core3fmt5Debug3fmts0_13ScalarWrapperRmEBi_
FNDA:0,_RINvNvXs7_NtNtNtNtNtCs2Zzx8WPYKXd_15otel_arrow_rust5proto13opentelemetry5trace2v14spanNtB8_5EventNtNtCs8sCtDi7t2F4_4core3fmt5Debug3fmts_13ScalarWrapperRNtNtCshFLakfGc1jx_5alloc6string6StringEBi_
FNDA:0,_RINvNvXsg_NtNtNtNtNtCs2Zzx8WPYKXd_15otel_arrow_rust5proto13opentelemetry5trace2v14spanNtB8_4LinkNtNtCs8sCtDi7t2F4_4core3fmt5Debug3fmt13ScalarWrapperRINtNtCshFLakfGc1jx_5alloc3vec3VechEEBi_
FNDA:0,_RINvNvXsg_NtNtNtNtNtCs2Zzx8WPYKXd_15otel_arrow_rust5proto13opentelemetry5trace2v14spanNtB8_4LinkNtNtCs8sCtDi7t2F4_4core3fmt5Debug3fmts0_13ScalarWrapperRNtNtCshFLakfGc1jx_5alloc6string6StringEBi_
FNDA:0,_RINvNvXsg_NtNtNtNtNtCs2Zzx8WPYKXd_15otel_arrow_rust5proto13opentelemetry5trace2v14spanNtB8_4LinkNtNtCs8sCtDi7t2F4_4core3fmt5Debug3fmts1_13ScalarWrapperRmEBi_
FNDA:0,_RINvNvXsg_NtNtNtNtNtCs2Zzx8WPYKXd_15otel_arrow_rust5proto13opentelemetry5trace2v14spanNtB8_4LinkNtNtCs8sCtDi7t2F4_4core3fmt5Debug3fmts2_13ScalarWrapperRmEBi_
FNDA:0,_RINvNvXsg_NtNtNtNtNtCs2Zzx8WPYKXd_15otel_arrow_rust5proto13opentelemetry5trace2v14spanNtB8_4LinkNtNtCs8sCtDi7t2F4_4core3fmt5Debug3fmts_13ScalarWrapperRINtNtCshFLakfGc1jx_5alloc3vec3VechEEBi_
FNDA:0,_RNCINvXs5_NtNtNtNtNtCs2Zzx8WPYKXd_15otel_arrow_rust5proto13opentelemetry5trace2v14spanNtB8_5EventNtNtCs9ugllKyEvyV_5prost7message7Message11merge_fieldQQNtNtNtCs87Lp0jQnWEh_5tonic5codec6buffer9DecodeBufE0Bi_
FNDA:0,_RNCINvXs5_NtNtNtNtNtCs2Zzx8WPYKXd_15otel_arrow_rust5proto13opentelemetry5trace2v14spanNtB8_5EventNtNtCs9ugllKyEvyV_5prost7message7Message11merge_fieldQQNtNtNtCs87Lp0jQnWEh_5tonic5codec6buffer9DecodeBufEs0_0Bi_
FNDA:0,_RNCINvXs5_NtNtNtNtNtCs2Zzx8WPYKXd_15otel_arrow_rust5proto13opentelemetry5trace2v14spanNtB8_5EventNtNtCs9ugllKyEvyV_5prost7message7Message11merge_fieldQQNtNtNtCs87Lp0jQnWEh_5tonic5codec6buffer9DecodeBufEs1_0Bi_
FNDA:0,_RNCINvXs5_NtNtNtNtNtCs2Zzx8WPYKXd_15otel_arrow_rust5proto13opentelemetry5trace2v14spanNtB8_5EventNtNtCs9ugllKyEvyV_5prost7message7Message11merge_fieldQQNtNtNtCs87Lp0jQnWEh_5tonic5codec6buffer9DecodeBufEs_0Bi_
FNDA:0,_RNCINvXse_NtNtNtNtNtCs2Zzx8WPYKXd_15otel_arrow_rust5proto13opentelemetry5trace2v14spanNtB8_4LinkNtNtCs9ugllKyEvyV_5prost7message7Message11merge_fieldQQNtNtNtCs87Lp0jQnWEh_5tonic5codec6buffer9DecodeBufE0Bi_
FNDA:0,_RNCINvXse_NtNtNtNtNtCs2Zzx8WPYKXd_15otel_arrow_rust5proto13opentelemetry5trace2v14spanNtB8_4LinkNtNtCs9ugllKyEvyV_5prost7message7Message11merge_fieldQQNtNtNtCs87Lp0jQnWEh_5tonic5codec6buffer9DecodeBufEs0_0Bi_
FNDA:0,_RNCINvXse_NtNtNtNtNtCs2Zzx8WPYKXd_15otel_arrow_rust5proto13opentelemetry5trace2v14spanNtB8_4LinkNtNtCs9ugllKyEvyV_5prost7message7Message11merge_fieldQQNtNtNtCs87Lp0jQnWEh_5tonic5codec6buffer9DecodeBufEs1_0Bi_
FNDA:0,_RNCINvXse_NtNtNtNtNtCs2Zzx8WPYKXd_15otel_arrow_rust5proto13opentelemetry5trace2v14spanNtB8_4LinkNtNtCs9ugllKyEvyV_5prost7message7Message11merge_fieldQQNtNtNtCs87Lp0jQnWEh_5tonic5codec6buffer9DecodeBufEs2_0Bi_
FNDA:0,_RNCINvXse_NtNtNtNtNtCs2Zzx8WPYKXd_15otel_arrow_rust5proto13opentelemetry5trace2v14spanNtB8_4LinkNtNtCs9ugllKyEvyV_5prost7message7Message11merge_fieldQQNtNtNtCs87Lp0jQnWEh_5tonic5codec6buffer9DecodeBufEs3_0Bi_
FNDA:0,_RNCINvXse_NtNtNtNtNtCs2Zzx8WPYKXd_15otel_arrow_rust5proto13opentelemetry5trace2v14spanNtB8_4LinkNtNtCs9ugllKyEvyV_5prost7message7Message11merge_fieldQQNtNtNtCs87Lp0jQnWEh_5tonic5codec6buffer9DecodeBufEs_0Bi_
FNDA:7,_RNvXs9_NtNtNtNtNtCs2Zzx8WPYKXd_15otel_arrow_rust5proto13opentelemetry5trace2v16statusNtB5_10StatusCodeNtNtCs8sCtDi7t2F4_4core7default7Default7default
FNDA:2,_RINvMs6_NtNtNtNtCs2Zzx8WPYKXd_15otel_arrow_rust5proto13opentelemetry5trace2v1NtB6_13ResourceSpans3newNtNtNtBa_8resource2v18ResourceEBe_
FNDA:2,_RINvMs6_NtNtNtNtCs2Zzx8WPYKXd_15otel_arrow_rust5proto13opentelemetry5trace2v1NtB6_13ResourceSpans5buildNtNtNtBa_8resource2v18ResourceEBe_
FNDA:2,_RINvMs7_NtNtNtNtCs2Zzx8WPYKXd_15otel_arrow_rust5proto13opentelemetry5trace2v1NtB6_20ResourceSpansBuilder11scope_spansINtNtCshFLakfGc1jx_5alloc3vec3VecNtB6_10ScopeSpansEEBe_
FNDA:1,_RINvMs_NtNtNtNtCs2Zzx8WPYKXd_15otel_arrow_rust5proto13opentelemetry5trace2v1NtB5_10TracesData3newINtNtCshFLakfGc1jx_5alloc3vec3VecNtB5_13ResourceSpansEEBd_
FNDA:2,_RINvMsf_NtNtNtNtCs2Zzx8WPYKXd_15otel_arrow_rust5proto13opentelemetry5trace2v1NtB6_10ScopeSpans3newNtNtNtBa_6common2v120InstrumentationScopeEBe_
FNDA:2,_RINvMsf_NtNtNtNtCs2Zzx8WPYKXd_15otel_arrow_rust5proto13opentelemetry5trace2v1NtB6_10ScopeSpans5buildNtNtNtBa_6common2v120InstrumentationScopeEBe_
FNDA:2,_RINvMsg_NtNtNtNtCs2Zzx8WPYKXd_15otel_arrow_rust5proto13opentelemetry5trace2v1NtB6_17ScopeSpansBuilder5spansINtNtCshFLakfGc1jx_5alloc3vec3VecNtB6_4SpanEEBe_
FNDA:2,_RINvMso_NtNtNtNtCs2Zzx8WPYKXd_15otel_arrow_rust5proto13opentelemetry5trace2v1NtB6_4Span3newNtNtBe_5pdata7TraceIDNtB1t_6SpanIDReyEBe_
FNDA:2,_RINvMso_NtNtNtNtCs2Zzx8WPYKXd_15otel_arrow_rust5proto13opentelemetry5trace2v1NtB6_4Span5buildNtNtBe_5pdata7TraceIDNtB1v_6SpanIDReyEBe_
FNDA:2,_RINvMsp_NtNtNtNtCs2Zzx8WPYKXd_15otel_arrow_rust5proto13opentelemetry5trace2v1NtB6_11SpanBuilder10attributesINtNtCshFLakfGc1jx_5alloc3vec3VecNtNtNtBa_6common2v18KeyValueEEBe_
FNDA:1,_RINvMsp_NtNtNtNtCs2Zzx8WPYKXd_15otel_arrow_rust5proto13opentelemetry5trace2v1NtB6_11SpanBuilder11trace_stateReEBe_
FNDA:1,_RINvMsp_NtNtNtNtCs2Zzx8WPYKXd_15otel_arrow_rust5proto13opentelemetry5trace2v1NtB6_11SpanBuilder14parent_span_idNtNtBe_5pdata6SpanIDEBe_
FNDA:2,_RINvMsp_NtNtNtNtCs2Zzx8WPYKXd_15otel_arrow_rust5proto13opentelemetry5trace2v1NtB6_11SpanBuilder18end_time_unix_nanoyEBe_
FNDA:1,_RINvMsp_NtNtNtNtCs2Zzx8WPYKXd_15otel_arrow_rust5proto13opentelemetry5trace2v1NtB6_11SpanBuilder19dropped_links_countmEBe_
FNDA:1,_RINvMsp_NtNtNtNtCs2Zzx8WPYKXd_15otel_arrow_rust5proto13opentelemetry5trace2v1NtB6_11SpanBuilder20dropped_events_countmEBe_
FNDA:1,_RINvMsp_NtNtNtNtCs2Zzx8WPYKXd_15otel_arrow_rust5proto13opentelemetry5trace2v1NtB6_11SpanBuilder24dropped_attributes_countmEBe_
FNDA:1,_RINvMsp_NtNtNtNtCs2Zzx8WPYKXd_15otel_arrow_rust5proto13opentelemetry5trace2v1NtB6_11SpanBuilder4kindNtNtB6_4span8SpanKindEBe_
FNDA:1,_RINvMsp_NtNtNtNtCs2Zzx8WPYKXd_15otel_arrow_rust5proto13opentelemetry5trace2v1NtB6_11SpanBuilder5flagsNtB6_9SpanFlagsEBe_
FNDA:1,_RINvMsp_NtNtNtNtCs2Zzx8WPYKXd_15otel_arrow_rust5proto13opentelemetry5trace2v1NtB6_11SpanBuilder5linksINtNtCshFLakfGc1jx_5alloc3vec3VecNtNtB6_4span4LinkEEBe_
FNDA:1,_RINvMsp_NtNtNtNtCs2Zzx8WPYKXd_15otel_arrow_rust5proto13opentelemetry5trace2v1NtB6_11SpanBuilder6eventsINtNtCshFLakfGc1jx_5alloc3vec3VecNtNtB6_4span5EventEEBe_
FNDA:2,_RINvMsp_NtNtNtNtCs2Zzx8WPYKXd_15otel_arrow_rust5proto13opentelemetry5trace2v1NtB6_11SpanBuilder6statusNtB6_6StatusEBe_
FNDA:2,_RINvMsy_NtNtNtNtCs2Zzx8WPYKXd_15otel_arrow_rust5proto13opentelemetry5trace2v1NtB6_6Status3newReNtNtB6_6status10StatusCodeEBe_
FNDA:0,_RINvNvXsE_NtNtNtNtCs2Zzx8WPYKXd_15otel_arrow_rust5proto13opentelemetry5trace2v1NtB8_6StatusNtNtCs8sCtDi7t2F4_4core3fmt5Debug3fmt13ScalarWrapperRNtNtCshFLakfGc1jx_5alloc6string6StringEBg_
FNDA:0,_RINvNvXse_NtNtNtNtCs2Zzx8WPYKXd_15otel_arrow_rust5proto13opentelemetry5trace2v1NtB8_13ResourceSpansNtNtCs8sCtDi7t2F4_4core3fmt5Debug3fmt13ScalarWrapperRNtNtCshFLakfGc1jx_5alloc6string6StringEBg_
FNDA:0,_RINvNvXsn_NtNtNtNtCs2Zzx8WPYKXd_15otel_arrow_rust5proto13opentelemetry5trace2v1NtB8_10ScopeSpansNtNtCs8sCtDi7t2F4_4core3fmt5Debug3fmt13ScalarWrapperRNtNtCshFLakfGc1jx_5alloc6string6StringEBg_
FNDA:0,_RINvNvXsw_NtNtNtNtCs2Zzx8WPYKXd_15otel_arrow_rust5proto13opentelemetry5trace2v1NtB8_4SpanNtNtCs8sCtDi7t2F4_4core3fmt5Debug3fmt13ScalarWrapperRINtNtCshFLakfGc1jx_5alloc3vec3VechEEBg_
FNDA:0,_RINvNvXsw_NtNtNtNtCs2Zzx8WPYKXd_15otel_arrow_rust5proto13opentelemetry5trace2v1NtB8_4SpanNtNtCs8sCtDi7t2F4_4core3fmt5Debug3fmts0_13ScalarWrapperRNtNtCshFLakfGc1jx_5alloc6string6StringEBg_
FNDA:0,_RINvNvXsw_NtNtNtNtCs2Zzx8WPYKXd_15otel_arrow_rust5proto13opentelemetry5trace2v1NtB8_4SpanNtNtCs8sCtDi7t2F4_4core3fmt5Debug3fmts1_13ScalarWrapperRINtNtCshFLakfGc1jx_5alloc3vec3VechEEBg_
FNDA:0,_RINvNvXsw_NtNtNtNtCs2Zzx8WPYKXd_15otel_arrow_rust5proto13opentelemetry5trace2v1NtB8_4SpanNtNtCs8sCtDi7t2F4_4core3fmt5Debug3fmts2_13ScalarWrapperRmEBg_
FNDA:0,_RINvNvXsw_NtNtNtNtCs2Zzx8WPYKXd_15otel_arrow_rust5proto13opentelemetry5trace2v1NtB8_4SpanNtNtCs8sCtDi7t2F4_4core3fmt5Debug3fmts3_13ScalarWrapperRNtNtCshFLakfGc1jx_5alloc6string6StringEBg_
FNDA:0,_RINvNvXsw_NtNtNtNtCs2Zzx8WPYKXd_15otel_arrow_rust5proto13opentelemetry5trace2v1NtB8_4SpanNtNtCs8sCtDi7t2F4_4core3fmt5Debug3fmts4_13ScalarWrapperRyEBg_
FNDA:0,_RINvNvXsw_NtNtNtNtCs2Zzx8WPYKXd_15otel_arrow_rust5proto13opentelemetry5trace2v1NtB8_4SpanNtNtCs8sCtDi7t2F4_4core3fmt5Debug3fmts5_13ScalarWrapperRyEBg_
FNDA:0,_RINvNvXsw_NtNtNtNtCs2Zzx8WPYKXd_15otel_arrow_rust5proto13opentelemetry5trace2v1NtB8_4SpanNtNtCs8sCtDi7t2F4_4core3fmt5Debug3fmts6_13ScalarWrapperRmEBg_
FNDA:0,_RINvNvXsw_NtNtNtNtCs2Zzx8WPYKXd_15otel_arrow_rust5proto13opentelemetry5trace2v1NtB8_4SpanNtNtCs8sCtDi7t2F4_4core3fmt5Debug3fmts7_13ScalarWrapperRmEBg_
FNDA:0,_RINvNvXsw_NtNtNtNtCs2Zzx8WPYKXd_15otel_arrow_rust5proto13opentelemetry5trace2v1NtB8_4SpanNtNtCs8sCtDi7t2F4_4core3fmt5Debug3fmts8_13ScalarWrapperRmEBg_
FNDA:0,_RINvNvXsw_NtNtNtNtCs2Zzx8WPYKXd_15otel_arrow_rust5proto13opentelemetry5trace2v1NtB8_4SpanNtNtCs8sCtDi7t2F4_4core3fmt5Debug3fmts_13ScalarWrapperRINtNtCshFLakfGc1jx_5alloc3vec3VechEEBg_
FNDA:0,_RNCINvXsC_NtNtNtNtCs2Zzx8WPYKXd_15otel_arrow_rust5proto13opentelemetry5trace2v1NtB8_6StatusNtNtCs9ugllKyEvyV_5prost7message7Message11merge_fieldQQNtNtNtCs87Lp0jQnWEh_5tonic5codec6buffer9DecodeBufE0Bg_
FNDA:0,_RNCINvXsC_NtNtNtNtCs2Zzx8WPYKXd_15otel_arrow_rust5proto13opentelemetry5trace2v1NtB8_6StatusNtNtCs9ugllKyEvyV_5prost7message7Message11merge_fieldQQNtNtNtCs87Lp0jQnWEh_5tonic5codec6buffer9DecodeBufEs_0Bg_
FNDA:0,_RNCINvXsc_NtNtNtNtCs2Zzx8WPYKXd_15otel_arrow_rust5proto13opentelemetry5trace2v1NtB8_13ResourceSpansNtNtCs9ugllKyEvyV_5prost7message7Message11merge_fieldQQNtNtNtCs87Lp0jQnWEh_5tonic5codec6buffer9DecodeBufE0Bg_
FNDA:0,_RNCINvXsc_NtNtNtNtCs2Zzx8WPYKXd_15otel_arrow_rust5proto13opentelemetry5trace2v1NtB8_13ResourceSpansNtNtCs9ugllKyEvyV_5prost7message7Message11merge_fieldQQNtNtNtCs87Lp0jQnWEh_5tonic5codec6buffer9DecodeBufEs0_0Bg_
FNDA:0,_RNCINvXsc_NtNtNtNtCs2Zzx8WPYKXd_15otel_arrow_rust5proto13opentelemetry5trace2v1NtB8_13ResourceSpansNtNtCs9ugllKyEvyV_5prost7message7Message11merge_fieldQQNtNtNtCs87Lp0jQnWEh_5tonic5codec6buffer9DecodeBufEs_0Bg_
FNDA:0,_RNCINvXsl_NtNtNtNtCs2Zzx8WPYKXd_15otel_arrow_rust5proto13opentelemetry5trace2v1NtB8_10ScopeSpansNtNtCs9ugllKyEvyV_5prost7message7Message11merge_fieldQQNtNtNtCs87Lp0jQnWEh_5tonic5codec6buffer9DecodeBufE0Bg_
FNDA:0,_RNCINvXsl_NtNtNtNtCs2Zzx8WPYKXd_15otel_arrow_rust5proto13opentelemetry5trace2v1NtB8_10ScopeSpansNtNtCs9ugllKyEvyV_5prost7message7Message11merge_fieldQQNtNtNtCs87Lp0jQnWEh_5tonic5codec6buffer9DecodeBufEs0_0Bg_
FNDA:0,_RNCINvXsl_NtNtNtNtCs2Zzx8WPYKXd_15otel_arrow_rust5proto13opentelemetry5trace2v1NtB8_10ScopeSpansNtNtCs9ugllKyEvyV_5prost7message7Message11merge_fieldQQNtNtNtCs87Lp0jQnWEh_5tonic5codec6buffer9DecodeBufEs_0Bg_
FNDA:0,_RNCINvXsu_NtNtNtNtCs2Zzx8WPYKXd_15otel_arrow_rust5proto13opentelemetry5trace2v1NtB8_4SpanNtNtCs9ugllKyEvyV_5prost7message7Message11merge_fieldQQNtNtNtCs87Lp0jQnWEh_5tonic5codec6buffer9DecodeBufE0Bg_
FNDA:0,_RNCINvXsu_NtNtNtNtCs2Zzx8WPYKXd_15otel_arrow_rust5proto13opentelemetry5trace2v1NtB8_4SpanNtNtCs9ugllKyEvyV_5prost7message7Message11merge_fieldQQNtNtNtCs87Lp0jQnWEh_5tonic5codec6buffer9DecodeBufEs0_0Bg_
FNDA:0,_RNCINvXsu_NtNtNtNtCs2Zzx8WPYKXd_15otel_arrow_rust5proto13opentelemetry5trace2v1NtB8_4SpanNtNtCs9ugllKyEvyV_5prost7message7Message11merge_fieldQQNtNtNtCs87Lp0jQnWEh_5tonic5codec6buffer9DecodeBufEs1_0Bg_
FNDA:0,_RNCINvXsu_NtNtNtNtCs2Zzx8WPYKXd_15otel_arrow_rust5proto13opentelemetry5trace2v1NtB8_4SpanNtNtCs9ugllKyEvyV_5prost7message7Message11merge_fieldQQNtNtNtCs87Lp0jQnWEh_5tonic5codec6buffer9DecodeBufEs2_0Bg_
FNDA:0,_RNCINvXsu_NtNtNtNtCs2Zzx8WPYKXd_15otel_arrow_rust5proto13opentelemetry5trace2v1NtB8_4SpanNtNtCs9ugllKyEvyV_5prost7message7Message11merge_fieldQQNtNtNtCs87Lp0jQnWEh_5tonic5codec6buffer9DecodeBufEs3_0Bg_
FNDA:0,_RNCINvXsu_NtNtNtNtCs2Zzx8WPYKXd_15otel_arrow_rust5proto13opentelemetry5trace2v1NtB8_4SpanNtNtCs9ugllKyEvyV_5prost7message7Message11merge_fieldQQNtNtNtCs87Lp0jQnWEh_5tonic5codec6buffer9DecodeBufEs4_0Bg_
FNDA:0,_RNCINvXsu_NtNtNtNtCs2Zzx8WPYKXd_15otel_arrow_rust5proto13opentelemetry5trace2v1NtB8_4SpanNtNtCs9ugllKyEvyV_5prost7message7Message11merge_fieldQQNtNtNtCs87Lp0jQnWEh_5tonic5codec6buffer9DecodeBufEs5_0Bg_
FNDA:0,_RNCINvXsu_NtNtNtNtCs2Zzx8WPYKXd_15otel_arrow_rust5proto13opentelemetry5trace2v1NtB8_4SpanNtNtCs9ugllKyEvyV_5prost7message7Message11merge_fieldQQNtNtNtCs87Lp0jQnWEh_5tonic5codec6buffer9DecodeBufEs6_0Bg_
FNDA:0,_RNCINvXsu_NtNtNtNtCs2Zzx8WPYKXd_15otel_arrow_rust5proto13opentelemetry5trace2v1NtB8_4SpanNtNtCs9ugllKyEvyV_5prost7message7Message11merge_fieldQQNtNtNtCs87Lp0jQnWEh_5tonic5codec6buffer9DecodeBufEs7_0Bg_
FNDA:0,_RNCINvXsu_NtNtNtNtCs2Zzx8WPYKXd_15otel_arrow_rust5proto13opentelemetry5trace2v1NtB8_4SpanNtNtCs9ugllKyEvyV_5prost7message7Message11merge_fieldQQNtNtNtCs87Lp0jQnWEh_5tonic5codec6buffer9DecodeBufEs8_0Bg_
FNDA:0,_RNCINvXsu_NtNtNtNtCs2Zzx8WPYKXd_15otel_arrow_rust5proto13opentelemetry5trace2v1NtB8_4SpanNtNtCs9ugllKyEvyV_5prost7message7Message11merge_fieldQQNtNtNtCs87Lp0jQnWEh_5tonic5codec6buffer9DecodeBufEs9_0Bg_
FNDA:0,_RNCINvXsu_NtNtNtNtCs2Zzx8WPYKXd_15otel_arrow_rust5proto13opentelemetry5trace2v1NtB8_4SpanNtNtCs9ugllKyEvyV_5prost7message7Message11merge_fieldQQNtNtNtCs87Lp0jQnWEh_5tonic5codec6buffer9DecodeBufEs_0Bg_
FNDA:0,_RNCINvXsu_NtNtNtNtCs2Zzx8WPYKXd_15otel_arrow_rust5proto13opentelemetry5trace2v1NtB8_4SpanNtNtCs9ugllKyEvyV_5prost7message7Message11merge_fieldQQNtNtNtCs87Lp0jQnWEh_5tonic5codec6buffer9DecodeBufEsa_0Bg_
FNDA:0,_RNCINvXsu_NtNtNtNtCs2Zzx8WPYKXd_15otel_arrow_rust5proto13opentelemetry5trace2v1NtB8_4SpanNtNtCs9ugllKyEvyV_5prost7message7Message11merge_fieldQQNtNtNtCs87Lp0jQnWEh_5tonic5codec6buffer9DecodeBufEsb_0Bg_
FNDA:0,_RNCINvXsu_NtNtNtNtCs2Zzx8WPYKXd_15otel_arrow_rust5proto13opentelemetry5trace2v1NtB8_4SpanNtNtCs9ugllKyEvyV_5prost7message7Message11merge_fieldQQNtNtNtCs87Lp0jQnWEh_5tonic5codec6buffer9DecodeBufEsc_0Bg_
FNDA:0,_RNCINvXsu_NtNtNtNtCs2Zzx8WPYKXd_15otel_arrow_rust5proto13opentelemetry5trace2v1NtB8_4SpanNtNtCs9ugllKyEvyV_5prost7message7Message11merge_fieldQQNtNtNtCs87Lp0jQnWEh_5tonic5codec6buffer9DecodeBufEsd_0Bg_
FNDA:2,_RNCNvXsc_NtNtNtNtCs2Zzx8WPYKXd_15otel_arrow_rust5proto13opentelemetry5trace2v1NtB7_13ResourceSpansNtNtCs9ugllKyEvyV_5prost7message7Message11encoded_len0Bf_
FNDA:3,_RNCNvXsl_NtNtNtNtCs2Zzx8WPYKXd_15otel_arrow_rust5proto13opentelemetry5trace2v1NtB7_10ScopeSpansNtNtCs9ugllKyEvyV_5prost7message7Message11encoded_len0Bf_
FNDA:4,_RNCNvXsu_NtNtNtNtCs2Zzx8WPYKXd_15otel_arrow_rust5proto13opentelemetry5trace2v1NtB7_4SpanNtNtCs9ugllKyEvyV_5prost7message7Message11encoded_len0Bf_
FNDA:2,_RNvMs7_NtNtNtNtCs2Zzx8WPYKXd_15otel_arrow_rust5proto13opentelemetry5trace2v1NtB5_20ResourceSpansBuilder6finish
FNDA:2,_RNvMsg_NtNtNtNtCs2Zzx8WPYKXd_15otel_arrow_rust5proto13opentelemetry5trace2v1NtB5_17ScopeSpansBuilder6finish
FNDA:2,_RNvMsp_NtNtNtNtCs2Zzx8WPYKXd_15otel_arrow_rust5proto13opentelemetry5trace2v1NtB5_11SpanBuilder6finish
FNDA:0,_RNvXs5_NtNtNtNtCs2Zzx8WPYKXd_15otel_arrow_rust5proto13opentelemetry5trace2v1NtB5_10TracesDataNtNtCs8sCtDi7t2F4_4core3fmt5Debug3fmt
FNDA:1,_RNvXsD_NtNtNtNtCs2Zzx8WPYKXd_15otel_arrow_rust5proto13opentelemetry5trace2v1NtB5_6StatusNtNtCs8sCtDi7t2F4_4core7default7Default7default
FNDA:1,_RNvXsd_NtNtNtNtCs2Zzx8WPYKXd_15otel_arrow_rust5proto13opentelemetry5trace2v1NtB5_13ResourceSpansNtNtCs8sCtDi7t2F4_4core7default7Default7default
FNDA:1,_RNvXsm_NtNtNtNtCs2Zzx8WPYKXd_15otel_arrow_rust5proto13opentelemetry5trace2v1NtB5_10ScopeSpansNtNtCs8sCtDi7t2F4_4core7default7Default7default
FNDA:1,_RNvXsv_NtNtNtNtCs2Zzx8WPYKXd_15otel_arrow_rust5proto13opentelemetry5trace2v1NtB5_4SpanNtNtCs8sCtDi7t2F4_4core7default7Default7default
FNF:16
FNH:9
DA:2,1
DA:9,11
DA:20,12
DA:31,26
DA:70,1
DA:83,1
DA:100,6
DA:115,0
DA:116,0
DA:117,0
DA:118,0
DA:119,0
DA:120,0
DA:121,0
DA:122,0
DA:124,0
DA:126,0
DA:127,0
DA:128,0
DA:129,0
DA:130,0
DA:131,0
DA:132,0
DA:133,0
DA:134,0
DA:136,0
DA:139,3
DA:150,7
DA:162,0
DA:163,0
DA:164,0
DA:165,0
DA:166,0
DA:168,0
DA:170,0
DA:171,0
DA:172,0
DA:173,0
DA:174,0
DA:175,0
DA:177,0
DA:180,0
DA:193,0
DA:194,0
DA:195,0
DA:196,0
DA:197,0
DA:198,0
DA:200,0
DA:202,0
DA:203,0
DA:204,0
DA:205,0
DA:206,0
DA:207,0
DA:208,0
DA:210,0
BRF:0
BRH:0
LF:57
LH:9
end_of_record
SF:/Users/d.dahl/code/otel-arrow/rust/otel-arrow-rust/src/test_util/create_array.rs
FN:46,_RNCNvNtNtCs2Zzx8WPYKXd_15otel_arrow_rust9test_util12create_array12create_array0B7_
FN:53,_RNCNvNtNtCs2Zzx8WPYKXd_15otel_arrow_rust9test_util12create_array12create_arrays0_0B7_
FN:56,_RNCNvNtNtCs2Zzx8WPYKXd_15otel_arrow_rust9test_util12create_array12create_arrays1_0B7_
FN:59,_RNCNvNtNtCs2Zzx8WPYKXd_15otel_arrow_rust9test_util12create_array12create_arrays2_0B7_
FN:62,_RNCNvNtNtCs2Zzx8WPYKXd_15otel_arrow_rust9test_util12create_array12create_arrays3_0B7_
FN:65,_RNCNvNtNtCs2Zzx8WPYKXd_15otel_arrow_rust9test_util12create_array12create_arrays4_0B7_
FN:68,_RNCNvNtNtCs2Zzx8WPYKXd_15otel_arrow_rust9test_util12create_array12create_arrays5_0B7_
FN:71,_RNCNvNtNtCs2Zzx8WPYKXd_15otel_arrow_rust9test_util12create_array12create_arrays6_0B7_
FN:74,_RNCNvNtNtCs2Zzx8WPYKXd_15otel_arrow_rust9test_util12create_array12create_arrays7_0B7_
FN:77,_RNCNvNtNtCs2Zzx8WPYKXd_15otel_arrow_rust9test_util12create_array12create_arrays8_0B7_
FN:81,_RNCNvNtNtCs2Zzx8WPYKXd_15otel_arrow_rust9test_util12create_array12create_arrays9_0B7_
FN:50,_RNCNvNtNtCs2Zzx8WPYKXd_15otel_arrow_rust9test_util12create_array12create_arrays_0B7_
FN:84,_RNCNvNtNtCs2Zzx8WPYKXd_15otel_arrow_rust9test_util12create_array12create_arraysa_0B7_
FN:87,_RNCNvNtNtCs2Zzx8WPYKXd_15otel_arrow_rust9test_util12create_array12create_arraysb_0B7_
FN:91,_RNCNvNtNtCs2Zzx8WPYKXd_15otel_arrow_rust9test_util12create_array12create_arraysc_0B7_
FN:95,_RNCNvNtNtCs2Zzx8WPYKXd_15otel_arrow_rust9test_util12create_array12create_arraysd_0B7_
FN:98,_RNCNvNtNtCs2Zzx8WPYKXd_15otel_arrow_rust9test_util12create_array12create_arrayse_0B7_
FN:36,_RNCNvNtNtCs2Zzx8WPYKXd_15otel_arrow_rust9test_util12create_array19create_record_batch0B7_
FN:41,_RNvNtNtCs2Zzx8WPYKXd_15otel_arrow_rust9test_util12create_array12create_array
FN:24,_RNvNtNtCs2Zzx8WPYKXd_15otel_arrow_rust9test_util12create_array18create_test_schema
FN:32,_RNvNtNtCs2Zzx8WPYKXd_15otel_arrow_rust9test_util12create_array19create_record_batch
FNDA:0,_RNCNvNtNtCs2Zzx8WPYKXd_15otel_arrow_rust9test_util12create_array12create_array0B7_
